ccopy_reg
_reconstructor
p0
(cpsychopy.data.experiment
ExperimentHandler
p1
c__builtin__
object
p2
Ntp3
Rp4
(dp5
S'originPath'
p6
NsS'dataFileName'
p7
VC:\u005cUsers\u005center\u005cOneDrive - University of Toronto\u005cLabs\u005cInzlicht Lab\u005coutside_project\u005cexperiment\u005cpsychoPy_scripts\u005cFULL_EXPERIMENT\u005c__TASKS__\u005cwrapper_beta\u005cdata/John_rsvp_1002_2
p8
sS'runtimeInfo'
p9
NsS'name'
p10
Vrsvp
p11
sS'dataNames'
p12
(lp13
S'usr_input_t1.keys'
p14
aS'usr_input_t1.rt'
p15
aS'usr_input_t2.keys'
p16
aS'usr_input_t2.rt'
p17
asS'autoLog'
p18
I01
sS'extraInfo'
p19
(dp20
S'date'
p21
V2018_Nov_04_1712
p22
sS'run'
p23
I2
sS'expName'
p24
g11
sVparticipant
p25
g0
(cfuture.types.newstr
newstr
p26
c__builtin__
unicode
p27
V1002
p28
tp29
Rp30
sS'frameRate'
p31
NssS'loopsUnfinished'
p32
(lp33
sS'saveWideText'
p34
I00
sS'thisEntry'
p35
(dp36
sS'version'
p37
S''
p38
sS'_paramNamesSoFar'
p39
(lp40
S'block'
p41
aS'sep_dur'
p42
aS'Tx'
p43
aS'trial'
p44
aS'stimulus'
p45
aS'cond'
p46
asS'entries'
p47
(lp48
(dp49
S'block.thisTrialN'
p50
I0
sS'stim.thisTrialN'
p51
I0
sS'block.thisRepN'
p52
I0
sg43
Vt2
p53
sS'stim.thisIndex'
p54
cnumpy.core.multiarray
scalar
p55
(cnumpy
dtype
p56
(S'i4'
p57
I0
I1
tp58
Rp59
(I3
S'<'
p60
NNNI-1
I-1
I0
tp61
bS'\x00\x00\x00\x00'
p62
tp63
Rp64
sg31
NsS'block.thisN'
p65
I0
sS'stim.thisN'
p66
I0
sg42
Vlong
p67
sg46
Vdistractor
p68
sg21
g22
sg23
I2
sS'trials.thisIndex'
p69
g55
(g59
S'\x00\x00\x00\x00'
p70
tp71
Rp72
sS'stim.thisRepN'
p73
I0
sg25
g30
sg45
VW
p74
sS'trials.thisRepN'
p75
I0
sS'trials.thisN'
p76
I0
sg44
g55
(g56
(S'i8'
p77
I0
I1
tp78
Rp79
(I3
S'<'
p80
NNNI-1
I-1
I0
tp81
bS'\x01\x00\x00\x00\x00\x00\x00\x00'
p82
tp83
Rp84
sg24
g11
sS'trials.thisTrialN'
p85
I0
sS'block.thisIndex'
p86
g55
(g59
S'\x00\x00\x00\x00'
p87
tp88
Rp89
sg41
g55
(g79
S'\x01\x00\x00\x00\x00\x00\x00\x00'
p90
tp91
Rp92
sa(dp93
S'block.thisTrialN'
p94
I0
sS'stim.thisTrialN'
p95
I1
sS'block.thisRepN'
p96
I0
sg43
g53
sS'stim.thisIndex'
p97
g55
(g59
S'\x01\x00\x00\x00'
p98
tp99
Rp100
sg31
NsS'block.thisN'
p101
I0
sS'stim.thisN'
p102
I1
sg42
g67
sg46
g68
sg21
g22
sg23
I2
sS'trials.thisIndex'
p103
g72
sS'stim.thisRepN'
p104
I0
sg25
g30
sg45
VX
p105
sS'trials.thisRepN'
p106
I0
sS'trials.thisN'
p107
I0
sg44
g55
(g79
S'\x02\x00\x00\x00\x00\x00\x00\x00'
p108
tp109
Rp110
sg24
g11
sS'trials.thisTrialN'
p111
I0
sS'block.thisIndex'
p112
g89
sg41
g55
(g79
S'\x01\x00\x00\x00\x00\x00\x00\x00'
p113
tp114
Rp115
sa(dp116
S'block.thisTrialN'
p117
I0
sS'stim.thisTrialN'
p118
I2
sS'block.thisRepN'
p119
I0
sg43
g53
sS'stim.thisIndex'
p120
g55
(g59
S'\x02\x00\x00\x00'
p121
tp122
Rp123
sg31
NsS'block.thisN'
p124
I0
sS'stim.thisN'
p125
I2
sg42
g67
sg46
g68
sg21
g22
sg23
I2
sS'trials.thisIndex'
p126
g72
sS'stim.thisRepN'
p127
I0
sg25
g30
sg45
VO
p128
sS'trials.thisRepN'
p129
I0
sS'trials.thisN'
p130
I0
sg44
g55
(g79
S'\x03\x00\x00\x00\x00\x00\x00\x00'
p131
tp132
Rp133
sg24
g11
sS'trials.thisTrialN'
p134
I0
sS'block.thisIndex'
p135
g89
sg41
g55
(g79
S'\x01\x00\x00\x00\x00\x00\x00\x00'
p136
tp137
Rp138
sa(dp139
S'block.thisTrialN'
p140
I0
sS'stim.thisTrialN'
p141
I3
sS'block.thisRepN'
p142
I0
sg43
g53
sS'stim.thisIndex'
p143
g55
(g59
S'\x03\x00\x00\x00'
p144
tp145
Rp146
sg31
NsS'block.thisN'
p147
I0
sS'stim.thisN'
p148
I3
sg42
g67
sg46
g68
sg21
g22
sg23
I2
sS'trials.thisIndex'
p149
g72
sS'stim.thisRepN'
p150
I0
sg25
g30
sg45
VI
p151
sS'trials.thisRepN'
p152
I0
sS'trials.thisN'
p153
I0
sg44
g55
(g79
S'\x04\x00\x00\x00\x00\x00\x00\x00'
p154
tp155
Rp156
sg24
g11
sS'trials.thisTrialN'
p157
I0
sS'block.thisIndex'
p158
g89
sg41
g55
(g79
S'\x01\x00\x00\x00\x00\x00\x00\x00'
p159
tp160
Rp161
sa(dp162
S'block.thisTrialN'
p163
I0
sS'stim.thisTrialN'
p164
I4
sS'block.thisRepN'
p165
I0
sg43
g53
sS'stim.thisIndex'
p166
g55
(g59
S'\x04\x00\x00\x00'
p167
tp168
Rp169
sg31
NsS'block.thisN'
p170
I0
sS'stim.thisN'
p171
I4
sg42
g67
sg46
g68
sg21
g22
sg23
I2
sS'trials.thisIndex'
p172
g72
sS'stim.thisRepN'
p173
I0
sg25
g30
sg45
g128
sS'trials.thisRepN'
p174
I0
sS'trials.thisN'
p175
I0
sg44
g55
(g79
S'\x05\x00\x00\x00\x00\x00\x00\x00'
p176
tp177
Rp178
sg24
g11
sS'trials.thisTrialN'
p179
I0
sS'block.thisIndex'
p180
g89
sg41
g55
(g79
S'\x01\x00\x00\x00\x00\x00\x00\x00'
p181
tp182
Rp183
sa(dp184
S'block.thisTrialN'
p185
I0
sS'stim.thisTrialN'
p186
I5
sS'block.thisRepN'
p187
I0
sg43
g53
sS'stim.thisIndex'
p188
g55
(g59
S'\x05\x00\x00\x00'
p189
tp190
Rp191
sg31
NsS'block.thisN'
p192
I0
sS'stim.thisN'
p193
I5
sg42
g67
sg46
Vtarget
p194
sg21
g22
sg23
I2
sS'trials.thisIndex'
p195
g72
sS'stim.thisRepN'
p196
I0
sg25
g30
sg45
V5
p197
sS'trials.thisRepN'
p198
I0
sS'trials.thisN'
p199
I0
sg44
g55
(g79
S'\x06\x00\x00\x00\x00\x00\x00\x00'
p200
tp201
Rp202
sg24
g11
sS'trials.thisTrialN'
p203
I0
sS'block.thisIndex'
p204
g89
sg41
g55
(g79
S'\x01\x00\x00\x00\x00\x00\x00\x00'
p205
tp206
Rp207
sa(dp208
S'block.thisTrialN'
p209
I0
sS'stim.thisTrialN'
p210
I6
sS'block.thisRepN'
p211
I0
sg43
g53
sS'stim.thisIndex'
p212
g55
(g59
S'\x06\x00\x00\x00'
p213
tp214
Rp215
sg31
NsS'block.thisN'
p216
I0
sS'stim.thisN'
p217
I6
sg42
g67
sg46
g68
sg21
g22
sg23
I2
sS'trials.thisIndex'
p218
g72
sS'stim.thisRepN'
p219
I0
sg25
g30
sg45
g105
sS'trials.thisRepN'
p220
I0
sS'trials.thisN'
p221
I0
sg44
g55
(g79
S'\x07\x00\x00\x00\x00\x00\x00\x00'
p222
tp223
Rp224
sg24
g11
sS'trials.thisTrialN'
p225
I0
sS'block.thisIndex'
p226
g89
sg41
g55
(g79
S'\x01\x00\x00\x00\x00\x00\x00\x00'
p227
tp228
Rp229
sa(dp230
S'block.thisTrialN'
p231
I0
sS'stim.thisTrialN'
p232
I7
sS'block.thisRepN'
p233
I0
sg43
g53
sS'stim.thisIndex'
p234
g55
(g59
S'\x07\x00\x00\x00'
p235
tp236
Rp237
sg31
NsS'block.thisN'
p238
I0
sS'stim.thisN'
p239
I7
sg42
g67
sg46
g68
sg21
g22
sg23
I2
sS'trials.thisIndex'
p240
g72
sS'stim.thisRepN'
p241
I0
sg25
g30
sg45
g128
sS'trials.thisRepN'
p242
I0
sS'trials.thisN'
p243
I0
sg44
g55
(g79
S'\x08\x00\x00\x00\x00\x00\x00\x00'
p244
tp245
Rp246
sg24
g11
sS'trials.thisTrialN'
p247
I0
sS'block.thisIndex'
p248
g89
sg41
g55
(g79
S'\x01\x00\x00\x00\x00\x00\x00\x00'
p249
tp250
Rp251
sa(dp252
S'block.thisTrialN'
p253
I0
sS'stim.thisTrialN'
p254
I8
sS'block.thisRepN'
p255
I0
sg43
g53
sS'stim.thisIndex'
p256
g55
(g59
S'\x08\x00\x00\x00'
p257
tp258
Rp259
sg31
NsS'block.thisN'
p260
I0
sS'stim.thisN'
p261
I8
sg42
g67
sg46
g68
sg21
g22
sg23
I2
sS'trials.thisIndex'
p262
g72
sS'stim.thisRepN'
p263
I0
sg25
g30
sg45
VA
p264
sS'trials.thisRepN'
p265
I0
sS'trials.thisN'
p266
I0
sg44
g55
(g79
S'\t\x00\x00\x00\x00\x00\x00\x00'
p267
tp268
Rp269
sg24
g11
sS'trials.thisTrialN'
p270
I0
sS'block.thisIndex'
p271
g89
sg41
g55
(g79
S'\x01\x00\x00\x00\x00\x00\x00\x00'
p272
tp273
Rp274
sa(dp275
S'block.thisTrialN'
p276
I0
sS'stim.thisTrialN'
p277
I9
sS'block.thisRepN'
p278
I0
sg43
g53
sS'stim.thisIndex'
p279
g55
(g59
S'\t\x00\x00\x00'
p280
tp281
Rp282
sg31
NsS'block.thisN'
p283
I0
sS'stim.thisN'
p284
I9
sg42
g67
sg46
g68
sg21
g22
sg23
I2
sS'trials.thisIndex'
p285
g72
sS'stim.thisRepN'
p286
I0
sg25
g30
sg45
g151
sS'trials.thisRepN'
p287
I0
sS'trials.thisN'
p288
I0
sg44
g55
(g79
S'\n\x00\x00\x00\x00\x00\x00\x00'
p289
tp290
Rp291
sg24
g11
sS'trials.thisTrialN'
p292
I0
sS'block.thisIndex'
p293
g89
sg41
g55
(g79
S'\x01\x00\x00\x00\x00\x00\x00\x00'
p294
tp295
Rp296
sa(dp297
S'block.thisTrialN'
p298
I0
sS'stim.thisTrialN'
p299
I10
sS'block.thisRepN'
p300
I0
sg43
g53
sS'stim.thisIndex'
p301
g55
(g59
S'\n\x00\x00\x00'
p302
tp303
Rp304
sg31
NsS'block.thisN'
p305
I0
sS'stim.thisN'
p306
I10
sg42
g67
sg46
g68
sg21
g22
sg23
I2
sS'trials.thisIndex'
p307
g72
sS'stim.thisRepN'
p308
I0
sg25
g30
sg45
VQ
p309
sS'trials.thisRepN'
p310
I0
sS'trials.thisN'
p311
I0
sg44
g55
(g79
S'\x0b\x00\x00\x00\x00\x00\x00\x00'
p312
tp313
Rp314
sg24
g11
sS'trials.thisTrialN'
p315
I0
sS'block.thisIndex'
p316
g89
sg41
g55
(g79
S'\x01\x00\x00\x00\x00\x00\x00\x00'
p317
tp318
Rp319
sa(dp320
S'block.thisTrialN'
p321
I0
sS'stim.thisTrialN'
p322
I11
sS'block.thisRepN'
p323
I0
sg43
g53
sS'stim.thisIndex'
p324
g55
(g59
S'\x0b\x00\x00\x00'
p325
tp326
Rp327
sg31
NsS'block.thisN'
p328
I0
sS'stim.thisN'
p329
I11
sg42
g67
sg46
g68
sg21
g22
sg23
I2
sS'trials.thisIndex'
p330
g72
sS'stim.thisRepN'
p331
I0
sg25
g30
sg45
VU
p332
sS'trials.thisRepN'
p333
I0
sS'trials.thisN'
p334
I0
sg44
g55
(g79
S'\x0c\x00\x00\x00\x00\x00\x00\x00'
p335
tp336
Rp337
sg24
g11
sS'trials.thisTrialN'
p338
I0
sS'block.thisIndex'
p339
g89
sg41
g55
(g79
S'\x01\x00\x00\x00\x00\x00\x00\x00'
p340
tp341
Rp342
sa(dp343
S'block.thisTrialN'
p344
I0
sS'stim.thisTrialN'
p345
I12
sS'block.thisRepN'
p346
I0
sg43
g53
sS'stim.thisIndex'
p347
g55
(g59
S'\x0c\x00\x00\x00'
p348
tp349
Rp350
sg31
NsS'block.thisN'
p351
I0
sS'stim.thisN'
p352
I12
sg42
g67
sg46
g68
sg21
g22
sg23
I2
sS'trials.thisIndex'
p353
g72
sS'stim.thisRepN'
p354
I0
sg25
g30
sg45
g74
sS'trials.thisRepN'
p355
I0
sS'trials.thisN'
p356
I0
sg44
g55
(g79
S'\r\x00\x00\x00\x00\x00\x00\x00'
p357
tp358
Rp359
sg24
g11
sS'trials.thisTrialN'
p360
I0
sS'block.thisIndex'
p361
g89
sg41
g55
(g79
S'\x01\x00\x00\x00\x00\x00\x00\x00'
p362
tp363
Rp364
sa(dp365
S'block.thisTrialN'
p366
I0
sS'stim.thisTrialN'
p367
I13
sS'block.thisRepN'
p368
I0
sg43
g53
sS'stim.thisIndex'
p369
g55
(g59
S'\r\x00\x00\x00'
p370
tp371
Rp372
sg31
NsS'block.thisN'
p373
I0
sS'stim.thisN'
p374
I13
sg42
g67
sg46
g68
sg21
g22
sg23
I2
sS'trials.thisIndex'
p375
g72
sS'stim.thisRepN'
p376
I0
sg25
g30
sg45
g264
sS'trials.thisRepN'
p377
I0
sS'trials.thisN'
p378
I0
sg44
g55
(g79
S'\x0e\x00\x00\x00\x00\x00\x00\x00'
p379
tp380
Rp381
sg24
g11
sS'trials.thisTrialN'
p382
I0
sS'block.thisIndex'
p383
g89
sg41
g55
(g79
S'\x01\x00\x00\x00\x00\x00\x00\x00'
p384
tp385
Rp386
sa(dp387
S'block.thisTrialN'
p388
I0
sS'stim.thisTrialN'
p389
I14
sS'block.thisRepN'
p390
I0
sg43
g53
sS'stim.thisIndex'
p391
g55
(g59
S'\x0e\x00\x00\x00'
p392
tp393
Rp394
sg31
NsS'block.thisN'
p395
I0
sS'stim.thisN'
p396
I14
sg42
g67
sg46
g194
sg21
g22
sg23
I2
sS'trials.thisIndex'
p397
g72
sS'stim.thisRepN'
p398
I0
sg25
g30
sg45
V6
p399
sS'trials.thisRepN'
p400
I0
sS'trials.thisN'
p401
I0
sg44
g55
(g79
S'\x0f\x00\x00\x00\x00\x00\x00\x00'
p402
tp403
Rp404
sg24
g11
sS'trials.thisTrialN'
p405
I0
sS'block.thisIndex'
p406
g89
sg41
g55
(g79
S'\x01\x00\x00\x00\x00\x00\x00\x00'
p407
tp408
Rp409
sa(dp410
S'block.thisTrialN'
p411
I0
sS'stim.thisTrialN'
p412
I15
sS'block.thisRepN'
p413
I0
sg43
g53
sS'stim.thisIndex'
p414
g55
(g59
S'\x0f\x00\x00\x00'
p415
tp416
Rp417
sg31
NsS'block.thisN'
p418
I0
sS'stim.thisN'
p419
I15
sg42
g67
sg46
g68
sg21
g22
sg23
I2
sS'trials.thisIndex'
p420
g72
sS'stim.thisRepN'
p421
I0
sg25
g30
sg45
g309
sS'trials.thisRepN'
p422
I0
sS'trials.thisN'
p423
I0
sg44
g55
(g79
S'\x10\x00\x00\x00\x00\x00\x00\x00'
p424
tp425
Rp426
sg24
g11
sS'trials.thisTrialN'
p427
I0
sS'block.thisIndex'
p428
g89
sg41
g55
(g79
S'\x01\x00\x00\x00\x00\x00\x00\x00'
p429
tp430
Rp431
sa(dp432
S'block.thisTrialN'
p433
I0
sS'block.thisRepN'
p434
I0
sg16
S'2'
p435
sS'trials.thisRepN'
p436
I0
sg15
F0.41167200000018056
sg25
g30
sS'block.thisN'
p437
I0
sg31
NsS'trials.thisN'
p438
I0
sg14
g435
sg24
g11
sS'trials.thisTrialN'
p439
I0
sS'trials.thisIndex'
p440
g72
sg21
g22
sg23
I2
sS'block.thisIndex'
p441
g89
sg17
F0.20973500000036438
sa(dp442
S'block.thisTrialN'
p443
I0
sS'stim.thisTrialN'
p444
I0
sS'block.thisRepN'
p445
I0
sS'Tx'
p446
Vt1
p447
sS'stim.thisIndex'
p448
g55
(g59
S'\x00\x00\x00\x00'
p449
tp450
Rp451
sg31
NsS'block.thisN'
p452
I0
sS'stim.thisN'
p453
I0
sS'sep_dur'
p454
Vshort
p455
sS'cond'
p456
Vdistractor
p457
sg21
g22
sg23
I2
sS'trials.thisIndex'
p458
g55
(g59
S'\x00\x00\x00\x00'
p459
tp460
Rp461
sS'stim.thisRepN'
p462
I0
sg25
g30
sS'stimulus'
p463
VZ
p464
sS'trials.thisRepN'
p465
I1
sS'trials.thisN'
p466
I1
sS'trial'
p467
g55
(g79
S'\x01\x00\x00\x00\x00\x00\x00\x00'
p468
tp469
Rp470
sg24
g11
sS'trials.thisTrialN'
p471
I0
sS'block.thisIndex'
p472
g89
sS'block'
p473
g55
(g79
S'\x02\x00\x00\x00\x00\x00\x00\x00'
p474
tp475
Rp476
sa(dp477
S'block.thisTrialN'
p478
I0
sS'stim.thisTrialN'
p479
I1
sS'block.thisRepN'
p480
I0
sg446
g447
sS'stim.thisIndex'
p481
g55
(g59
S'\x01\x00\x00\x00'
p482
tp483
Rp484
sg31
NsS'block.thisN'
p485
I0
sS'stim.thisN'
p486
I1
sg454
g455
sg456
g457
sg21
g22
sg23
I2
sS'trials.thisIndex'
p487
g461
sS'stim.thisRepN'
p488
I0
sg25
g30
sg463
VF
p489
sS'trials.thisRepN'
p490
I1
sS'trials.thisN'
p491
I1
sg467
g55
(g79
S'\x02\x00\x00\x00\x00\x00\x00\x00'
p492
tp493
Rp494
sg24
g11
sS'trials.thisTrialN'
p495
I0
sS'block.thisIndex'
p496
g89
sg473
g55
(g79
S'\x02\x00\x00\x00\x00\x00\x00\x00'
p497
tp498
Rp499
sa(dp500
S'block.thisTrialN'
p501
I0
sS'stim.thisTrialN'
p502
I2
sS'block.thisRepN'
p503
I0
sg446
g447
sS'stim.thisIndex'
p504
g55
(g59
S'\x02\x00\x00\x00'
p505
tp506
Rp507
sg31
NsS'block.thisN'
p508
I0
sS'stim.thisN'
p509
I2
sg454
g455
sg456
g457
sg21
g22
sg23
I2
sS'trials.thisIndex'
p510
g461
sS'stim.thisRepN'
p511
I0
sg25
g30
sg463
VD
p512
sS'trials.thisRepN'
p513
I1
sS'trials.thisN'
p514
I1
sg467
g55
(g79
S'\x03\x00\x00\x00\x00\x00\x00\x00'
p515
tp516
Rp517
sg24
g11
sS'trials.thisTrialN'
p518
I0
sS'block.thisIndex'
p519
g89
sg473
g55
(g79
S'\x02\x00\x00\x00\x00\x00\x00\x00'
p520
tp521
Rp522
sa(dp523
S'block.thisTrialN'
p524
I0
sS'stim.thisTrialN'
p525
I3
sS'block.thisRepN'
p526
I0
sg446
g447
sS'stim.thisIndex'
p527
g55
(g59
S'\x03\x00\x00\x00'
p528
tp529
Rp530
sg31
NsS'block.thisN'
p531
I0
sS'stim.thisN'
p532
I3
sg454
g455
sg456
g457
sg21
g22
sg23
I2
sS'trials.thisIndex'
p533
g461
sS'stim.thisRepN'
p534
I0
sg25
g30
sg463
g489
sS'trials.thisRepN'
p535
I1
sS'trials.thisN'
p536
I1
sg467
g55
(g79
S'\x04\x00\x00\x00\x00\x00\x00\x00'
p537
tp538
Rp539
sg24
g11
sS'trials.thisTrialN'
p540
I0
sS'block.thisIndex'
p541
g89
sg473
g55
(g79
S'\x02\x00\x00\x00\x00\x00\x00\x00'
p542
tp543
Rp544
sa(dp545
S'block.thisTrialN'
p546
I0
sS'stim.thisTrialN'
p547
I4
sS'block.thisRepN'
p548
I0
sg446
g447
sS'stim.thisIndex'
p549
g55
(g59
S'\x04\x00\x00\x00'
p550
tp551
Rp552
sg31
NsS'block.thisN'
p553
I0
sS'stim.thisN'
p554
I4
sg454
g455
sg456
Vtarget
p555
sg21
g22
sg23
I2
sS'trials.thisIndex'
p556
g461
sS'stim.thisRepN'
p557
I0
sg25
g30
sg463
g399
sS'trials.thisRepN'
p558
I1
sS'trials.thisN'
p559
I1
sg467
g55
(g79
S'\x05\x00\x00\x00\x00\x00\x00\x00'
p560
tp561
Rp562
sg24
g11
sS'trials.thisTrialN'
p563
I0
sS'block.thisIndex'
p564
g89
sg473
g55
(g79
S'\x02\x00\x00\x00\x00\x00\x00\x00'
p565
tp566
Rp567
sa(dp568
S'block.thisTrialN'
p569
I0
sS'stim.thisTrialN'
p570
I5
sS'block.thisRepN'
p571
I0
sg446
g447
sS'stim.thisIndex'
p572
g55
(g59
S'\x05\x00\x00\x00'
p573
tp574
Rp575
sg31
NsS'block.thisN'
p576
I0
sS'stim.thisN'
p577
I5
sg454
g455
sg456
g457
sg21
g22
sg23
I2
sS'trials.thisIndex'
p578
g461
sS'stim.thisRepN'
p579
I0
sg25
g30
sg463
g105
sS'trials.thisRepN'
p580
I1
sS'trials.thisN'
p581
I1
sg467
g55
(g79
S'\x06\x00\x00\x00\x00\x00\x00\x00'
p582
tp583
Rp584
sg24
g11
sS'trials.thisTrialN'
p585
I0
sS'block.thisIndex'
p586
g89
sg473
g55
(g79
S'\x02\x00\x00\x00\x00\x00\x00\x00'
p587
tp588
Rp589
sa(dp590
S'block.thisTrialN'
p591
I0
sS'stim.thisTrialN'
p592
I6
sS'block.thisRepN'
p593
I0
sg446
g447
sS'stim.thisIndex'
p594
g55
(g59
S'\x06\x00\x00\x00'
p595
tp596
Rp597
sg31
NsS'block.thisN'
p598
I0
sS'stim.thisN'
p599
I6
sg454
g455
sg456
g457
sg21
g22
sg23
I2
sS'trials.thisIndex'
p600
g461
sS'stim.thisRepN'
p601
I0
sg25
g30
sg463
VG
p602
sS'trials.thisRepN'
p603
I1
sS'trials.thisN'
p604
I1
sg467
g55
(g79
S'\x07\x00\x00\x00\x00\x00\x00\x00'
p605
tp606
Rp607
sg24
g11
sS'trials.thisTrialN'
p608
I0
sS'block.thisIndex'
p609
g89
sg473
g55
(g79
S'\x02\x00\x00\x00\x00\x00\x00\x00'
p610
tp611
Rp612
sa(dp613
S'block.thisTrialN'
p614
I0
sS'stim.thisTrialN'
p615
I7
sS'block.thisRepN'
p616
I0
sg446
g447
sS'stim.thisIndex'
p617
g55
(g59
S'\x07\x00\x00\x00'
p618
tp619
Rp620
sg31
NsS'block.thisN'
p621
I0
sS'stim.thisN'
p622
I7
sg454
g455
sg456
g457
sg21
g22
sg23
I2
sS'trials.thisIndex'
p623
g461
sS'stim.thisRepN'
p624
I0
sg25
g30
sg463
g105
sS'trials.thisRepN'
p625
I1
sS'trials.thisN'
p626
I1
sg467
g55
(g79
S'\x08\x00\x00\x00\x00\x00\x00\x00'
p627
tp628
Rp629
sg24
g11
sS'trials.thisTrialN'
p630
I0
sS'block.thisIndex'
p631
g89
sg473
g55
(g79
S'\x02\x00\x00\x00\x00\x00\x00\x00'
p632
tp633
Rp634
sa(dp635
S'block.thisTrialN'
p636
I0
sS'stim.thisTrialN'
p637
I8
sS'block.thisRepN'
p638
I0
sg446
g447
sS'stim.thisIndex'
p639
g55
(g59
S'\x08\x00\x00\x00'
p640
tp641
Rp642
sg31
NsS'block.thisN'
p643
I0
sS'stim.thisN'
p644
I8
sg454
g455
sg456
g457
sg21
g22
sg23
I2
sS'trials.thisIndex'
p645
g461
sS'stim.thisRepN'
p646
I0
sg25
g30
sg463
VL
p647
sS'trials.thisRepN'
p648
I1
sS'trials.thisN'
p649
I1
sg467
g55
(g79
S'\t\x00\x00\x00\x00\x00\x00\x00'
p650
tp651
Rp652
sg24
g11
sS'trials.thisTrialN'
p653
I0
sS'block.thisIndex'
p654
g89
sg473
g55
(g79
S'\x02\x00\x00\x00\x00\x00\x00\x00'
p655
tp656
Rp657
sa(dp658
S'block.thisTrialN'
p659
I0
sS'stim.thisTrialN'
p660
I9
sS'block.thisRepN'
p661
I0
sg446
g447
sS'stim.thisIndex'
p662
g55
(g59
S'\t\x00\x00\x00'
p663
tp664
Rp665
sg31
NsS'block.thisN'
p666
I0
sS'stim.thisN'
p667
I9
sg454
g455
sg456
Vmask
p668
sg21
g22
sg23
I2
sS'trials.thisIndex'
p669
g461
sS'stim.thisRepN'
p670
I0
sg25
g30
sg463
V 
p671
sS'trials.thisRepN'
p672
I1
sS'trials.thisN'
p673
I1
sg467
g55
(g79
S'\n\x00\x00\x00\x00\x00\x00\x00'
p674
tp675
Rp676
sg24
g11
sS'trials.thisTrialN'
p677
I0
sS'block.thisIndex'
p678
g89
sg473
g55
(g79
S'\x02\x00\x00\x00\x00\x00\x00\x00'
p679
tp680
Rp681
sa(dp682
S'block.thisTrialN'
p683
I0
sS'stim.thisTrialN'
p684
I10
sS'block.thisRepN'
p685
I0
sg446
g447
sS'stim.thisIndex'
p686
g55
(g59
S'\n\x00\x00\x00'
p687
tp688
Rp689
sg31
NsS'block.thisN'
p690
I0
sS'stim.thisN'
p691
I10
sg454
g455
sg456
g457
sg21
g22
sg23
I2
sS'trials.thisIndex'
p692
g461
sS'stim.thisRepN'
p693
I0
sg25
g30
sg463
g489
sS'trials.thisRepN'
p694
I1
sS'trials.thisN'
p695
I1
sg467
g55
(g79
S'\x0b\x00\x00\x00\x00\x00\x00\x00'
p696
tp697
Rp698
sg24
g11
sS'trials.thisTrialN'
p699
I0
sS'block.thisIndex'
p700
g89
sg473
g55
(g79
S'\x02\x00\x00\x00\x00\x00\x00\x00'
p701
tp702
Rp703
sa(dp704
S'block.thisTrialN'
p705
I0
sS'stim.thisTrialN'
p706
I11
sS'block.thisRepN'
p707
I0
sg446
g447
sS'stim.thisIndex'
p708
g55
(g59
S'\x0b\x00\x00\x00'
p709
tp710
Rp711
sg31
NsS'block.thisN'
p712
I0
sS'stim.thisN'
p713
I11
sg454
g455
sg456
g457
sg21
g22
sg23
I2
sS'trials.thisIndex'
p714
g461
sS'stim.thisRepN'
p715
I0
sg25
g30
sg463
g512
sS'trials.thisRepN'
p716
I1
sS'trials.thisN'
p717
I1
sg467
g55
(g79
S'\x0c\x00\x00\x00\x00\x00\x00\x00'
p718
tp719
Rp720
sg24
g11
sS'trials.thisTrialN'
p721
I0
sS'block.thisIndex'
p722
g89
sg473
g55
(g79
S'\x02\x00\x00\x00\x00\x00\x00\x00'
p723
tp724
Rp725
sa(dp726
S'block.thisTrialN'
p727
I0
sS'stim.thisTrialN'
p728
I12
sS'block.thisRepN'
p729
I0
sg446
g447
sS'stim.thisIndex'
p730
g55
(g59
S'\x0c\x00\x00\x00'
p731
tp732
Rp733
sg31
NsS'block.thisN'
p734
I0
sS'stim.thisN'
p735
I12
sg454
g455
sg456
g457
sg21
g22
sg23
I2
sS'trials.thisIndex'
p736
g461
sS'stim.thisRepN'
p737
I0
sg25
g30
sg463
VT
p738
sS'trials.thisRepN'
p739
I1
sS'trials.thisN'
p740
I1
sg467
g55
(g79
S'\r\x00\x00\x00\x00\x00\x00\x00'
p741
tp742
Rp743
sg24
g11
sS'trials.thisTrialN'
p744
I0
sS'block.thisIndex'
p745
g89
sg473
g55
(g79
S'\x02\x00\x00\x00\x00\x00\x00\x00'
p746
tp747
Rp748
sa(dp749
S'block.thisTrialN'
p750
I0
sS'stim.thisTrialN'
p751
I13
sS'block.thisRepN'
p752
I0
sg446
g447
sS'stim.thisIndex'
p753
g55
(g59
S'\r\x00\x00\x00'
p754
tp755
Rp756
sg31
NsS'block.thisN'
p757
I0
sS'stim.thisN'
p758
I13
sg454
g455
sg456
g457
sg21
g22
sg23
I2
sS'trials.thisIndex'
p759
g461
sS'stim.thisRepN'
p760
I0
sg25
g30
sg463
g647
sS'trials.thisRepN'
p761
I1
sS'trials.thisN'
p762
I1
sg467
g55
(g79
S'\x0e\x00\x00\x00\x00\x00\x00\x00'
p763
tp764
Rp765
sg24
g11
sS'trials.thisTrialN'
p766
I0
sS'block.thisIndex'
p767
g89
sg473
g55
(g79
S'\x02\x00\x00\x00\x00\x00\x00\x00'
p768
tp769
Rp770
sa(dp771
S'block.thisTrialN'
p772
I0
sS'stim.thisTrialN'
p773
I14
sS'block.thisRepN'
p774
I0
sg446
g447
sS'stim.thisIndex'
p775
g55
(g59
S'\x0e\x00\x00\x00'
p776
tp777
Rp778
sg31
NsS'block.thisN'
p779
I0
sS'stim.thisN'
p780
I14
sg454
g455
sg456
g457
sg21
g22
sg23
I2
sS'trials.thisIndex'
p781
g461
sS'stim.thisRepN'
p782
I0
sg25
g30
sg463
g309
sS'trials.thisRepN'
p783
I1
sS'trials.thisN'
p784
I1
sg467
g55
(g79
S'\x0f\x00\x00\x00\x00\x00\x00\x00'
p785
tp786
Rp787
sg24
g11
sS'trials.thisTrialN'
p788
I0
sS'block.thisIndex'
p789
g89
sg473
g55
(g79
S'\x02\x00\x00\x00\x00\x00\x00\x00'
p790
tp791
Rp792
sa(dp793
S'block.thisTrialN'
p794
I0
sS'stim.thisTrialN'
p795
I15
sS'block.thisRepN'
p796
I0
sg446
g447
sS'stim.thisIndex'
p797
g55
(g59
S'\x0f\x00\x00\x00'
p798
tp799
Rp800
sg31
NsS'block.thisN'
p801
I0
sS'stim.thisN'
p802
I15
sg454
g455
sg456
g457
sg21
g22
sg23
I2
sS'trials.thisIndex'
p803
g461
sS'stim.thisRepN'
p804
I0
sg25
g30
sg463
VN
p805
sS'trials.thisRepN'
p806
I1
sS'trials.thisN'
p807
I1
sg467
g55
(g79
S'\x10\x00\x00\x00\x00\x00\x00\x00'
p808
tp809
Rp810
sg24
g11
sS'trials.thisTrialN'
p811
I0
sS'block.thisIndex'
p812
g89
sg473
g55
(g79
S'\x02\x00\x00\x00\x00\x00\x00\x00'
p813
tp814
Rp815
sa(dp816
S'block.thisTrialN'
p817
I0
sS'stim.thisTrialN'
p818
I16
sS'block.thisRepN'
p819
I0
sg446
g447
sS'stim.thisIndex'
p820
g55
(g59
S'\x10\x00\x00\x00'
p821
tp822
Rp823
sg31
NsS'block.thisN'
p824
I0
sS'stim.thisN'
p825
I16
sg454
g455
sg456
g457
sg21
g22
sg23
I2
sS'trials.thisIndex'
p826
g461
sS'stim.thisRepN'
p827
I0
sg25
g30
sg463
g264
sS'trials.thisRepN'
p828
I1
sS'trials.thisN'
p829
I1
sg467
g55
(g79
S'\x11\x00\x00\x00\x00\x00\x00\x00'
p830
tp831
Rp832
sg24
g11
sS'trials.thisTrialN'
p833
I0
sS'block.thisIndex'
p834
g89
sg473
g55
(g79
S'\x02\x00\x00\x00\x00\x00\x00\x00'
p835
tp836
Rp837
sa(dp838
S'block.thisTrialN'
p839
I0
sS'block.thisRepN'
p840
I0
sg16
S'6'
p841
sS'trials.thisRepN'
p842
I1
sg15
F0.35836009999911766
sg25
g30
sS'block.thisN'
p843
I0
sg31
NsS'trials.thisN'
p844
I1
sg14
g841
sg24
g11
sS'trials.thisTrialN'
p845
I0
sS'trials.thisIndex'
p846
g461
sg21
g22
sg23
I2
sS'block.thisIndex'
p847
g89
sg17
F0.20433080000111659
sa(dp848
S'block.thisTrialN'
p849
I0
sS'stim.thisTrialN'
p850
I0
sS'block.thisRepN'
p851
I0
sS'Tx'
p852
Vt2
p853
sS'stim.thisIndex'
p854
g55
(g59
S'\x00\x00\x00\x00'
p855
tp856
Rp857
sg31
NsS'block.thisN'
p858
I0
sS'stim.thisN'
p859
I0
sS'sep_dur'
p860
Vlong
p861
sS'cond'
p862
Vdistractor
p863
sg21
g22
sg23
I2
sS'trials.thisIndex'
p864
g55
(g59
S'\x00\x00\x00\x00'
p865
tp866
Rp867
sS'stim.thisRepN'
p868
I0
sg25
g30
sS'stimulus'
p869
VH
p870
sS'trials.thisRepN'
p871
I2
sS'trials.thisN'
p872
I2
sS'trial'
p873
g55
(g79
S'\x01\x00\x00\x00\x00\x00\x00\x00'
p874
tp875
Rp876
sg24
g11
sS'trials.thisTrialN'
p877
I0
sS'block.thisIndex'
p878
g89
sS'block'
p879
g55
(g79
S'\x03\x00\x00\x00\x00\x00\x00\x00'
p880
tp881
Rp882
sa(dp883
S'block.thisTrialN'
p884
I0
sS'stim.thisTrialN'
p885
I1
sS'block.thisRepN'
p886
I0
sg852
g853
sS'stim.thisIndex'
p887
g55
(g59
S'\x01\x00\x00\x00'
p888
tp889
Rp890
sg31
NsS'block.thisN'
p891
I0
sS'stim.thisN'
p892
I1
sg860
g861
sg862
g863
sg21
g22
sg23
I2
sS'trials.thisIndex'
p893
g867
sS'stim.thisRepN'
p894
I0
sg25
g30
sg869
g602
sS'trials.thisRepN'
p895
I2
sS'trials.thisN'
p896
I2
sg873
g55
(g79
S'\x02\x00\x00\x00\x00\x00\x00\x00'
p897
tp898
Rp899
sg24
g11
sS'trials.thisTrialN'
p900
I0
sS'block.thisIndex'
p901
g89
sg879
g55
(g79
S'\x03\x00\x00\x00\x00\x00\x00\x00'
p902
tp903
Rp904
sa(dp905
S'block.thisTrialN'
p906
I0
sS'stim.thisTrialN'
p907
I2
sS'block.thisRepN'
p908
I0
sg852
g853
sS'stim.thisIndex'
p909
g55
(g59
S'\x02\x00\x00\x00'
p910
tp911
Rp912
sg31
NsS'block.thisN'
p913
I0
sS'stim.thisN'
p914
I2
sg860
g861
sg862
Vtarget
p915
sg21
g22
sg23
I2
sS'trials.thisIndex'
p916
g867
sS'stim.thisRepN'
p917
I0
sg25
g30
sg869
V4
p918
sS'trials.thisRepN'
p919
I2
sS'trials.thisN'
p920
I2
sg873
g55
(g79
S'\x03\x00\x00\x00\x00\x00\x00\x00'
p921
tp922
Rp923
sg24
g11
sS'trials.thisTrialN'
p924
I0
sS'block.thisIndex'
p925
g89
sg879
g55
(g79
S'\x03\x00\x00\x00\x00\x00\x00\x00'
p926
tp927
Rp928
sa(dp929
S'block.thisTrialN'
p930
I0
sS'stim.thisTrialN'
p931
I3
sS'block.thisRepN'
p932
I0
sg852
g853
sS'stim.thisIndex'
p933
g55
(g59
S'\x03\x00\x00\x00'
p934
tp935
Rp936
sg31
NsS'block.thisN'
p937
I0
sS'stim.thisN'
p938
I3
sg860
g861
sg862
g863
sg21
g22
sg23
I2
sS'trials.thisIndex'
p939
g867
sS'stim.thisRepN'
p940
I0
sg25
g30
sg869
g332
sS'trials.thisRepN'
p941
I2
sS'trials.thisN'
p942
I2
sg873
g55
(g79
S'\x04\x00\x00\x00\x00\x00\x00\x00'
p943
tp944
Rp945
sg24
g11
sS'trials.thisTrialN'
p946
I0
sS'block.thisIndex'
p947
g89
sg879
g55
(g79
S'\x03\x00\x00\x00\x00\x00\x00\x00'
p948
tp949
Rp950
sa(dp951
S'block.thisTrialN'
p952
I0
sS'stim.thisTrialN'
p953
I4
sS'block.thisRepN'
p954
I0
sg852
g853
sS'stim.thisIndex'
p955
g55
(g59
S'\x04\x00\x00\x00'
p956
tp957
Rp958
sg31
NsS'block.thisN'
p959
I0
sS'stim.thisN'
p960
I4
sg860
g861
sg862
g863
sg21
g22
sg23
I2
sS'trials.thisIndex'
p961
g867
sS'stim.thisRepN'
p962
I0
sg25
g30
sg869
VV
p963
sS'trials.thisRepN'
p964
I2
sS'trials.thisN'
p965
I2
sg873
g55
(g79
S'\x05\x00\x00\x00\x00\x00\x00\x00'
p966
tp967
Rp968
sg24
g11
sS'trials.thisTrialN'
p969
I0
sS'block.thisIndex'
p970
g89
sg879
g55
(g79
S'\x03\x00\x00\x00\x00\x00\x00\x00'
p971
tp972
Rp973
sa(dp974
S'block.thisTrialN'
p975
I0
sS'stim.thisTrialN'
p976
I5
sS'block.thisRepN'
p977
I0
sg852
g853
sS'stim.thisIndex'
p978
g55
(g59
S'\x05\x00\x00\x00'
p979
tp980
Rp981
sg31
NsS'block.thisN'
p982
I0
sS'stim.thisN'
p983
I5
sg860
g861
sg862
g863
sg21
g22
sg23
I2
sS'trials.thisIndex'
p984
g867
sS'stim.thisRepN'
p985
I0
sg25
g30
sg869
g489
sS'trials.thisRepN'
p986
I2
sS'trials.thisN'
p987
I2
sg873
g55
(g79
S'\x06\x00\x00\x00\x00\x00\x00\x00'
p988
tp989
Rp990
sg24
g11
sS'trials.thisTrialN'
p991
I0
sS'block.thisIndex'
p992
g89
sg879
g55
(g79
S'\x03\x00\x00\x00\x00\x00\x00\x00'
p993
tp994
Rp995
sa(dp996
S'block.thisTrialN'
p997
I0
sS'stim.thisTrialN'
p998
I6
sS'block.thisRepN'
p999
I0
sg852
g853
sS'stim.thisIndex'
p1000
g55
(g59
S'\x06\x00\x00\x00'
p1001
tp1002
Rp1003
sg31
NsS'block.thisN'
p1004
I0
sS'stim.thisN'
p1005
I6
sg860
g861
sg862
g863
sg21
g22
sg23
I2
sS'trials.thisIndex'
p1006
g867
sS'stim.thisRepN'
p1007
I0
sg25
g30
sg869
VY
p1008
sS'trials.thisRepN'
p1009
I2
sS'trials.thisN'
p1010
I2
sg873
g55
(g79
S'\x07\x00\x00\x00\x00\x00\x00\x00'
p1011
tp1012
Rp1013
sg24
g11
sS'trials.thisTrialN'
p1014
I0
sS'block.thisIndex'
p1015
g89
sg879
g55
(g79
S'\x03\x00\x00\x00\x00\x00\x00\x00'
p1016
tp1017
Rp1018
sa(dp1019
S'block.thisTrialN'
p1020
I0
sS'stim.thisTrialN'
p1021
I7
sS'block.thisRepN'
p1022
I0
sg852
g853
sS'stim.thisIndex'
p1023
g55
(g59
S'\x07\x00\x00\x00'
p1024
tp1025
Rp1026
sg31
NsS'block.thisN'
p1027
I0
sS'stim.thisN'
p1028
I7
sg860
g861
sg862
g863
sg21
g22
sg23
I2
sS'trials.thisIndex'
p1029
g867
sS'stim.thisRepN'
p1030
I0
sg25
g30
sg869
g647
sS'trials.thisRepN'
p1031
I2
sS'trials.thisN'
p1032
I2
sg873
g55
(g79
S'\x08\x00\x00\x00\x00\x00\x00\x00'
p1033
tp1034
Rp1035
sg24
g11
sS'trials.thisTrialN'
p1036
I0
sS'block.thisIndex'
p1037
g89
sg879
g55
(g79
S'\x03\x00\x00\x00\x00\x00\x00\x00'
p1038
tp1039
Rp1040
sa(dp1041
S'block.thisTrialN'
p1042
I0
sS'stim.thisTrialN'
p1043
I8
sS'block.thisRepN'
p1044
I0
sg852
g853
sS'stim.thisIndex'
p1045
g55
(g59
S'\x08\x00\x00\x00'
p1046
tp1047
Rp1048
sg31
NsS'block.thisN'
p1049
I0
sS'stim.thisN'
p1050
I8
sg860
g861
sg862
g863
sg21
g22
sg23
I2
sS'trials.thisIndex'
p1051
g867
sS'stim.thisRepN'
p1052
I0
sg25
g30
sg869
VC
p1053
sS'trials.thisRepN'
p1054
I2
sS'trials.thisN'
p1055
I2
sg873
g55
(g79
S'\t\x00\x00\x00\x00\x00\x00\x00'
p1056
tp1057
Rp1058
sg24
g11
sS'trials.thisTrialN'
p1059
I0
sS'block.thisIndex'
p1060
g89
sg879
g55
(g79
S'\x03\x00\x00\x00\x00\x00\x00\x00'
p1061
tp1062
Rp1063
sa(dp1064
S'block.thisTrialN'
p1065
I0
sS'stim.thisTrialN'
p1066
I9
sS'block.thisRepN'
p1067
I0
sg852
g853
sS'stim.thisIndex'
p1068
g55
(g59
S'\t\x00\x00\x00'
p1069
tp1070
Rp1071
sg31
NsS'block.thisN'
p1072
I0
sS'stim.thisN'
p1073
I9
sg860
g861
sg862
g863
sg21
g22
sg23
I2
sS'trials.thisIndex'
p1074
g867
sS'stim.thisRepN'
p1075
I0
sg25
g30
sg869
g963
sS'trials.thisRepN'
p1076
I2
sS'trials.thisN'
p1077
I2
sg873
g55
(g79
S'\n\x00\x00\x00\x00\x00\x00\x00'
p1078
tp1079
Rp1080
sg24
g11
sS'trials.thisTrialN'
p1081
I0
sS'block.thisIndex'
p1082
g89
sg879
g55
(g79
S'\x03\x00\x00\x00\x00\x00\x00\x00'
p1083
tp1084
Rp1085
sa(dp1086
S'block.thisTrialN'
p1087
I0
sS'stim.thisTrialN'
p1088
I10
sS'block.thisRepN'
p1089
I0
sg852
g853
sS'stim.thisIndex'
p1090
g55
(g59
S'\n\x00\x00\x00'
p1091
tp1092
Rp1093
sg31
NsS'block.thisN'
p1094
I0
sS'stim.thisN'
p1095
I10
sg860
g861
sg862
g863
sg21
g22
sg23
I2
sS'trials.thisIndex'
p1096
g867
sS'stim.thisRepN'
p1097
I0
sg25
g30
sg869
g963
sS'trials.thisRepN'
p1098
I2
sS'trials.thisN'
p1099
I2
sg873
g55
(g79
S'\x0b\x00\x00\x00\x00\x00\x00\x00'
p1100
tp1101
Rp1102
sg24
g11
sS'trials.thisTrialN'
p1103
I0
sS'block.thisIndex'
p1104
g89
sg879
g55
(g79
S'\x03\x00\x00\x00\x00\x00\x00\x00'
p1105
tp1106
Rp1107
sa(dp1108
S'block.thisTrialN'
p1109
I0
sS'stim.thisTrialN'
p1110
I11
sS'block.thisRepN'
p1111
I0
sg852
g853
sS'stim.thisIndex'
p1112
g55
(g59
S'\x0b\x00\x00\x00'
p1113
tp1114
Rp1115
sg31
NsS'block.thisN'
p1116
I0
sS'stim.thisN'
p1117
I11
sg860
g861
sg862
g915
sg21
g22
sg23
I2
sS'trials.thisIndex'
p1118
g867
sS'stim.thisRepN'
p1119
I0
sg25
g30
sg869
g918
sS'trials.thisRepN'
p1120
I2
sS'trials.thisN'
p1121
I2
sg873
g55
(g79
S'\x0c\x00\x00\x00\x00\x00\x00\x00'
p1122
tp1123
Rp1124
sg24
g11
sS'trials.thisTrialN'
p1125
I0
sS'block.thisIndex'
p1126
g89
sg879
g55
(g79
S'\x03\x00\x00\x00\x00\x00\x00\x00'
p1127
tp1128
Rp1129
sa(dp1130
S'block.thisTrialN'
p1131
I0
sS'stim.thisTrialN'
p1132
I12
sS'block.thisRepN'
p1133
I0
sg852
g853
sS'stim.thisIndex'
p1134
g55
(g59
S'\x0c\x00\x00\x00'
p1135
tp1136
Rp1137
sg31
NsS'block.thisN'
p1138
I0
sS'stim.thisN'
p1139
I12
sg860
g861
sg862
g863
sg21
g22
sg23
I2
sS'trials.thisIndex'
p1140
g867
sS'stim.thisRepN'
p1141
I0
sg25
g30
sg869
g151
sS'trials.thisRepN'
p1142
I2
sS'trials.thisN'
p1143
I2
sg873
g55
(g79
S'\r\x00\x00\x00\x00\x00\x00\x00'
p1144
tp1145
Rp1146
sg24
g11
sS'trials.thisTrialN'
p1147
I0
sS'block.thisIndex'
p1148
g89
sg879
g55
(g79
S'\x03\x00\x00\x00\x00\x00\x00\x00'
p1149
tp1150
Rp1151
sa(dp1152
S'block.thisTrialN'
p1153
I0
sS'stim.thisTrialN'
p1154
I13
sS'block.thisRepN'
p1155
I0
sg852
g853
sS'stim.thisIndex'
p1156
g55
(g59
S'\r\x00\x00\x00'
p1157
tp1158
Rp1159
sg31
NsS'block.thisN'
p1160
I0
sS'stim.thisN'
p1161
I13
sg860
g861
sg862
g863
sg21
g22
sg23
I2
sS'trials.thisIndex'
p1162
g867
sS'stim.thisRepN'
p1163
I0
sg25
g30
sg869
g489
sS'trials.thisRepN'
p1164
I2
sS'trials.thisN'
p1165
I2
sg873
g55
(g79
S'\x0e\x00\x00\x00\x00\x00\x00\x00'
p1166
tp1167
Rp1168
sg24
g11
sS'trials.thisTrialN'
p1169
I0
sS'block.thisIndex'
p1170
g89
sg879
g55
(g79
S'\x03\x00\x00\x00\x00\x00\x00\x00'
p1171
tp1172
Rp1173
sa(dp1174
S'block.thisTrialN'
p1175
I0
sS'stim.thisTrialN'
p1176
I14
sS'block.thisRepN'
p1177
I0
sg852
g853
sS'stim.thisIndex'
p1178
g55
(g59
S'\x0e\x00\x00\x00'
p1179
tp1180
Rp1181
sg31
NsS'block.thisN'
p1182
I0
sS'stim.thisN'
p1183
I14
sg860
g861
sg862
g863
sg21
g22
sg23
I2
sS'trials.thisIndex'
p1184
g867
sS'stim.thisRepN'
p1185
I0
sg25
g30
sg869
g805
sS'trials.thisRepN'
p1186
I2
sS'trials.thisN'
p1187
I2
sg873
g55
(g79
S'\x0f\x00\x00\x00\x00\x00\x00\x00'
p1188
tp1189
Rp1190
sg24
g11
sS'trials.thisTrialN'
p1191
I0
sS'block.thisIndex'
p1192
g89
sg879
g55
(g79
S'\x03\x00\x00\x00\x00\x00\x00\x00'
p1193
tp1194
Rp1195
sa(dp1196
S'block.thisTrialN'
p1197
I0
sS'block.thisRepN'
p1198
I0
sg16
S'4'
p1199
sS'trials.thisRepN'
p1200
I2
sg15
F0.3453449999997247
sg25
g30
sS'block.thisN'
p1201
I0
sg31
NsS'trials.thisN'
p1202
I2
sg14
g1199
sg24
g11
sS'trials.thisTrialN'
p1203
I0
sS'trials.thisIndex'
p1204
g867
sg21
g22
sg23
I2
sS'block.thisIndex'
p1205
g89
sg17
F0.19891830000051414
sa(dp1206
S'block.thisTrialN'
p1207
I0
sS'stim.thisTrialN'
p1208
I0
sS'block.thisRepN'
p1209
I0
sS'Tx'
p1210
Vt1
p1211
sS'stim.thisIndex'
p1212
g55
(g59
S'\x00\x00\x00\x00'
p1213
tp1214
Rp1215
sg31
NsS'block.thisN'
p1216
I0
sS'stim.thisN'
p1217
I0
sS'sep_dur'
p1218
Vshort
p1219
sS'cond'
p1220
Vdistractor
p1221
sg21
g22
sg23
I2
sS'trials.thisIndex'
p1222
g55
(g59
S'\x00\x00\x00\x00'
p1223
tp1224
Rp1225
sS'stim.thisRepN'
p1226
I0
sg25
g30
sS'stimulus'
p1227
g264
sS'trials.thisRepN'
p1228
I3
sS'trials.thisN'
p1229
I3
sS'trial'
p1230
g55
(g79
S'\x01\x00\x00\x00\x00\x00\x00\x00'
p1231
tp1232
Rp1233
sg24
g11
sS'trials.thisTrialN'
p1234
I0
sS'block.thisIndex'
p1235
g89
sS'block'
p1236
g55
(g79
S'\x04\x00\x00\x00\x00\x00\x00\x00'
p1237
tp1238
Rp1239
sa(dp1240
S'block.thisTrialN'
p1241
I0
sS'stim.thisTrialN'
p1242
I1
sS'block.thisRepN'
p1243
I0
sg1210
g1211
sS'stim.thisIndex'
p1244
g55
(g59
S'\x01\x00\x00\x00'
p1245
tp1246
Rp1247
sg31
NsS'block.thisN'
p1248
I0
sS'stim.thisN'
p1249
I1
sg1218
g1219
sg1220
g1221
sg21
g22
sg23
I2
sS'trials.thisIndex'
p1250
g1225
sS'stim.thisRepN'
p1251
I0
sg25
g30
sg1227
g151
sS'trials.thisRepN'
p1252
I3
sS'trials.thisN'
p1253
I3
sg1230
g55
(g79
S'\x02\x00\x00\x00\x00\x00\x00\x00'
p1254
tp1255
Rp1256
sg24
g11
sS'trials.thisTrialN'
p1257
I0
sS'block.thisIndex'
p1258
g89
sg1236
g55
(g79
S'\x04\x00\x00\x00\x00\x00\x00\x00'
p1259
tp1260
Rp1261
sa(dp1262
S'block.thisTrialN'
p1263
I0
sS'stim.thisTrialN'
p1264
I2
sS'block.thisRepN'
p1265
I0
sg1210
g1211
sS'stim.thisIndex'
p1266
g55
(g59
S'\x02\x00\x00\x00'
p1267
tp1268
Rp1269
sg31
NsS'block.thisN'
p1270
I0
sS'stim.thisN'
p1271
I2
sg1218
g1219
sg1220
g1221
sg21
g22
sg23
I2
sS'trials.thisIndex'
p1272
g1225
sS'stim.thisRepN'
p1273
I0
sg25
g30
sg1227
g602
sS'trials.thisRepN'
p1274
I3
sS'trials.thisN'
p1275
I3
sg1230
g55
(g79
S'\x03\x00\x00\x00\x00\x00\x00\x00'
p1276
tp1277
Rp1278
sg24
g11
sS'trials.thisTrialN'
p1279
I0
sS'block.thisIndex'
p1280
g89
sg1236
g55
(g79
S'\x04\x00\x00\x00\x00\x00\x00\x00'
p1281
tp1282
Rp1283
sa(dp1284
S'block.thisTrialN'
p1285
I0
sS'stim.thisTrialN'
p1286
I3
sS'block.thisRepN'
p1287
I0
sg1210
g1211
sS'stim.thisIndex'
p1288
g55
(g59
S'\x03\x00\x00\x00'
p1289
tp1290
Rp1291
sg31
NsS'block.thisN'
p1292
I0
sS'stim.thisN'
p1293
I3
sg1218
g1219
sg1220
g1221
sg21
g22
sg23
I2
sS'trials.thisIndex'
p1294
g1225
sS'stim.thisRepN'
p1295
I0
sg25
g30
sg1227
VE
p1296
sS'trials.thisRepN'
p1297
I3
sS'trials.thisN'
p1298
I3
sg1230
g55
(g79
S'\x04\x00\x00\x00\x00\x00\x00\x00'
p1299
tp1300
Rp1301
sg24
g11
sS'trials.thisTrialN'
p1302
I0
sS'block.thisIndex'
p1303
g89
sg1236
g55
(g79
S'\x04\x00\x00\x00\x00\x00\x00\x00'
p1304
tp1305
Rp1306
sa(dp1307
S'block.thisTrialN'
p1308
I0
sS'stim.thisTrialN'
p1309
I4
sS'block.thisRepN'
p1310
I0
sg1210
g1211
sS'stim.thisIndex'
p1311
g55
(g59
S'\x04\x00\x00\x00'
p1312
tp1313
Rp1314
sg31
NsS'block.thisN'
p1315
I0
sS'stim.thisN'
p1316
I4
sg1218
g1219
sg1220
g1221
sg21
g22
sg23
I2
sS'trials.thisIndex'
p1317
g1225
sS'stim.thisRepN'
p1318
I0
sg25
g30
sg1227
g332
sS'trials.thisRepN'
p1319
I3
sS'trials.thisN'
p1320
I3
sg1230
g55
(g79
S'\x05\x00\x00\x00\x00\x00\x00\x00'
p1321
tp1322
Rp1323
sg24
g11
sS'trials.thisTrialN'
p1324
I0
sS'block.thisIndex'
p1325
g89
sg1236
g55
(g79
S'\x04\x00\x00\x00\x00\x00\x00\x00'
p1326
tp1327
Rp1328
sa(dp1329
S'block.thisTrialN'
p1330
I0
sS'stim.thisTrialN'
p1331
I5
sS'block.thisRepN'
p1332
I0
sg1210
g1211
sS'stim.thisIndex'
p1333
g55
(g59
S'\x05\x00\x00\x00'
p1334
tp1335
Rp1336
sg31
NsS'block.thisN'
p1337
I0
sS'stim.thisN'
p1338
I5
sg1218
g1219
sg1220
g1221
sg21
g22
sg23
I2
sS'trials.thisIndex'
p1339
g1225
sS'stim.thisRepN'
p1340
I0
sg25
g30
sg1227
g512
sS'trials.thisRepN'
p1341
I3
sS'trials.thisN'
p1342
I3
sg1230
g55
(g79
S'\x06\x00\x00\x00\x00\x00\x00\x00'
p1343
tp1344
Rp1345
sg24
g11
sS'trials.thisTrialN'
p1346
I0
sS'block.thisIndex'
p1347
g89
sg1236
g55
(g79
S'\x04\x00\x00\x00\x00\x00\x00\x00'
p1348
tp1349
Rp1350
sa(dp1351
S'block.thisTrialN'
p1352
I0
sS'stim.thisTrialN'
p1353
I6
sS'block.thisRepN'
p1354
I0
sg1210
g1211
sS'stim.thisIndex'
p1355
g55
(g59
S'\x06\x00\x00\x00'
p1356
tp1357
Rp1358
sg31
NsS'block.thisN'
p1359
I0
sS'stim.thisN'
p1360
I6
sg1218
g1219
sg1220
g1221
sg21
g22
sg23
I2
sS'trials.thisIndex'
p1361
g1225
sS'stim.thisRepN'
p1362
I0
sg25
g30
sg1227
g963
sS'trials.thisRepN'
p1363
I3
sS'trials.thisN'
p1364
I3
sg1230
g55
(g79
S'\x07\x00\x00\x00\x00\x00\x00\x00'
p1365
tp1366
Rp1367
sg24
g11
sS'trials.thisTrialN'
p1368
I0
sS'block.thisIndex'
p1369
g89
sg1236
g55
(g79
S'\x04\x00\x00\x00\x00\x00\x00\x00'
p1370
tp1371
Rp1372
sa(dp1373
S'block.thisTrialN'
p1374
I0
sS'stim.thisTrialN'
p1375
I7
sS'block.thisRepN'
p1376
I0
sg1210
g1211
sS'stim.thisIndex'
p1377
g55
(g59
S'\x07\x00\x00\x00'
p1378
tp1379
Rp1380
sg31
NsS'block.thisN'
p1381
I0
sS'stim.thisN'
p1382
I7
sg1218
g1219
sg1220
g1221
sg21
g22
sg23
I2
sS'trials.thisIndex'
p1383
g1225
sS'stim.thisRepN'
p1384
I0
sg25
g30
sg1227
g309
sS'trials.thisRepN'
p1385
I3
sS'trials.thisN'
p1386
I3
sg1230
g55
(g79
S'\x08\x00\x00\x00\x00\x00\x00\x00'
p1387
tp1388
Rp1389
sg24
g11
sS'trials.thisTrialN'
p1390
I0
sS'block.thisIndex'
p1391
g89
sg1236
g55
(g79
S'\x04\x00\x00\x00\x00\x00\x00\x00'
p1392
tp1393
Rp1394
sa(dp1395
S'block.thisTrialN'
p1396
I0
sS'stim.thisTrialN'
p1397
I8
sS'block.thisRepN'
p1398
I0
sg1210
g1211
sS'stim.thisIndex'
p1399
g55
(g59
S'\x08\x00\x00\x00'
p1400
tp1401
Rp1402
sg31
NsS'block.thisN'
p1403
I0
sS'stim.thisN'
p1404
I8
sg1218
g1219
sg1220
g1221
sg21
g22
sg23
I2
sS'trials.thisIndex'
p1405
g1225
sS'stim.thisRepN'
p1406
I0
sg25
g30
sg1227
g602
sS'trials.thisRepN'
p1407
I3
sS'trials.thisN'
p1408
I3
sg1230
g55
(g79
S'\t\x00\x00\x00\x00\x00\x00\x00'
p1409
tp1410
Rp1411
sg24
g11
sS'trials.thisTrialN'
p1412
I0
sS'block.thisIndex'
p1413
g89
sg1236
g55
(g79
S'\x04\x00\x00\x00\x00\x00\x00\x00'
p1414
tp1415
Rp1416
sa(dp1417
S'block.thisTrialN'
p1418
I0
sS'stim.thisTrialN'
p1419
I9
sS'block.thisRepN'
p1420
I0
sg1210
g1211
sS'stim.thisIndex'
p1421
g55
(g59
S'\t\x00\x00\x00'
p1422
tp1423
Rp1424
sg31
NsS'block.thisN'
p1425
I0
sS'stim.thisN'
p1426
I9
sg1218
g1219
sg1220
Vtarget
p1427
sg21
g22
sg23
I2
sS'trials.thisIndex'
p1428
g1225
sS'stim.thisRepN'
p1429
I0
sg25
g30
sg1227
V8
p1430
sS'trials.thisRepN'
p1431
I3
sS'trials.thisN'
p1432
I3
sg1230
g55
(g79
S'\n\x00\x00\x00\x00\x00\x00\x00'
p1433
tp1434
Rp1435
sg24
g11
sS'trials.thisTrialN'
p1436
I0
sS'block.thisIndex'
p1437
g89
sg1236
g55
(g79
S'\x04\x00\x00\x00\x00\x00\x00\x00'
p1438
tp1439
Rp1440
sa(dp1441
S'block.thisTrialN'
p1442
I0
sS'stim.thisTrialN'
p1443
I10
sS'block.thisRepN'
p1444
I0
sg1210
g1211
sS'stim.thisIndex'
p1445
g55
(g59
S'\n\x00\x00\x00'
p1446
tp1447
Rp1448
sg31
NsS'block.thisN'
p1449
I0
sS'stim.thisN'
p1450
I10
sg1218
g1219
sg1220
g1221
sg21
g22
sg23
I2
sS'trials.thisIndex'
p1451
g1225
sS'stim.thisRepN'
p1452
I0
sg25
g30
sg1227
g647
sS'trials.thisRepN'
p1453
I3
sS'trials.thisN'
p1454
I3
sg1230
g55
(g79
S'\x0b\x00\x00\x00\x00\x00\x00\x00'
p1455
tp1456
Rp1457
sg24
g11
sS'trials.thisTrialN'
p1458
I0
sS'block.thisIndex'
p1459
g89
sg1236
g55
(g79
S'\x04\x00\x00\x00\x00\x00\x00\x00'
p1460
tp1461
Rp1462
sa(dp1463
S'block.thisTrialN'
p1464
I0
sS'stim.thisTrialN'
p1465
I11
sS'block.thisRepN'
p1466
I0
sg1210
g1211
sS'stim.thisIndex'
p1467
g55
(g59
S'\x0b\x00\x00\x00'
p1468
tp1469
Rp1470
sg31
NsS'block.thisN'
p1471
I0
sS'stim.thisN'
p1472
I11
sg1218
g1219
sg1220
g1221
sg21
g22
sg23
I2
sS'trials.thisIndex'
p1473
g1225
sS'stim.thisRepN'
p1474
I0
sg25
g30
sg1227
VS
p1475
sS'trials.thisRepN'
p1476
I3
sS'trials.thisN'
p1477
I3
sg1230
g55
(g79
S'\x0c\x00\x00\x00\x00\x00\x00\x00'
p1478
tp1479
Rp1480
sg24
g11
sS'trials.thisTrialN'
p1481
I0
sS'block.thisIndex'
p1482
g89
sg1236
g55
(g79
S'\x04\x00\x00\x00\x00\x00\x00\x00'
p1483
tp1484
Rp1485
sa(dp1486
S'block.thisTrialN'
p1487
I0
sS'stim.thisTrialN'
p1488
I12
sS'block.thisRepN'
p1489
I0
sg1210
g1211
sS'stim.thisIndex'
p1490
g55
(g59
S'\x0c\x00\x00\x00'
p1491
tp1492
Rp1493
sg31
NsS'block.thisN'
p1494
I0
sS'stim.thisN'
p1495
I12
sg1218
g1219
sg1220
g1221
sg21
g22
sg23
I2
sS'trials.thisIndex'
p1496
g1225
sS'stim.thisRepN'
p1497
I0
sg25
g30
sg1227
g464
sS'trials.thisRepN'
p1498
I3
sS'trials.thisN'
p1499
I3
sg1230
g55
(g79
S'\r\x00\x00\x00\x00\x00\x00\x00'
p1500
tp1501
Rp1502
sg24
g11
sS'trials.thisTrialN'
p1503
I0
sS'block.thisIndex'
p1504
g89
sg1236
g55
(g79
S'\x04\x00\x00\x00\x00\x00\x00\x00'
p1505
tp1506
Rp1507
sa(dp1508
S'block.thisTrialN'
p1509
I0
sS'stim.thisTrialN'
p1510
I13
sS'block.thisRepN'
p1511
I0
sg1210
g1211
sS'stim.thisIndex'
p1512
g55
(g59
S'\r\x00\x00\x00'
p1513
tp1514
Rp1515
sg31
NsS'block.thisN'
p1516
I0
sS'stim.thisN'
p1517
I13
sg1218
g1219
sg1220
g1221
sg21
g22
sg23
I2
sS'trials.thisIndex'
p1518
g1225
sS'stim.thisRepN'
p1519
I0
sg25
g30
sg1227
VM
p1520
sS'trials.thisRepN'
p1521
I3
sS'trials.thisN'
p1522
I3
sg1230
g55
(g79
S'\x0e\x00\x00\x00\x00\x00\x00\x00'
p1523
tp1524
Rp1525
sg24
g11
sS'trials.thisTrialN'
p1526
I0
sS'block.thisIndex'
p1527
g89
sg1236
g55
(g79
S'\x04\x00\x00\x00\x00\x00\x00\x00'
p1528
tp1529
Rp1530
sa(dp1531
S'block.thisTrialN'
p1532
I0
sS'stim.thisTrialN'
p1533
I14
sS'block.thisRepN'
p1534
I0
sg1210
g1211
sS'stim.thisIndex'
p1535
g55
(g59
S'\x0e\x00\x00\x00'
p1536
tp1537
Rp1538
sg31
NsS'block.thisN'
p1539
I0
sS'stim.thisN'
p1540
I14
sg1218
g1219
sg1220
Vmask
p1541
sg21
g22
sg23
I2
sS'trials.thisIndex'
p1542
g1225
sS'stim.thisRepN'
p1543
I0
sg25
g30
sg1227
g671
sS'trials.thisRepN'
p1544
I3
sS'trials.thisN'
p1545
I3
sg1230
g55
(g79
S'\x0f\x00\x00\x00\x00\x00\x00\x00'
p1546
tp1547
Rp1548
sg24
g11
sS'trials.thisTrialN'
p1549
I0
sS'block.thisIndex'
p1550
g89
sg1236
g55
(g79
S'\x04\x00\x00\x00\x00\x00\x00\x00'
p1551
tp1552
Rp1553
sa(dp1554
S'block.thisTrialN'
p1555
I0
sS'stim.thisTrialN'
p1556
I15
sS'block.thisRepN'
p1557
I0
sg1210
g1211
sS'stim.thisIndex'
p1558
g55
(g59
S'\x0f\x00\x00\x00'
p1559
tp1560
Rp1561
sg31
NsS'block.thisN'
p1562
I0
sS'stim.thisN'
p1563
I15
sg1218
g1219
sg1220
g1221
sg21
g22
sg23
I2
sS'trials.thisIndex'
p1564
g1225
sS'stim.thisRepN'
p1565
I0
sg25
g30
sg1227
g309
sS'trials.thisRepN'
p1566
I3
sS'trials.thisN'
p1567
I3
sg1230
g55
(g79
S'\x10\x00\x00\x00\x00\x00\x00\x00'
p1568
tp1569
Rp1570
sg24
g11
sS'trials.thisTrialN'
p1571
I0
sS'block.thisIndex'
p1572
g89
sg1236
g55
(g79
S'\x04\x00\x00\x00\x00\x00\x00\x00'
p1573
tp1574
Rp1575
sa(dp1576
S'block.thisTrialN'
p1577
I0
sS'stim.thisTrialN'
p1578
I16
sS'block.thisRepN'
p1579
I0
sg1210
g1211
sS'stim.thisIndex'
p1580
g55
(g59
S'\x10\x00\x00\x00'
p1581
tp1582
Rp1583
sg31
NsS'block.thisN'
p1584
I0
sS'stim.thisN'
p1585
I16
sg1218
g1219
sg1220
g1221
sg21
g22
sg23
I2
sS'trials.thisIndex'
p1586
g1225
sS'stim.thisRepN'
p1587
I0
sg25
g30
sg1227
g963
sS'trials.thisRepN'
p1588
I3
sS'trials.thisN'
p1589
I3
sg1230
g55
(g79
S'\x11\x00\x00\x00\x00\x00\x00\x00'
p1590
tp1591
Rp1592
sg24
g11
sS'trials.thisTrialN'
p1593
I0
sS'block.thisIndex'
p1594
g89
sg1236
g55
(g79
S'\x04\x00\x00\x00\x00\x00\x00\x00'
p1595
tp1596
Rp1597
sa(dp1598
S'block.thisTrialN'
p1599
I0
sS'stim.thisTrialN'
p1600
I17
sS'block.thisRepN'
p1601
I0
sg1210
g1211
sS'stim.thisIndex'
p1602
g55
(g59
S'\x11\x00\x00\x00'
p1603
tp1604
Rp1605
sg31
NsS'block.thisN'
p1606
I0
sS'stim.thisN'
p1607
I17
sg1218
g1219
sg1220
g1221
sg21
g22
sg23
I2
sS'trials.thisIndex'
p1608
g1225
sS'stim.thisRepN'
p1609
I0
sg25
g30
sg1227
g1475
sS'trials.thisRepN'
p1610
I3
sS'trials.thisN'
p1611
I3
sg1230
g55
(g79
S'\x12\x00\x00\x00\x00\x00\x00\x00'
p1612
tp1613
Rp1614
sg24
g11
sS'trials.thisTrialN'
p1615
I0
sS'block.thisIndex'
p1616
g89
sg1236
g55
(g79
S'\x04\x00\x00\x00\x00\x00\x00\x00'
p1617
tp1618
Rp1619
sa(dp1620
S'block.thisTrialN'
p1621
I0
sS'block.thisRepN'
p1622
I0
sg16
g1199
sS'trials.thisRepN'
p1623
I3
sg15
F0.3909063999999489
sg25
g30
sS'block.thisN'
p1624
I0
sg31
NsS'trials.thisN'
p1625
I3
sg14
g1199
sg24
g11
sS'trials.thisTrialN'
p1626
I0
sS'trials.thisIndex'
p1627
g1225
sg21
g22
sg23
I2
sS'block.thisIndex'
p1628
g89
sg17
F0.1596337000009953
sa(dp1629
S'block.thisTrialN'
p1630
I0
sS'block.thisRepN'
p1631
I0
sg31
Nsg25
g30
sS'block.thisN'
p1632
I0
sg24
g11
sg21
g22
sg23
I2
sS'block.thisIndex'
p1633
g89
sa(dp1634
S'block.thisTrialN'
p1635
I0
sS'stim.thisTrialN'
p1636
I0
sS'block.thisRepN'
p1637
I1
sS'Tx'
p1638
Vt2
p1639
sS'stim.thisIndex'
p1640
g55
(g59
S'\x00\x00\x00\x00'
p1641
tp1642
Rp1643
sg31
NsS'block.thisN'
p1644
I1
sS'stim.thisN'
p1645
I0
sS'sep_dur'
p1646
Vlong
p1647
sS'cond'
p1648
Vdistractor
p1649
sg21
g22
sg23
I2
sS'trials.thisIndex'
p1650
g55
(g59
S'\x00\x00\x00\x00'
p1651
tp1652
Rp1653
sS'stim.thisRepN'
p1654
I0
sg25
g30
sS'stimulus'
p1655
VK
p1656
sS'trials.thisRepN'
p1657
I0
sS'trials.thisN'
p1658
I0
sS'trial'
p1659
g55
(g79
S'\x01\x00\x00\x00\x00\x00\x00\x00'
p1660
tp1661
Rp1662
sg24
g11
sS'trials.thisTrialN'
p1663
I0
sS'block.thisIndex'
p1664
g55
(g59
S'\x00\x00\x00\x00'
p1665
tp1666
Rp1667
sS'block'
p1668
g55
(g79
S'\x05\x00\x00\x00\x00\x00\x00\x00'
p1669
tp1670
Rp1671
sa(dp1672
S'block.thisTrialN'
p1673
I0
sS'stim.thisTrialN'
p1674
I1
sS'block.thisRepN'
p1675
I1
sg1638
g1639
sS'stim.thisIndex'
p1676
g55
(g59
S'\x01\x00\x00\x00'
p1677
tp1678
Rp1679
sg31
NsS'block.thisN'
p1680
I1
sS'stim.thisN'
p1681
I1
sg1646
g1647
sg1648
g1649
sg21
g22
sg23
I2
sS'trials.thisIndex'
p1682
g1653
sS'stim.thisRepN'
p1683
I0
sg25
g30
sg1655
VB
p1684
sS'trials.thisRepN'
p1685
I0
sS'trials.thisN'
p1686
I0
sg1659
g55
(g79
S'\x02\x00\x00\x00\x00\x00\x00\x00'
p1687
tp1688
Rp1689
sg24
g11
sS'trials.thisTrialN'
p1690
I0
sS'block.thisIndex'
p1691
g1667
sg1668
g55
(g79
S'\x05\x00\x00\x00\x00\x00\x00\x00'
p1692
tp1693
Rp1694
sa(dp1695
S'block.thisTrialN'
p1696
I0
sS'stim.thisTrialN'
p1697
I2
sS'block.thisRepN'
p1698
I1
sg1638
g1639
sS'stim.thisIndex'
p1699
g55
(g59
S'\x02\x00\x00\x00'
p1700
tp1701
Rp1702
sg31
NsS'block.thisN'
p1703
I1
sS'stim.thisN'
p1704
I2
sg1646
g1647
sg1648
Vmask
p1705
sg21
g22
sg23
I2
sS'trials.thisIndex'
p1706
g1653
sS'stim.thisRepN'
p1707
I0
sg25
g30
sg1655
g671
sS'trials.thisRepN'
p1708
I0
sS'trials.thisN'
p1709
I0
sg1659
g55
(g79
S'\x03\x00\x00\x00\x00\x00\x00\x00'
p1710
tp1711
Rp1712
sg24
g11
sS'trials.thisTrialN'
p1713
I0
sS'block.thisIndex'
p1714
g1667
sg1668
g55
(g79
S'\x05\x00\x00\x00\x00\x00\x00\x00'
p1715
tp1716
Rp1717
sa(dp1718
S'block.thisTrialN'
p1719
I0
sS'stim.thisTrialN'
p1720
I3
sS'block.thisRepN'
p1721
I1
sg1638
g1639
sS'stim.thisIndex'
p1722
g55
(g59
S'\x03\x00\x00\x00'
p1723
tp1724
Rp1725
sg31
NsS'block.thisN'
p1726
I1
sS'stim.thisN'
p1727
I3
sg1646
g1647
sg1648
g1649
sg21
g22
sg23
I2
sS'trials.thisIndex'
p1728
g1653
sS'stim.thisRepN'
p1729
I0
sg25
g30
sg1655
VP
p1730
sS'trials.thisRepN'
p1731
I0
sS'trials.thisN'
p1732
I0
sg1659
g55
(g79
S'\x04\x00\x00\x00\x00\x00\x00\x00'
p1733
tp1734
Rp1735
sg24
g11
sS'trials.thisTrialN'
p1736
I0
sS'block.thisIndex'
p1737
g1667
sg1668
g55
(g79
S'\x05\x00\x00\x00\x00\x00\x00\x00'
p1738
tp1739
Rp1740
sa(dp1741
S'block.thisTrialN'
p1742
I0
sS'stim.thisTrialN'
p1743
I4
sS'block.thisRepN'
p1744
I1
sg1638
g1639
sS'stim.thisIndex'
p1745
g55
(g59
S'\x04\x00\x00\x00'
p1746
tp1747
Rp1748
sg31
NsS'block.thisN'
p1749
I1
sS'stim.thisN'
p1750
I4
sg1646
g1647
sg1648
g1649
sg21
g22
sg23
I2
sS'trials.thisIndex'
p1751
g1653
sS'stim.thisRepN'
p1752
I0
sg25
g30
sg1655
VJ
p1753
sS'trials.thisRepN'
p1754
I0
sS'trials.thisN'
p1755
I0
sg1659
g55
(g79
S'\x05\x00\x00\x00\x00\x00\x00\x00'
p1756
tp1757
Rp1758
sg24
g11
sS'trials.thisTrialN'
p1759
I0
sS'block.thisIndex'
p1760
g1667
sg1668
g55
(g79
S'\x05\x00\x00\x00\x00\x00\x00\x00'
p1761
tp1762
Rp1763
sa(dp1764
S'block.thisTrialN'
p1765
I0
sS'stim.thisTrialN'
p1766
I5
sS'block.thisRepN'
p1767
I1
sg1638
g1639
sS'stim.thisIndex'
p1768
g55
(g59
S'\x05\x00\x00\x00'
p1769
tp1770
Rp1771
sg31
NsS'block.thisN'
p1772
I1
sS'stim.thisN'
p1773
I5
sg1646
g1647
sg1648
Vtarget
p1774
sg21
g22
sg23
I2
sS'trials.thisIndex'
p1775
g1653
sS'stim.thisRepN'
p1776
I0
sg25
g30
sg1655
g197
sS'trials.thisRepN'
p1777
I0
sS'trials.thisN'
p1778
I0
sg1659
g55
(g79
S'\x06\x00\x00\x00\x00\x00\x00\x00'
p1779
tp1780
Rp1781
sg24
g11
sS'trials.thisTrialN'
p1782
I0
sS'block.thisIndex'
p1783
g1667
sg1668
g55
(g79
S'\x05\x00\x00\x00\x00\x00\x00\x00'
p1784
tp1785
Rp1786
sa(dp1787
S'block.thisTrialN'
p1788
I0
sS'stim.thisTrialN'
p1789
I6
sS'block.thisRepN'
p1790
I1
sg1638
g1639
sS'stim.thisIndex'
p1791
g55
(g59
S'\x06\x00\x00\x00'
p1792
tp1793
Rp1794
sg31
NsS'block.thisN'
p1795
I1
sS'stim.thisN'
p1796
I6
sg1646
g1647
sg1648
g1649
sg21
g22
sg23
I2
sS'trials.thisIndex'
p1797
g1653
sS'stim.thisRepN'
p1798
I0
sg25
g30
sg1655
g1008
sS'trials.thisRepN'
p1799
I0
sS'trials.thisN'
p1800
I0
sg1659
g55
(g79
S'\x07\x00\x00\x00\x00\x00\x00\x00'
p1801
tp1802
Rp1803
sg24
g11
sS'trials.thisTrialN'
p1804
I0
sS'block.thisIndex'
p1805
g1667
sg1668
g55
(g79
S'\x05\x00\x00\x00\x00\x00\x00\x00'
p1806
tp1807
Rp1808
sa(dp1809
S'block.thisTrialN'
p1810
I0
sS'stim.thisTrialN'
p1811
I7
sS'block.thisRepN'
p1812
I1
sg1638
g1639
sS'stim.thisIndex'
p1813
g55
(g59
S'\x07\x00\x00\x00'
p1814
tp1815
Rp1816
sg31
NsS'block.thisN'
p1817
I1
sS'stim.thisN'
p1818
I7
sg1646
g1647
sg1648
g1649
sg21
g22
sg23
I2
sS'trials.thisIndex'
p1819
g1653
sS'stim.thisRepN'
p1820
I0
sg25
g30
sg1655
g1656
sS'trials.thisRepN'
p1821
I0
sS'trials.thisN'
p1822
I0
sg1659
g55
(g79
S'\x08\x00\x00\x00\x00\x00\x00\x00'
p1823
tp1824
Rp1825
sg24
g11
sS'trials.thisTrialN'
p1826
I0
sS'block.thisIndex'
p1827
g1667
sg1668
g55
(g79
S'\x05\x00\x00\x00\x00\x00\x00\x00'
p1828
tp1829
Rp1830
sa(dp1831
S'block.thisTrialN'
p1832
I0
sS'stim.thisTrialN'
p1833
I8
sS'block.thisRepN'
p1834
I1
sg1638
g1639
sS'stim.thisIndex'
p1835
g55
(g59
S'\x08\x00\x00\x00'
p1836
tp1837
Rp1838
sg31
NsS'block.thisN'
p1839
I1
sS'stim.thisN'
p1840
I8
sg1646
g1647
sg1648
g1649
sg21
g22
sg23
I2
sS'trials.thisIndex'
p1841
g1653
sS'stim.thisRepN'
p1842
I0
sg25
g30
sg1655
g1753
sS'trials.thisRepN'
p1843
I0
sS'trials.thisN'
p1844
I0
sg1659
g55
(g79
S'\t\x00\x00\x00\x00\x00\x00\x00'
p1845
tp1846
Rp1847
sg24
g11
sS'trials.thisTrialN'
p1848
I0
sS'block.thisIndex'
p1849
g1667
sg1668
g55
(g79
S'\x05\x00\x00\x00\x00\x00\x00\x00'
p1850
tp1851
Rp1852
sa(dp1853
S'block.thisTrialN'
p1854
I0
sS'stim.thisTrialN'
p1855
I9
sS'block.thisRepN'
p1856
I1
sg1638
g1639
sS'stim.thisIndex'
p1857
g55
(g59
S'\t\x00\x00\x00'
p1858
tp1859
Rp1860
sg31
NsS'block.thisN'
p1861
I1
sS'stim.thisN'
p1862
I9
sg1646
g1647
sg1648
g1649
sg21
g22
sg23
I2
sS'trials.thisIndex'
p1863
g1653
sS'stim.thisRepN'
p1864
I0
sg25
g30
sg1655
g1475
sS'trials.thisRepN'
p1865
I0
sS'trials.thisN'
p1866
I0
sg1659
g55
(g79
S'\n\x00\x00\x00\x00\x00\x00\x00'
p1867
tp1868
Rp1869
sg24
g11
sS'trials.thisTrialN'
p1870
I0
sS'block.thisIndex'
p1871
g1667
sg1668
g55
(g79
S'\x05\x00\x00\x00\x00\x00\x00\x00'
p1872
tp1873
Rp1874
sa(dp1875
S'block.thisTrialN'
p1876
I0
sS'stim.thisTrialN'
p1877
I10
sS'block.thisRepN'
p1878
I1
sg1638
g1639
sS'stim.thisIndex'
p1879
g55
(g59
S'\n\x00\x00\x00'
p1880
tp1881
Rp1882
sg31
NsS'block.thisN'
p1883
I1
sS'stim.thisN'
p1884
I10
sg1646
g1647
sg1648
g1649
sg21
g22
sg23
I2
sS'trials.thisIndex'
p1885
g1653
sS'stim.thisRepN'
p1886
I0
sg25
g30
sg1655
g1475
sS'trials.thisRepN'
p1887
I0
sS'trials.thisN'
p1888
I0
sg1659
g55
(g79
S'\x0b\x00\x00\x00\x00\x00\x00\x00'
p1889
tp1890
Rp1891
sg24
g11
sS'trials.thisTrialN'
p1892
I0
sS'block.thisIndex'
p1893
g1667
sg1668
g55
(g79
S'\x05\x00\x00\x00\x00\x00\x00\x00'
p1894
tp1895
Rp1896
sa(dp1897
S'block.thisTrialN'
p1898
I0
sS'stim.thisTrialN'
p1899
I11
sS'block.thisRepN'
p1900
I1
sg1638
g1639
sS'stim.thisIndex'
p1901
g55
(g59
S'\x0b\x00\x00\x00'
p1902
tp1903
Rp1904
sg31
NsS'block.thisN'
p1905
I1
sS'stim.thisN'
p1906
I11
sg1646
g1647
sg1648
g1649
sg21
g22
sg23
I2
sS'trials.thisIndex'
p1907
g1653
sS'stim.thisRepN'
p1908
I0
sg25
g30
sg1655
g1053
sS'trials.thisRepN'
p1909
I0
sS'trials.thisN'
p1910
I0
sg1659
g55
(g79
S'\x0c\x00\x00\x00\x00\x00\x00\x00'
p1911
tp1912
Rp1913
sg24
g11
sS'trials.thisTrialN'
p1914
I0
sS'block.thisIndex'
p1915
g1667
sg1668
g55
(g79
S'\x05\x00\x00\x00\x00\x00\x00\x00'
p1916
tp1917
Rp1918
sa(dp1919
S'block.thisTrialN'
p1920
I0
sS'stim.thisTrialN'
p1921
I12
sS'block.thisRepN'
p1922
I1
sg1638
g1639
sS'stim.thisIndex'
p1923
g55
(g59
S'\x0c\x00\x00\x00'
p1924
tp1925
Rp1926
sg31
NsS'block.thisN'
p1927
I1
sS'stim.thisN'
p1928
I12
sg1646
g1647
sg1648
g1649
sg21
g22
sg23
I2
sS'trials.thisIndex'
p1929
g1653
sS'stim.thisRepN'
p1930
I0
sg25
g30
sg1655
g1520
sS'trials.thisRepN'
p1931
I0
sS'trials.thisN'
p1932
I0
sg1659
g55
(g79
S'\r\x00\x00\x00\x00\x00\x00\x00'
p1933
tp1934
Rp1935
sg24
g11
sS'trials.thisTrialN'
p1936
I0
sS'block.thisIndex'
p1937
g1667
sg1668
g55
(g79
S'\x05\x00\x00\x00\x00\x00\x00\x00'
p1938
tp1939
Rp1940
sa(dp1941
S'block.thisTrialN'
p1942
I0
sS'stim.thisTrialN'
p1943
I13
sS'block.thisRepN'
p1944
I1
sg1638
g1639
sS'stim.thisIndex'
p1945
g55
(g59
S'\r\x00\x00\x00'
p1946
tp1947
Rp1948
sg31
NsS'block.thisN'
p1949
I1
sS'stim.thisN'
p1950
I13
sg1646
g1647
sg1648
g1649
sg21
g22
sg23
I2
sS'trials.thisIndex'
p1951
g1653
sS'stim.thisRepN'
p1952
I0
sg25
g30
sg1655
g74
sS'trials.thisRepN'
p1953
I0
sS'trials.thisN'
p1954
I0
sg1659
g55
(g79
S'\x0e\x00\x00\x00\x00\x00\x00\x00'
p1955
tp1956
Rp1957
sg24
g11
sS'trials.thisTrialN'
p1958
I0
sS'block.thisIndex'
p1959
g1667
sg1668
g55
(g79
S'\x05\x00\x00\x00\x00\x00\x00\x00'
p1960
tp1961
Rp1962
sa(dp1963
S'block.thisTrialN'
p1964
I0
sS'stim.thisTrialN'
p1965
I14
sS'block.thisRepN'
p1966
I1
sg1638
g1639
sS'stim.thisIndex'
p1967
g55
(g59
S'\x0e\x00\x00\x00'
p1968
tp1969
Rp1970
sg31
NsS'block.thisN'
p1971
I1
sS'stim.thisN'
p1972
I14
sg1646
g1647
sg1648
g1774
sg21
g22
sg23
I2
sS'trials.thisIndex'
p1973
g1653
sS'stim.thisRepN'
p1974
I0
sg25
g30
sg1655
V2
p1975
sS'trials.thisRepN'
p1976
I0
sS'trials.thisN'
p1977
I0
sg1659
g55
(g79
S'\x0f\x00\x00\x00\x00\x00\x00\x00'
p1978
tp1979
Rp1980
sg24
g11
sS'trials.thisTrialN'
p1981
I0
sS'block.thisIndex'
p1982
g1667
sg1668
g55
(g79
S'\x05\x00\x00\x00\x00\x00\x00\x00'
p1983
tp1984
Rp1985
sa(dp1986
S'block.thisTrialN'
p1987
I0
sS'block.thisRepN'
p1988
I1
sg16
S'5'
p1989
sS'trials.thisRepN'
p1990
I0
sg15
F1.7344873000001826
sg25
g30
sS'block.thisN'
p1991
I1
sg31
NsS'trials.thisN'
p1992
I0
sg14
g1989
sg24
g11
sS'trials.thisTrialN'
p1993
I0
sS'trials.thisIndex'
p1994
g1653
sg21
g22
sg23
I2
sS'block.thisIndex'
p1995
g1667
sg17
F0.12375179999980901
sa(dp1996
S'block.thisTrialN'
p1997
I0
sS'stim.thisTrialN'
p1998
I0
sS'block.thisRepN'
p1999
I1
sS'Tx'
p2000
Vt1
p2001
sS'stim.thisIndex'
p2002
g55
(g59
S'\x00\x00\x00\x00'
p2003
tp2004
Rp2005
sg31
NsS'block.thisN'
p2006
I1
sS'stim.thisN'
p2007
I0
sS'sep_dur'
p2008
Vshort
p2009
sS'cond'
p2010
Vdistractor
p2011
sg21
g22
sg23
I2
sS'trials.thisIndex'
p2012
g55
(g59
S'\x00\x00\x00\x00'
p2013
tp2014
Rp2015
sS'stim.thisRepN'
p2016
I0
sg25
g30
sS'stimulus'
p2017
g1008
sS'trials.thisRepN'
p2018
I1
sS'trials.thisN'
p2019
I1
sS'trial'
p2020
g55
(g79
S'\x01\x00\x00\x00\x00\x00\x00\x00'
p2021
tp2022
Rp2023
sg24
g11
sS'trials.thisTrialN'
p2024
I0
sS'block.thisIndex'
p2025
g1667
sS'block'
p2026
g55
(g79
S'\x06\x00\x00\x00\x00\x00\x00\x00'
p2027
tp2028
Rp2029
sa(dp2030
S'block.thisTrialN'
p2031
I0
sS'stim.thisTrialN'
p2032
I1
sS'block.thisRepN'
p2033
I1
sg2000
g2001
sS'stim.thisIndex'
p2034
g55
(g59
S'\x01\x00\x00\x00'
p2035
tp2036
Rp2037
sg31
NsS'block.thisN'
p2038
I1
sS'stim.thisN'
p2039
I1
sg2008
g2009
sg2010
g2011
sg21
g22
sg23
I2
sS'trials.thisIndex'
p2040
g2015
sS'stim.thisRepN'
p2041
I0
sg25
g30
sg2017
g1730
sS'trials.thisRepN'
p2042
I1
sS'trials.thisN'
p2043
I1
sg2020
g55
(g79
S'\x02\x00\x00\x00\x00\x00\x00\x00'
p2044
tp2045
Rp2046
sg24
g11
sS'trials.thisTrialN'
p2047
I0
sS'block.thisIndex'
p2048
g1667
sg2026
g55
(g79
S'\x06\x00\x00\x00\x00\x00\x00\x00'
p2049
tp2050
Rp2051
sa(dp2052
S'block.thisTrialN'
p2053
I0
sS'stim.thisTrialN'
p2054
I2
sS'block.thisRepN'
p2055
I1
sg2000
g2001
sS'stim.thisIndex'
p2056
g55
(g59
S'\x02\x00\x00\x00'
p2057
tp2058
Rp2059
sg31
NsS'block.thisN'
p2060
I1
sS'stim.thisN'
p2061
I2
sg2008
g2009
sg2010
Vtarget
p2062
sg21
g22
sg23
I2
sS'trials.thisIndex'
p2063
g2015
sS'stim.thisRepN'
p2064
I0
sg25
g30
sg2017
g1430
sS'trials.thisRepN'
p2065
I1
sS'trials.thisN'
p2066
I1
sg2020
g55
(g79
S'\x03\x00\x00\x00\x00\x00\x00\x00'
p2067
tp2068
Rp2069
sg24
g11
sS'trials.thisTrialN'
p2070
I0
sS'block.thisIndex'
p2071
g1667
sg2026
g55
(g79
S'\x06\x00\x00\x00\x00\x00\x00\x00'
p2072
tp2073
Rp2074
sa(dp2075
S'block.thisTrialN'
p2076
I0
sS'stim.thisTrialN'
p2077
I3
sS'block.thisRepN'
p2078
I1
sg2000
g2001
sS'stim.thisIndex'
p2079
g55
(g59
S'\x03\x00\x00\x00'
p2080
tp2081
Rp2082
sg31
NsS'block.thisN'
p2083
I1
sS'stim.thisN'
p2084
I3
sg2008
g2009
sg2010
g2011
sg21
g22
sg23
I2
sS'trials.thisIndex'
p2085
g2015
sS'stim.thisRepN'
p2086
I0
sg25
g30
sg2017
g1684
sS'trials.thisRepN'
p2087
I1
sS'trials.thisN'
p2088
I1
sg2020
g55
(g79
S'\x04\x00\x00\x00\x00\x00\x00\x00'
p2089
tp2090
Rp2091
sg24
g11
sS'trials.thisTrialN'
p2092
I0
sS'block.thisIndex'
p2093
g1667
sg2026
g55
(g79
S'\x06\x00\x00\x00\x00\x00\x00\x00'
p2094
tp2095
Rp2096
sa(dp2097
S'block.thisTrialN'
p2098
I0
sS'stim.thisTrialN'
p2099
I4
sS'block.thisRepN'
p2100
I1
sg2000
g2001
sS'stim.thisIndex'
p2101
g55
(g59
S'\x04\x00\x00\x00'
p2102
tp2103
Rp2104
sg31
NsS'block.thisN'
p2105
I1
sS'stim.thisN'
p2106
I4
sg2008
g2009
sg2010
g2011
sg21
g22
sg23
I2
sS'trials.thisIndex'
p2107
g2015
sS'stim.thisRepN'
p2108
I0
sg25
g30
sg2017
g805
sS'trials.thisRepN'
p2109
I1
sS'trials.thisN'
p2110
I1
sg2020
g55
(g79
S'\x05\x00\x00\x00\x00\x00\x00\x00'
p2111
tp2112
Rp2113
sg24
g11
sS'trials.thisTrialN'
p2114
I0
sS'block.thisIndex'
p2115
g1667
sg2026
g55
(g79
S'\x06\x00\x00\x00\x00\x00\x00\x00'
p2116
tp2117
Rp2118
sa(dp2119
S'block.thisTrialN'
p2120
I0
sS'stim.thisTrialN'
p2121
I5
sS'block.thisRepN'
p2122
I1
sg2000
g2001
sS'stim.thisIndex'
p2123
g55
(g59
S'\x05\x00\x00\x00'
p2124
tp2125
Rp2126
sg31
NsS'block.thisN'
p2127
I1
sS'stim.thisN'
p2128
I5
sg2008
g2009
sg2010
g2011
sg21
g22
sg23
I2
sS'trials.thisIndex'
p2129
g2015
sS'stim.thisRepN'
p2130
I0
sg25
g30
sg2017
g128
sS'trials.thisRepN'
p2131
I1
sS'trials.thisN'
p2132
I1
sg2020
g55
(g79
S'\x06\x00\x00\x00\x00\x00\x00\x00'
p2133
tp2134
Rp2135
sg24
g11
sS'trials.thisTrialN'
p2136
I0
sS'block.thisIndex'
p2137
g1667
sg2026
g55
(g79
S'\x06\x00\x00\x00\x00\x00\x00\x00'
p2138
tp2139
Rp2140
sa(dp2141
S'block.thisTrialN'
p2142
I0
sS'stim.thisTrialN'
p2143
I6
sS'block.thisRepN'
p2144
I1
sg2000
g2001
sS'stim.thisIndex'
p2145
g55
(g59
S'\x06\x00\x00\x00'
p2146
tp2147
Rp2148
sg31
NsS'block.thisN'
p2149
I1
sS'stim.thisN'
p2150
I6
sg2008
g2009
sg2010
g2011
sg21
g22
sg23
I2
sS'trials.thisIndex'
p2151
g2015
sS'stim.thisRepN'
p2152
I0
sg25
g30
sg2017
g738
sS'trials.thisRepN'
p2153
I1
sS'trials.thisN'
p2154
I1
sg2020
g55
(g79
S'\x07\x00\x00\x00\x00\x00\x00\x00'
p2155
tp2156
Rp2157
sg24
g11
sS'trials.thisTrialN'
p2158
I0
sS'block.thisIndex'
p2159
g1667
sg2026
g55
(g79
S'\x06\x00\x00\x00\x00\x00\x00\x00'
p2160
tp2161
Rp2162
sa(dp2163
S'block.thisTrialN'
p2164
I0
sS'stim.thisTrialN'
p2165
I7
sS'block.thisRepN'
p2166
I1
sg2000
g2001
sS'stim.thisIndex'
p2167
g55
(g59
S'\x07\x00\x00\x00'
p2168
tp2169
Rp2170
sg31
NsS'block.thisN'
p2171
I1
sS'stim.thisN'
p2172
I7
sg2008
g2009
sg2010
Vmask
p2173
sg21
g22
sg23
I2
sS'trials.thisIndex'
p2174
g2015
sS'stim.thisRepN'
p2175
I0
sg25
g30
sg2017
g671
sS'trials.thisRepN'
p2176
I1
sS'trials.thisN'
p2177
I1
sg2020
g55
(g79
S'\x08\x00\x00\x00\x00\x00\x00\x00'
p2178
tp2179
Rp2180
sg24
g11
sS'trials.thisTrialN'
p2181
I0
sS'block.thisIndex'
p2182
g1667
sg2026
g55
(g79
S'\x06\x00\x00\x00\x00\x00\x00\x00'
p2183
tp2184
Rp2185
sa(dp2186
S'block.thisTrialN'
p2187
I0
sS'stim.thisTrialN'
p2188
I8
sS'block.thisRepN'
p2189
I1
sg2000
g2001
sS'stim.thisIndex'
p2190
g55
(g59
S'\x08\x00\x00\x00'
p2191
tp2192
Rp2193
sg31
NsS'block.thisN'
p2194
I1
sS'stim.thisN'
p2195
I8
sg2008
g2009
sg2010
g2011
sg21
g22
sg23
I2
sS'trials.thisIndex'
p2196
g2015
sS'stim.thisRepN'
p2197
I0
sg25
g30
sg2017
g1053
sS'trials.thisRepN'
p2198
I1
sS'trials.thisN'
p2199
I1
sg2020
g55
(g79
S'\t\x00\x00\x00\x00\x00\x00\x00'
p2200
tp2201
Rp2202
sg24
g11
sS'trials.thisTrialN'
p2203
I0
sS'block.thisIndex'
p2204
g1667
sg2026
g55
(g79
S'\x06\x00\x00\x00\x00\x00\x00\x00'
p2205
tp2206
Rp2207
sa(dp2208
S'block.thisTrialN'
p2209
I0
sS'stim.thisTrialN'
p2210
I9
sS'block.thisRepN'
p2211
I1
sg2000
g2001
sS'stim.thisIndex'
p2212
g55
(g59
S'\t\x00\x00\x00'
p2213
tp2214
Rp2215
sg31
NsS'block.thisN'
p2216
I1
sS'stim.thisN'
p2217
I9
sg2008
g2009
sg2010
g2011
sg21
g22
sg23
I2
sS'trials.thisIndex'
p2218
g2015
sS'stim.thisRepN'
p2219
I0
sg25
g30
sg2017
g647
sS'trials.thisRepN'
p2220
I1
sS'trials.thisN'
p2221
I1
sg2020
g55
(g79
S'\n\x00\x00\x00\x00\x00\x00\x00'
p2222
tp2223
Rp2224
sg24
g11
sS'trials.thisTrialN'
p2225
I0
sS'block.thisIndex'
p2226
g1667
sg2026
g55
(g79
S'\x06\x00\x00\x00\x00\x00\x00\x00'
p2227
tp2228
Rp2229
sa(dp2230
S'block.thisTrialN'
p2231
I0
sS'stim.thisTrialN'
p2232
I10
sS'block.thisRepN'
p2233
I1
sg2000
g2001
sS'stim.thisIndex'
p2234
g55
(g59
S'\n\x00\x00\x00'
p2235
tp2236
Rp2237
sg31
NsS'block.thisN'
p2238
I1
sS'stim.thisN'
p2239
I10
sg2008
g2009
sg2010
g2011
sg21
g22
sg23
I2
sS'trials.thisIndex'
p2240
g2015
sS'stim.thisRepN'
p2241
I0
sg25
g30
sg2017
g512
sS'trials.thisRepN'
p2242
I1
sS'trials.thisN'
p2243
I1
sg2020
g55
(g79
S'\x0b\x00\x00\x00\x00\x00\x00\x00'
p2244
tp2245
Rp2246
sg24
g11
sS'trials.thisTrialN'
p2247
I0
sS'block.thisIndex'
p2248
g1667
sg2026
g55
(g79
S'\x06\x00\x00\x00\x00\x00\x00\x00'
p2249
tp2250
Rp2251
sa(dp2252
S'block.thisTrialN'
p2253
I0
sS'stim.thisTrialN'
p2254
I11
sS'block.thisRepN'
p2255
I1
sg2000
g2001
sS'stim.thisIndex'
p2256
g55
(g59
S'\x0b\x00\x00\x00'
p2257
tp2258
Rp2259
sg31
NsS'block.thisN'
p2260
I1
sS'stim.thisN'
p2261
I11
sg2008
g2009
sg2010
g2011
sg21
g22
sg23
I2
sS'trials.thisIndex'
p2262
g2015
sS'stim.thisRepN'
p2263
I0
sg25
g30
sg2017
g128
sS'trials.thisRepN'
p2264
I1
sS'trials.thisN'
p2265
I1
sg2020
g55
(g79
S'\x0c\x00\x00\x00\x00\x00\x00\x00'
p2266
tp2267
Rp2268
sg24
g11
sS'trials.thisTrialN'
p2269
I0
sS'block.thisIndex'
p2270
g1667
sg2026
g55
(g79
S'\x06\x00\x00\x00\x00\x00\x00\x00'
p2271
tp2272
Rp2273
sa(dp2274
S'block.thisTrialN'
p2275
I0
sS'stim.thisTrialN'
p2276
I12
sS'block.thisRepN'
p2277
I1
sg2000
g2001
sS'stim.thisIndex'
p2278
g55
(g59
S'\x0c\x00\x00\x00'
p2279
tp2280
Rp2281
sg31
NsS'block.thisN'
p2282
I1
sS'stim.thisN'
p2283
I12
sg2008
g2009
sg2010
g2011
sg21
g22
sg23
I2
sS'trials.thisIndex'
p2284
g2015
sS'stim.thisRepN'
p2285
I0
sg25
g30
sg2017
g870
sS'trials.thisRepN'
p2286
I1
sS'trials.thisN'
p2287
I1
sg2020
g55
(g79
S'\r\x00\x00\x00\x00\x00\x00\x00'
p2288
tp2289
Rp2290
sg24
g11
sS'trials.thisTrialN'
p2291
I0
sS'block.thisIndex'
p2292
g1667
sg2026
g55
(g79
S'\x06\x00\x00\x00\x00\x00\x00\x00'
p2293
tp2294
Rp2295
sa(dp2296
S'block.thisTrialN'
p2297
I0
sS'stim.thisTrialN'
p2298
I13
sS'block.thisRepN'
p2299
I1
sg2000
g2001
sS'stim.thisIndex'
p2300
g55
(g59
S'\r\x00\x00\x00'
p2301
tp2302
Rp2303
sg31
NsS'block.thisN'
p2304
I1
sS'stim.thisN'
p2305
I13
sg2008
g2009
sg2010
g2011
sg21
g22
sg23
I2
sS'trials.thisIndex'
p2306
g2015
sS'stim.thisRepN'
p2307
I0
sg25
g30
sg2017
g151
sS'trials.thisRepN'
p2308
I1
sS'trials.thisN'
p2309
I1
sg2020
g55
(g79
S'\x0e\x00\x00\x00\x00\x00\x00\x00'
p2310
tp2311
Rp2312
sg24
g11
sS'trials.thisTrialN'
p2313
I0
sS'block.thisIndex'
p2314
g1667
sg2026
g55
(g79
S'\x06\x00\x00\x00\x00\x00\x00\x00'
p2315
tp2316
Rp2317
sa(dp2318
S'block.thisTrialN'
p2319
I0
sS'stim.thisTrialN'
p2320
I14
sS'block.thisRepN'
p2321
I1
sg2000
g2001
sS'stim.thisIndex'
p2322
g55
(g59
S'\x0e\x00\x00\x00'
p2323
tp2324
Rp2325
sg31
NsS'block.thisN'
p2326
I1
sS'stim.thisN'
p2327
I14
sg2008
g2009
sg2010
g2011
sg21
g22
sg23
I2
sS'trials.thisIndex'
p2328
g2015
sS'stim.thisRepN'
p2329
I0
sg25
g30
sg2017
g1008
sS'trials.thisRepN'
p2330
I1
sS'trials.thisN'
p2331
I1
sg2020
g55
(g79
S'\x0f\x00\x00\x00\x00\x00\x00\x00'
p2332
tp2333
Rp2334
sg24
g11
sS'trials.thisTrialN'
p2335
I0
sS'block.thisIndex'
p2336
g1667
sg2026
g55
(g79
S'\x06\x00\x00\x00\x00\x00\x00\x00'
p2337
tp2338
Rp2339
sa(dp2340
S'block.thisTrialN'
p2341
I0
sS'stim.thisTrialN'
p2342
I15
sS'block.thisRepN'
p2343
I1
sg2000
g2001
sS'stim.thisIndex'
p2344
g55
(g59
S'\x0f\x00\x00\x00'
p2345
tp2346
Rp2347
sg31
NsS'block.thisN'
p2348
I1
sS'stim.thisN'
p2349
I15
sg2008
g2009
sg2010
g2011
sg21
g22
sg23
I2
sS'trials.thisIndex'
p2350
g2015
sS'stim.thisRepN'
p2351
I0
sg25
g30
sg2017
g1053
sS'trials.thisRepN'
p2352
I1
sS'trials.thisN'
p2353
I1
sg2020
g55
(g79
S'\x10\x00\x00\x00\x00\x00\x00\x00'
p2354
tp2355
Rp2356
sg24
g11
sS'trials.thisTrialN'
p2357
I0
sS'block.thisIndex'
p2358
g1667
sg2026
g55
(g79
S'\x06\x00\x00\x00\x00\x00\x00\x00'
p2359
tp2360
Rp2361
sa(dp2362
S'block.thisTrialN'
p2363
I0
sS'stim.thisTrialN'
p2364
I16
sS'block.thisRepN'
p2365
I1
sg2000
g2001
sS'stim.thisIndex'
p2366
g55
(g59
S'\x10\x00\x00\x00'
p2367
tp2368
Rp2369
sg31
NsS'block.thisN'
p2370
I1
sS'stim.thisN'
p2371
I16
sg2008
g2009
sg2010
g2011
sg21
g22
sg23
I2
sS'trials.thisIndex'
p2372
g2015
sS'stim.thisRepN'
p2373
I0
sg25
g30
sg2017
g105
sS'trials.thisRepN'
p2374
I1
sS'trials.thisN'
p2375
I1
sg2020
g55
(g79
S'\x11\x00\x00\x00\x00\x00\x00\x00'
p2376
tp2377
Rp2378
sg24
g11
sS'trials.thisTrialN'
p2379
I0
sS'block.thisIndex'
p2380
g1667
sg2026
g55
(g79
S'\x06\x00\x00\x00\x00\x00\x00\x00'
p2381
tp2382
Rp2383
sa(dp2384
S'block.thisTrialN'
p2385
I0
sS'block.thisRepN'
p2386
I1
sg16
S'8'
p2387
sS'trials.thisRepN'
p2388
I1
sg15
F0.5410832999987178
sg25
g30
sS'block.thisN'
p2389
I1
sg31
NsS'trials.thisN'
p2390
I1
sg14
g2387
sg24
g11
sS'trials.thisTrialN'
p2391
I0
sS'trials.thisIndex'
p2392
g2015
sg21
g22
sg23
I2
sS'block.thisIndex'
p2393
g1667
sg17
F0.14642019999882905
sa(dp2394
S'block.thisTrialN'
p2395
I0
sS'stim.thisTrialN'
p2396
I0
sS'block.thisRepN'
p2397
I1
sS'Tx'
p2398
Vt1
p2399
sS'stim.thisIndex'
p2400
g55
(g59
S'\x00\x00\x00\x00'
p2401
tp2402
Rp2403
sg31
NsS'block.thisN'
p2404
I1
sS'stim.thisN'
p2405
I0
sS'sep_dur'
p2406
Vshort
p2407
sS'cond'
p2408
Vdistractor
p2409
sg21
g22
sg23
I2
sS'trials.thisIndex'
p2410
g55
(g59
S'\x00\x00\x00\x00'
p2411
tp2412
Rp2413
sS'stim.thisRepN'
p2414
I0
sg25
g30
sS'stimulus'
p2415
g1008
sS'trials.thisRepN'
p2416
I2
sS'trials.thisN'
p2417
I2
sS'trial'
p2418
g55
(g79
S'\x01\x00\x00\x00\x00\x00\x00\x00'
p2419
tp2420
Rp2421
sg24
g11
sS'trials.thisTrialN'
p2422
I0
sS'block.thisIndex'
p2423
g1667
sS'block'
p2424
g55
(g79
S'\x07\x00\x00\x00\x00\x00\x00\x00'
p2425
tp2426
Rp2427
sa(dp2428
S'block.thisTrialN'
p2429
I0
sS'stim.thisTrialN'
p2430
I1
sS'block.thisRepN'
p2431
I1
sg2398
g2399
sS'stim.thisIndex'
p2432
g55
(g59
S'\x01\x00\x00\x00'
p2433
tp2434
Rp2435
sg31
NsS'block.thisN'
p2436
I1
sS'stim.thisN'
p2437
I1
sg2406
g2407
sg2408
g2409
sg21
g22
sg23
I2
sS'trials.thisIndex'
p2438
g2413
sS'stim.thisRepN'
p2439
I0
sg25
g30
sg2415
g489
sS'trials.thisRepN'
p2440
I2
sS'trials.thisN'
p2441
I2
sg2418
g55
(g79
S'\x02\x00\x00\x00\x00\x00\x00\x00'
p2442
tp2443
Rp2444
sg24
g11
sS'trials.thisTrialN'
p2445
I0
sS'block.thisIndex'
p2446
g1667
sg2424
g55
(g79
S'\x07\x00\x00\x00\x00\x00\x00\x00'
p2447
tp2448
Rp2449
sa(dp2450
S'block.thisTrialN'
p2451
I0
sS'stim.thisTrialN'
p2452
I2
sS'block.thisRepN'
p2453
I1
sg2398
g2399
sS'stim.thisIndex'
p2454
g55
(g59
S'\x02\x00\x00\x00'
p2455
tp2456
Rp2457
sg31
NsS'block.thisN'
p2458
I1
sS'stim.thisN'
p2459
I2
sg2406
g2407
sg2408
g2409
sg21
g22
sg23
I2
sS'trials.thisIndex'
p2460
g2413
sS'stim.thisRepN'
p2461
I0
sg25
g30
sg2415
g738
sS'trials.thisRepN'
p2462
I2
sS'trials.thisN'
p2463
I2
sg2418
g55
(g79
S'\x03\x00\x00\x00\x00\x00\x00\x00'
p2464
tp2465
Rp2466
sg24
g11
sS'trials.thisTrialN'
p2467
I0
sS'block.thisIndex'
p2468
g1667
sg2424
g55
(g79
S'\x07\x00\x00\x00\x00\x00\x00\x00'
p2469
tp2470
Rp2471
sa(dp2472
S'block.thisTrialN'
p2473
I0
sS'stim.thisTrialN'
p2474
I3
sS'block.thisRepN'
p2475
I1
sg2398
g2399
sS'stim.thisIndex'
p2476
g55
(g59
S'\x03\x00\x00\x00'
p2477
tp2478
Rp2479
sg31
NsS'block.thisN'
p2480
I1
sS'stim.thisN'
p2481
I3
sg2406
g2407
sg2408
g2409
sg21
g22
sg23
I2
sS'trials.thisIndex'
p2482
g2413
sS'stim.thisRepN'
p2483
I0
sg25
g30
sg2415
g738
sS'trials.thisRepN'
p2484
I2
sS'trials.thisN'
p2485
I2
sg2418
g55
(g79
S'\x04\x00\x00\x00\x00\x00\x00\x00'
p2486
tp2487
Rp2488
sg24
g11
sS'trials.thisTrialN'
p2489
I0
sS'block.thisIndex'
p2490
g1667
sg2424
g55
(g79
S'\x07\x00\x00\x00\x00\x00\x00\x00'
p2491
tp2492
Rp2493
sa(dp2494
S'block.thisTrialN'
p2495
I0
sS'stim.thisTrialN'
p2496
I4
sS'block.thisRepN'
p2497
I1
sg2398
g2399
sS'stim.thisIndex'
p2498
g55
(g59
S'\x04\x00\x00\x00'
p2499
tp2500
Rp2501
sg31
NsS'block.thisN'
p2502
I1
sS'stim.thisN'
p2503
I4
sg2406
g2407
sg2408
g2409
sg21
g22
sg23
I2
sS'trials.thisIndex'
p2504
g2413
sS'stim.thisRepN'
p2505
I0
sg25
g30
sg2415
g647
sS'trials.thisRepN'
p2506
I2
sS'trials.thisN'
p2507
I2
sg2418
g55
(g79
S'\x05\x00\x00\x00\x00\x00\x00\x00'
p2508
tp2509
Rp2510
sg24
g11
sS'trials.thisTrialN'
p2511
I0
sS'block.thisIndex'
p2512
g1667
sg2424
g55
(g79
S'\x07\x00\x00\x00\x00\x00\x00\x00'
p2513
tp2514
Rp2515
sa(dp2516
S'block.thisTrialN'
p2517
I0
sS'stim.thisTrialN'
p2518
I5
sS'block.thisRepN'
p2519
I1
sg2398
g2399
sS'stim.thisIndex'
p2520
g55
(g59
S'\x05\x00\x00\x00'
p2521
tp2522
Rp2523
sg31
NsS'block.thisN'
p2524
I1
sS'stim.thisN'
p2525
I5
sg2406
g2407
sg2408
g2409
sg21
g22
sg23
I2
sS'trials.thisIndex'
p2526
g2413
sS'stim.thisRepN'
p2527
I0
sg25
g30
sg2415
g1008
sS'trials.thisRepN'
p2528
I2
sS'trials.thisN'
p2529
I2
sg2418
g55
(g79
S'\x06\x00\x00\x00\x00\x00\x00\x00'
p2530
tp2531
Rp2532
sg24
g11
sS'trials.thisTrialN'
p2533
I0
sS'block.thisIndex'
p2534
g1667
sg2424
g55
(g79
S'\x07\x00\x00\x00\x00\x00\x00\x00'
p2535
tp2536
Rp2537
sa(dp2538
S'block.thisTrialN'
p2539
I0
sS'stim.thisTrialN'
p2540
I6
sS'block.thisRepN'
p2541
I1
sg2398
g2399
sS'stim.thisIndex'
p2542
g55
(g59
S'\x06\x00\x00\x00'
p2543
tp2544
Rp2545
sg31
NsS'block.thisN'
p2546
I1
sS'stim.thisN'
p2547
I6
sg2406
g2407
sg2408
g2409
sg21
g22
sg23
I2
sS'trials.thisIndex'
p2548
g2413
sS'stim.thisRepN'
p2549
I0
sg25
g30
sg2415
g1753
sS'trials.thisRepN'
p2550
I2
sS'trials.thisN'
p2551
I2
sg2418
g55
(g79
S'\x07\x00\x00\x00\x00\x00\x00\x00'
p2552
tp2553
Rp2554
sg24
g11
sS'trials.thisTrialN'
p2555
I0
sS'block.thisIndex'
p2556
g1667
sg2424
g55
(g79
S'\x07\x00\x00\x00\x00\x00\x00\x00'
p2557
tp2558
Rp2559
sa(dp2560
S'block.thisTrialN'
p2561
I0
sS'stim.thisTrialN'
p2562
I7
sS'block.thisRepN'
p2563
I1
sg2398
g2399
sS'stim.thisIndex'
p2564
g55
(g59
S'\x07\x00\x00\x00'
p2565
tp2566
Rp2567
sg31
NsS'block.thisN'
p2568
I1
sS'stim.thisN'
p2569
I7
sg2406
g2407
sg2408
g2409
sg21
g22
sg23
I2
sS'trials.thisIndex'
p2570
g2413
sS'stim.thisRepN'
p2571
I0
sg25
g30
sg2415
g963
sS'trials.thisRepN'
p2572
I2
sS'trials.thisN'
p2573
I2
sg2418
g55
(g79
S'\x08\x00\x00\x00\x00\x00\x00\x00'
p2574
tp2575
Rp2576
sg24
g11
sS'trials.thisTrialN'
p2577
I0
sS'block.thisIndex'
p2578
g1667
sg2424
g55
(g79
S'\x07\x00\x00\x00\x00\x00\x00\x00'
p2579
tp2580
Rp2581
sa(dp2582
S'block.thisTrialN'
p2583
I0
sS'stim.thisTrialN'
p2584
I8
sS'block.thisRepN'
p2585
I1
sg2398
g2399
sS'stim.thisIndex'
p2586
g55
(g59
S'\x08\x00\x00\x00'
p2587
tp2588
Rp2589
sg31
NsS'block.thisN'
p2590
I1
sS'stim.thisN'
p2591
I8
sg2406
g2407
sg2408
g2409
sg21
g22
sg23
I2
sS'trials.thisIndex'
p2592
g2413
sS'stim.thisRepN'
p2593
I0
sg25
g30
sg2415
g489
sS'trials.thisRepN'
p2594
I2
sS'trials.thisN'
p2595
I2
sg2418
g55
(g79
S'\t\x00\x00\x00\x00\x00\x00\x00'
p2596
tp2597
Rp2598
sg24
g11
sS'trials.thisTrialN'
p2599
I0
sS'block.thisIndex'
p2600
g1667
sg2424
g55
(g79
S'\x07\x00\x00\x00\x00\x00\x00\x00'
p2601
tp2602
Rp2603
sa(dp2604
S'block.thisTrialN'
p2605
I0
sS'stim.thisTrialN'
p2606
I9
sS'block.thisRepN'
p2607
I1
sg2398
g2399
sS'stim.thisIndex'
p2608
g55
(g59
S'\t\x00\x00\x00'
p2609
tp2610
Rp2611
sg31
NsS'block.thisN'
p2612
I1
sS'stim.thisN'
p2613
I9
sg2406
g2407
sg2408
g2409
sg21
g22
sg23
I2
sS'trials.thisIndex'
p2614
g2413
sS'stim.thisRepN'
p2615
I0
sg25
g30
sg2415
g74
sS'trials.thisRepN'
p2616
I2
sS'trials.thisN'
p2617
I2
sg2418
g55
(g79
S'\n\x00\x00\x00\x00\x00\x00\x00'
p2618
tp2619
Rp2620
sg24
g11
sS'trials.thisTrialN'
p2621
I0
sS'block.thisIndex'
p2622
g1667
sg2424
g55
(g79
S'\x07\x00\x00\x00\x00\x00\x00\x00'
p2623
tp2624
Rp2625
sa(dp2626
S'block.thisTrialN'
p2627
I0
sS'stim.thisTrialN'
p2628
I10
sS'block.thisRepN'
p2629
I1
sg2398
g2399
sS'stim.thisIndex'
p2630
g55
(g59
S'\n\x00\x00\x00'
p2631
tp2632
Rp2633
sg31
NsS'block.thisN'
p2634
I1
sS'stim.thisN'
p2635
I10
sg2406
g2407
sg2408
g2409
sg21
g22
sg23
I2
sS'trials.thisIndex'
p2636
g2413
sS'stim.thisRepN'
p2637
I0
sg25
g30
sg2415
g105
sS'trials.thisRepN'
p2638
I2
sS'trials.thisN'
p2639
I2
sg2418
g55
(g79
S'\x0b\x00\x00\x00\x00\x00\x00\x00'
p2640
tp2641
Rp2642
sg24
g11
sS'trials.thisTrialN'
p2643
I0
sS'block.thisIndex'
p2644
g1667
sg2424
g55
(g79
S'\x07\x00\x00\x00\x00\x00\x00\x00'
p2645
tp2646
Rp2647
sa(dp2648
S'block.thisTrialN'
p2649
I0
sS'stim.thisTrialN'
p2650
I11
sS'block.thisRepN'
p2651
I1
sg2398
g2399
sS'stim.thisIndex'
p2652
g55
(g59
S'\x0b\x00\x00\x00'
p2653
tp2654
Rp2655
sg31
NsS'block.thisN'
p2656
I1
sS'stim.thisN'
p2657
I11
sg2406
g2407
sg2408
Vtarget
p2658
sg21
g22
sg23
I2
sS'trials.thisIndex'
p2659
g2413
sS'stim.thisRepN'
p2660
I0
sg25
g30
sg2415
g399
sS'trials.thisRepN'
p2661
I2
sS'trials.thisN'
p2662
I2
sg2418
g55
(g79
S'\x0c\x00\x00\x00\x00\x00\x00\x00'
p2663
tp2664
Rp2665
sg24
g11
sS'trials.thisTrialN'
p2666
I0
sS'block.thisIndex'
p2667
g1667
sg2424
g55
(g79
S'\x07\x00\x00\x00\x00\x00\x00\x00'
p2668
tp2669
Rp2670
sa(dp2671
S'block.thisTrialN'
p2672
I0
sS'stim.thisTrialN'
p2673
I12
sS'block.thisRepN'
p2674
I1
sg2398
g2399
sS'stim.thisIndex'
p2675
g55
(g59
S'\x0c\x00\x00\x00'
p2676
tp2677
Rp2678
sg31
NsS'block.thisN'
p2679
I1
sS'stim.thisN'
p2680
I12
sg2406
g2407
sg2408
g2409
sg21
g22
sg23
I2
sS'trials.thisIndex'
p2681
g2413
sS'stim.thisRepN'
p2682
I0
sg25
g30
sg2415
g1296
sS'trials.thisRepN'
p2683
I2
sS'trials.thisN'
p2684
I2
sg2418
g55
(g79
S'\r\x00\x00\x00\x00\x00\x00\x00'
p2685
tp2686
Rp2687
sg24
g11
sS'trials.thisTrialN'
p2688
I0
sS'block.thisIndex'
p2689
g1667
sg2424
g55
(g79
S'\x07\x00\x00\x00\x00\x00\x00\x00'
p2690
tp2691
Rp2692
sa(dp2693
S'block.thisTrialN'
p2694
I0
sS'stim.thisTrialN'
p2695
I13
sS'block.thisRepN'
p2696
I1
sg2398
g2399
sS'stim.thisIndex'
p2697
g55
(g59
S'\r\x00\x00\x00'
p2698
tp2699
Rp2700
sg31
NsS'block.thisN'
p2701
I1
sS'stim.thisN'
p2702
I13
sg2406
g2407
sg2408
g2409
sg21
g22
sg23
I2
sS'trials.thisIndex'
p2703
g2413
sS'stim.thisRepN'
p2704
I0
sg25
g30
sg2415
g1475
sS'trials.thisRepN'
p2705
I2
sS'trials.thisN'
p2706
I2
sg2418
g55
(g79
S'\x0e\x00\x00\x00\x00\x00\x00\x00'
p2707
tp2708
Rp2709
sg24
g11
sS'trials.thisTrialN'
p2710
I0
sS'block.thisIndex'
p2711
g1667
sg2424
g55
(g79
S'\x07\x00\x00\x00\x00\x00\x00\x00'
p2712
tp2713
Rp2714
sa(dp2715
S'block.thisTrialN'
p2716
I0
sS'stim.thisTrialN'
p2717
I14
sS'block.thisRepN'
p2718
I1
sg2398
g2399
sS'stim.thisIndex'
p2719
g55
(g59
S'\x0e\x00\x00\x00'
p2720
tp2721
Rp2722
sg31
NsS'block.thisN'
p2723
I1
sS'stim.thisN'
p2724
I14
sg2406
g2407
sg2408
g2409
sg21
g22
sg23
I2
sS'trials.thisIndex'
p2725
g2413
sS'stim.thisRepN'
p2726
I0
sg25
g30
sg2415
g602
sS'trials.thisRepN'
p2727
I2
sS'trials.thisN'
p2728
I2
sg2418
g55
(g79
S'\x0f\x00\x00\x00\x00\x00\x00\x00'
p2729
tp2730
Rp2731
sg24
g11
sS'trials.thisTrialN'
p2732
I0
sS'block.thisIndex'
p2733
g1667
sg2424
g55
(g79
S'\x07\x00\x00\x00\x00\x00\x00\x00'
p2734
tp2735
Rp2736
sa(dp2737
S'block.thisTrialN'
p2738
I0
sS'stim.thisTrialN'
p2739
I15
sS'block.thisRepN'
p2740
I1
sg2398
g2399
sS'stim.thisIndex'
p2741
g55
(g59
S'\x0f\x00\x00\x00'
p2742
tp2743
Rp2744
sg31
NsS'block.thisN'
p2745
I1
sS'stim.thisN'
p2746
I15
sg2406
g2407
sg2408
g2409
sg21
g22
sg23
I2
sS'trials.thisIndex'
p2747
g2413
sS'stim.thisRepN'
p2748
I0
sg25
g30
sg2415
g1008
sS'trials.thisRepN'
p2749
I2
sS'trials.thisN'
p2750
I2
sg2418
g55
(g79
S'\x10\x00\x00\x00\x00\x00\x00\x00'
p2751
tp2752
Rp2753
sg24
g11
sS'trials.thisTrialN'
p2754
I0
sS'block.thisIndex'
p2755
g1667
sg2424
g55
(g79
S'\x07\x00\x00\x00\x00\x00\x00\x00'
p2756
tp2757
Rp2758
sa(dp2759
S'block.thisTrialN'
p2760
I0
sS'stim.thisTrialN'
p2761
I16
sS'block.thisRepN'
p2762
I1
sg2398
g2399
sS'stim.thisIndex'
p2763
g55
(g59
S'\x10\x00\x00\x00'
p2764
tp2765
Rp2766
sg31
NsS'block.thisN'
p2767
I1
sS'stim.thisN'
p2768
I16
sg2406
g2407
sg2408
Vmask
p2769
sg21
g22
sg23
I2
sS'trials.thisIndex'
p2770
g2413
sS'stim.thisRepN'
p2771
I0
sg25
g30
sg2415
g671
sS'trials.thisRepN'
p2772
I2
sS'trials.thisN'
p2773
I2
sg2418
g55
(g79
S'\x11\x00\x00\x00\x00\x00\x00\x00'
p2774
tp2775
Rp2776
sg24
g11
sS'trials.thisTrialN'
p2777
I0
sS'block.thisIndex'
p2778
g1667
sg2424
g55
(g79
S'\x07\x00\x00\x00\x00\x00\x00\x00'
p2779
tp2780
Rp2781
sa(dp2782
S'block.thisTrialN'
p2783
I0
sS'stim.thisTrialN'
p2784
I17
sS'block.thisRepN'
p2785
I1
sg2398
g2399
sS'stim.thisIndex'
p2786
g55
(g59
S'\x11\x00\x00\x00'
p2787
tp2788
Rp2789
sg31
NsS'block.thisN'
p2790
I1
sS'stim.thisN'
p2791
I17
sg2406
g2407
sg2408
g2409
sg21
g22
sg23
I2
sS'trials.thisIndex'
p2792
g2413
sS'stim.thisRepN'
p2793
I0
sg25
g30
sg2415
g1475
sS'trials.thisRepN'
p2794
I2
sS'trials.thisN'
p2795
I2
sg2418
g55
(g79
S'\x12\x00\x00\x00\x00\x00\x00\x00'
p2796
tp2797
Rp2798
sg24
g11
sS'trials.thisTrialN'
p2799
I0
sS'block.thisIndex'
p2800
g1667
sg2424
g55
(g79
S'\x07\x00\x00\x00\x00\x00\x00\x00'
p2801
tp2802
Rp2803
sa(dp2804
S'block.thisTrialN'
p2805
I0
sS'block.thisRepN'
p2806
I1
sg16
g841
sS'trials.thisRepN'
p2807
I2
sg15
F0.41459779999968305
sg25
g30
sS'block.thisN'
p2808
I1
sg31
NsS'trials.thisN'
p2809
I2
sg14
g841
sg24
g11
sS'trials.thisTrialN'
p2810
I0
sS'trials.thisIndex'
p2811
g2413
sg21
g22
sg23
I2
sS'block.thisIndex'
p2812
g1667
sg17
F0.15481270000054792
sa(dp2813
S'block.thisTrialN'
p2814
I0
sS'stim.thisTrialN'
p2815
I0
sS'block.thisRepN'
p2816
I1
sS'Tx'
p2817
Vt1
p2818
sS'stim.thisIndex'
p2819
g55
(g59
S'\x00\x00\x00\x00'
p2820
tp2821
Rp2822
sg31
NsS'block.thisN'
p2823
I1
sS'stim.thisN'
p2824
I0
sS'sep_dur'
p2825
Vshort
p2826
sS'cond'
p2827
Vtarget
p2828
sg21
g22
sg23
I2
sS'trials.thisIndex'
p2829
g55
(g59
S'\x00\x00\x00\x00'
p2830
tp2831
Rp2832
sS'stim.thisRepN'
p2833
I0
sg25
g30
sS'stimulus'
p2834
V3
p2835
sS'trials.thisRepN'
p2836
I3
sS'trials.thisN'
p2837
I3
sS'trial'
p2838
g55
(g79
S'\x01\x00\x00\x00\x00\x00\x00\x00'
p2839
tp2840
Rp2841
sg24
g11
sS'trials.thisTrialN'
p2842
I0
sS'block.thisIndex'
p2843
g1667
sS'block'
p2844
g55
(g79
S'\x08\x00\x00\x00\x00\x00\x00\x00'
p2845
tp2846
Rp2847
sa(dp2848
S'block.thisTrialN'
p2849
I0
sS'stim.thisTrialN'
p2850
I1
sS'block.thisRepN'
p2851
I1
sg2817
g2818
sS'stim.thisIndex'
p2852
g55
(g59
S'\x01\x00\x00\x00'
p2853
tp2854
Rp2855
sg31
NsS'block.thisN'
p2856
I1
sS'stim.thisN'
p2857
I1
sg2825
g2826
sg2827
Vdistractor
p2858
sg21
g22
sg23
I2
sS'trials.thisIndex'
p2859
g2832
sS'stim.thisRepN'
p2860
I0
sg25
g30
sg2834
g464
sS'trials.thisRepN'
p2861
I3
sS'trials.thisN'
p2862
I3
sg2838
g55
(g79
S'\x02\x00\x00\x00\x00\x00\x00\x00'
p2863
tp2864
Rp2865
sg24
g11
sS'trials.thisTrialN'
p2866
I0
sS'block.thisIndex'
p2867
g1667
sg2844
g55
(g79
S'\x08\x00\x00\x00\x00\x00\x00\x00'
p2868
tp2869
Rp2870
sa(dp2871
S'block.thisTrialN'
p2872
I0
sS'stim.thisTrialN'
p2873
I2
sS'block.thisRepN'
p2874
I1
sg2817
g2818
sS'stim.thisIndex'
p2875
g55
(g59
S'\x02\x00\x00\x00'
p2876
tp2877
Rp2878
sg31
NsS'block.thisN'
p2879
I1
sS'stim.thisN'
p2880
I2
sg2825
g2826
sg2827
g2858
sg21
g22
sg23
I2
sS'trials.thisIndex'
p2881
g2832
sS'stim.thisRepN'
p2882
I0
sg25
g30
sg2834
g332
sS'trials.thisRepN'
p2883
I3
sS'trials.thisN'
p2884
I3
sg2838
g55
(g79
S'\x03\x00\x00\x00\x00\x00\x00\x00'
p2885
tp2886
Rp2887
sg24
g11
sS'trials.thisTrialN'
p2888
I0
sS'block.thisIndex'
p2889
g1667
sg2844
g55
(g79
S'\x08\x00\x00\x00\x00\x00\x00\x00'
p2890
tp2891
Rp2892
sa(dp2893
S'block.thisTrialN'
p2894
I0
sS'stim.thisTrialN'
p2895
I3
sS'block.thisRepN'
p2896
I1
sg2817
g2818
sS'stim.thisIndex'
p2897
g55
(g59
S'\x03\x00\x00\x00'
p2898
tp2899
Rp2900
sg31
NsS'block.thisN'
p2901
I1
sS'stim.thisN'
p2902
I3
sg2825
g2826
sg2827
g2858
sg21
g22
sg23
I2
sS'trials.thisIndex'
p2903
g2832
sS'stim.thisRepN'
p2904
I0
sg25
g30
sg2834
g128
sS'trials.thisRepN'
p2905
I3
sS'trials.thisN'
p2906
I3
sg2838
g55
(g79
S'\x04\x00\x00\x00\x00\x00\x00\x00'
p2907
tp2908
Rp2909
sg24
g11
sS'trials.thisTrialN'
p2910
I0
sS'block.thisIndex'
p2911
g1667
sg2844
g55
(g79
S'\x08\x00\x00\x00\x00\x00\x00\x00'
p2912
tp2913
Rp2914
sa(dp2915
S'block.thisTrialN'
p2916
I0
sS'stim.thisTrialN'
p2917
I4
sS'block.thisRepN'
p2918
I1
sg2817
g2818
sS'stim.thisIndex'
p2919
g55
(g59
S'\x04\x00\x00\x00'
p2920
tp2921
Rp2922
sg31
NsS'block.thisN'
p2923
I1
sS'stim.thisN'
p2924
I4
sg2825
g2826
sg2827
g2858
sg21
g22
sg23
I2
sS'trials.thisIndex'
p2925
g2832
sS'stim.thisRepN'
p2926
I0
sg25
g30
sg2834
g1475
sS'trials.thisRepN'
p2927
I3
sS'trials.thisN'
p2928
I3
sg2838
g55
(g79
S'\x05\x00\x00\x00\x00\x00\x00\x00'
p2929
tp2930
Rp2931
sg24
g11
sS'trials.thisTrialN'
p2932
I0
sS'block.thisIndex'
p2933
g1667
sg2844
g55
(g79
S'\x08\x00\x00\x00\x00\x00\x00\x00'
p2934
tp2935
Rp2936
sa(dp2937
S'block.thisTrialN'
p2938
I0
sS'stim.thisTrialN'
p2939
I5
sS'block.thisRepN'
p2940
I1
sg2817
g2818
sS'stim.thisIndex'
p2941
g55
(g59
S'\x05\x00\x00\x00'
p2942
tp2943
Rp2944
sg31
NsS'block.thisN'
p2945
I1
sS'stim.thisN'
p2946
I5
sg2825
g2826
sg2827
Vmask
p2947
sg21
g22
sg23
I2
sS'trials.thisIndex'
p2948
g2832
sS'stim.thisRepN'
p2949
I0
sg25
g30
sg2834
g671
sS'trials.thisRepN'
p2950
I3
sS'trials.thisN'
p2951
I3
sg2838
g55
(g79
S'\x06\x00\x00\x00\x00\x00\x00\x00'
p2952
tp2953
Rp2954
sg24
g11
sS'trials.thisTrialN'
p2955
I0
sS'block.thisIndex'
p2956
g1667
sg2844
g55
(g79
S'\x08\x00\x00\x00\x00\x00\x00\x00'
p2957
tp2958
Rp2959
sa(dp2960
S'block.thisTrialN'
p2961
I0
sS'stim.thisTrialN'
p2962
I6
sS'block.thisRepN'
p2963
I1
sg2817
g2818
sS'stim.thisIndex'
p2964
g55
(g59
S'\x06\x00\x00\x00'
p2965
tp2966
Rp2967
sg31
NsS'block.thisN'
p2968
I1
sS'stim.thisN'
p2969
I6
sg2825
g2826
sg2827
g2858
sg21
g22
sg23
I2
sS'trials.thisIndex'
p2970
g2832
sS'stim.thisRepN'
p2971
I0
sg25
g30
sg2834
g489
sS'trials.thisRepN'
p2972
I3
sS'trials.thisN'
p2973
I3
sg2838
g55
(g79
S'\x07\x00\x00\x00\x00\x00\x00\x00'
p2974
tp2975
Rp2976
sg24
g11
sS'trials.thisTrialN'
p2977
I0
sS'block.thisIndex'
p2978
g1667
sg2844
g55
(g79
S'\x08\x00\x00\x00\x00\x00\x00\x00'
p2979
tp2980
Rp2981
sa(dp2982
S'block.thisTrialN'
p2983
I0
sS'stim.thisTrialN'
p2984
I7
sS'block.thisRepN'
p2985
I1
sg2817
g2818
sS'stim.thisIndex'
p2986
g55
(g59
S'\x07\x00\x00\x00'
p2987
tp2988
Rp2989
sg31
NsS'block.thisN'
p2990
I1
sS'stim.thisN'
p2991
I7
sg2825
g2826
sg2827
g2858
sg21
g22
sg23
I2
sS'trials.thisIndex'
p2992
g2832
sS'stim.thisRepN'
p2993
I0
sg25
g30
sg2834
g1475
sS'trials.thisRepN'
p2994
I3
sS'trials.thisN'
p2995
I3
sg2838
g55
(g79
S'\x08\x00\x00\x00\x00\x00\x00\x00'
p2996
tp2997
Rp2998
sg24
g11
sS'trials.thisTrialN'
p2999
I0
sS'block.thisIndex'
p3000
g1667
sg2844
g55
(g79
S'\x08\x00\x00\x00\x00\x00\x00\x00'
p3001
tp3002
Rp3003
sa(dp3004
S'block.thisTrialN'
p3005
I0
sS'stim.thisTrialN'
p3006
I8
sS'block.thisRepN'
p3007
I1
sg2817
g2818
sS'stim.thisIndex'
p3008
g55
(g59
S'\x08\x00\x00\x00'
p3009
tp3010
Rp3011
sg31
NsS'block.thisN'
p3012
I1
sS'stim.thisN'
p3013
I8
sg2825
g2826
sg2827
g2858
sg21
g22
sg23
I2
sS'trials.thisIndex'
p3014
g2832
sS'stim.thisRepN'
p3015
I0
sg25
g30
sg2834
g647
sS'trials.thisRepN'
p3016
I3
sS'trials.thisN'
p3017
I3
sg2838
g55
(g79
S'\t\x00\x00\x00\x00\x00\x00\x00'
p3018
tp3019
Rp3020
sg24
g11
sS'trials.thisTrialN'
p3021
I0
sS'block.thisIndex'
p3022
g1667
sg2844
g55
(g79
S'\x08\x00\x00\x00\x00\x00\x00\x00'
p3023
tp3024
Rp3025
sa(dp3026
S'block.thisTrialN'
p3027
I0
sS'stim.thisTrialN'
p3028
I9
sS'block.thisRepN'
p3029
I1
sg2817
g2818
sS'stim.thisIndex'
p3030
g55
(g59
S'\t\x00\x00\x00'
p3031
tp3032
Rp3033
sg31
NsS'block.thisN'
p3034
I1
sS'stim.thisN'
p3035
I9
sg2825
g2826
sg2827
g2858
sg21
g22
sg23
I2
sS'trials.thisIndex'
p3036
g2832
sS'stim.thisRepN'
p3037
I0
sg25
g30
sg2834
g1296
sS'trials.thisRepN'
p3038
I3
sS'trials.thisN'
p3039
I3
sg2838
g55
(g79
S'\n\x00\x00\x00\x00\x00\x00\x00'
p3040
tp3041
Rp3042
sg24
g11
sS'trials.thisTrialN'
p3043
I0
sS'block.thisIndex'
p3044
g1667
sg2844
g55
(g79
S'\x08\x00\x00\x00\x00\x00\x00\x00'
p3045
tp3046
Rp3047
sa(dp3048
S'block.thisTrialN'
p3049
I0
sS'stim.thisTrialN'
p3050
I10
sS'block.thisRepN'
p3051
I1
sg2817
g2818
sS'stim.thisIndex'
p3052
g55
(g59
S'\n\x00\x00\x00'
p3053
tp3054
Rp3055
sg31
NsS'block.thisN'
p3056
I1
sS'stim.thisN'
p3057
I10
sg2825
g2826
sg2827
g2858
sg21
g22
sg23
I2
sS'trials.thisIndex'
p3058
g2832
sS'stim.thisRepN'
p3059
I0
sg25
g30
sg2834
g489
sS'trials.thisRepN'
p3060
I3
sS'trials.thisN'
p3061
I3
sg2838
g55
(g79
S'\x0b\x00\x00\x00\x00\x00\x00\x00'
p3062
tp3063
Rp3064
sg24
g11
sS'trials.thisTrialN'
p3065
I0
sS'block.thisIndex'
p3066
g1667
sg2844
g55
(g79
S'\x08\x00\x00\x00\x00\x00\x00\x00'
p3067
tp3068
Rp3069
sa(dp3070
S'block.thisTrialN'
p3071
I0
sS'stim.thisTrialN'
p3072
I11
sS'block.thisRepN'
p3073
I1
sg2817
g2818
sS'stim.thisIndex'
p3074
g55
(g59
S'\x0b\x00\x00\x00'
p3075
tp3076
Rp3077
sg31
NsS'block.thisN'
p3078
I1
sS'stim.thisN'
p3079
I11
sg2825
g2826
sg2827
g2858
sg21
g22
sg23
I2
sS'trials.thisIndex'
p3080
g2832
sS'stim.thisRepN'
p3081
I0
sg25
g30
sg2834
g1053
sS'trials.thisRepN'
p3082
I3
sS'trials.thisN'
p3083
I3
sg2838
g55
(g79
S'\x0c\x00\x00\x00\x00\x00\x00\x00'
p3084
tp3085
Rp3086
sg24
g11
sS'trials.thisTrialN'
p3087
I0
sS'block.thisIndex'
p3088
g1667
sg2844
g55
(g79
S'\x08\x00\x00\x00\x00\x00\x00\x00'
p3089
tp3090
Rp3091
sa(dp3092
S'block.thisTrialN'
p3093
I0
sS'stim.thisTrialN'
p3094
I12
sS'block.thisRepN'
p3095
I1
sg2817
g2818
sS'stim.thisIndex'
p3096
g55
(g59
S'\x0c\x00\x00\x00'
p3097
tp3098
Rp3099
sg31
NsS'block.thisN'
p3100
I1
sS'stim.thisN'
p3101
I12
sg2825
g2826
sg2827
g2858
sg21
g22
sg23
I2
sS'trials.thisIndex'
p3102
g2832
sS'stim.thisRepN'
p3103
I0
sg25
g30
sg2834
g264
sS'trials.thisRepN'
p3104
I3
sS'trials.thisN'
p3105
I3
sg2838
g55
(g79
S'\r\x00\x00\x00\x00\x00\x00\x00'
p3106
tp3107
Rp3108
sg24
g11
sS'trials.thisTrialN'
p3109
I0
sS'block.thisIndex'
p3110
g1667
sg2844
g55
(g79
S'\x08\x00\x00\x00\x00\x00\x00\x00'
p3111
tp3112
Rp3113
sa(dp3114
S'block.thisTrialN'
p3115
I0
sS'stim.thisTrialN'
p3116
I13
sS'block.thisRepN'
p3117
I1
sg2817
g2818
sS'stim.thisIndex'
p3118
g55
(g59
S'\r\x00\x00\x00'
p3119
tp3120
Rp3121
sg31
NsS'block.thisN'
p3122
I1
sS'stim.thisN'
p3123
I13
sg2825
g2826
sg2827
g2858
sg21
g22
sg23
I2
sS'trials.thisIndex'
p3124
g2832
sS'stim.thisRepN'
p3125
I0
sg25
g30
sg2834
g1656
sS'trials.thisRepN'
p3126
I3
sS'trials.thisN'
p3127
I3
sg2838
g55
(g79
S'\x0e\x00\x00\x00\x00\x00\x00\x00'
p3128
tp3129
Rp3130
sg24
g11
sS'trials.thisTrialN'
p3131
I0
sS'block.thisIndex'
p3132
g1667
sg2844
g55
(g79
S'\x08\x00\x00\x00\x00\x00\x00\x00'
p3133
tp3134
Rp3135
sa(dp3136
S'block.thisTrialN'
p3137
I0
sS'stim.thisTrialN'
p3138
I14
sS'block.thisRepN'
p3139
I1
sg2817
g2818
sS'stim.thisIndex'
p3140
g55
(g59
S'\x0e\x00\x00\x00'
p3141
tp3142
Rp3143
sg31
NsS'block.thisN'
p3144
I1
sS'stim.thisN'
p3145
I14
sg2825
g2826
sg2827
g2858
sg21
g22
sg23
I2
sS'trials.thisIndex'
p3146
g2832
sS'stim.thisRepN'
p3147
I0
sg25
g30
sg2834
g264
sS'trials.thisRepN'
p3148
I3
sS'trials.thisN'
p3149
I3
sg2838
g55
(g79
S'\x0f\x00\x00\x00\x00\x00\x00\x00'
p3150
tp3151
Rp3152
sg24
g11
sS'trials.thisTrialN'
p3153
I0
sS'block.thisIndex'
p3154
g1667
sg2844
g55
(g79
S'\x08\x00\x00\x00\x00\x00\x00\x00'
p3155
tp3156
Rp3157
sa(dp3158
S'block.thisTrialN'
p3159
I0
sS'stim.thisTrialN'
p3160
I15
sS'block.thisRepN'
p3161
I1
sg2817
g2818
sS'stim.thisIndex'
p3162
g55
(g59
S'\x0f\x00\x00\x00'
p3163
tp3164
Rp3165
sg31
NsS'block.thisN'
p3166
I1
sS'stim.thisN'
p3167
I15
sg2825
g2826
sg2827
g2858
sg21
g22
sg23
I2
sS'trials.thisIndex'
p3168
g2832
sS'stim.thisRepN'
p3169
I0
sg25
g30
sg2834
g1475
sS'trials.thisRepN'
p3170
I3
sS'trials.thisN'
p3171
I3
sg2838
g55
(g79
S'\x10\x00\x00\x00\x00\x00\x00\x00'
p3172
tp3173
Rp3174
sg24
g11
sS'trials.thisTrialN'
p3175
I0
sS'block.thisIndex'
p3176
g1667
sg2844
g55
(g79
S'\x08\x00\x00\x00\x00\x00\x00\x00'
p3177
tp3178
Rp3179
sa(dp3180
S'block.thisTrialN'
p3181
I0
sS'stim.thisTrialN'
p3182
I16
sS'block.thisRepN'
p3183
I1
sg2817
g2818
sS'stim.thisIndex'
p3184
g55
(g59
S'\x10\x00\x00\x00'
p3185
tp3186
Rp3187
sg31
NsS'block.thisN'
p3188
I1
sS'stim.thisN'
p3189
I16
sg2825
g2826
sg2827
g2858
sg21
g22
sg23
I2
sS'trials.thisIndex'
p3190
g2832
sS'stim.thisRepN'
p3191
I0
sg25
g30
sg2834
g105
sS'trials.thisRepN'
p3192
I3
sS'trials.thisN'
p3193
I3
sg2838
g55
(g79
S'\x11\x00\x00\x00\x00\x00\x00\x00'
p3194
tp3195
Rp3196
sg24
g11
sS'trials.thisTrialN'
p3197
I0
sS'block.thisIndex'
p3198
g1667
sg2844
g55
(g79
S'\x08\x00\x00\x00\x00\x00\x00\x00'
p3199
tp3200
Rp3201
sa(dp3202
S'block.thisTrialN'
p3203
I0
sS'block.thisRepN'
p3204
I1
sg16
g841
sS'trials.thisRepN'
p3205
I3
sg15
F0.63547970000036
sg25
g30
sS'block.thisN'
p3206
I1
sg31
NsS'trials.thisN'
p3207
I3
sg14
g841
sg24
g11
sS'trials.thisTrialN'
p3208
I0
sS'trials.thisIndex'
p3209
g2832
sg21
g22
sg23
I2
sS'block.thisIndex'
p3210
g1667
sg17
F0.20445650000146998
sa(dp3211
S'block.thisTrialN'
p3212
I0
sS'block.thisRepN'
p3213
I1
sg31
Nsg25
g30
sS'block.thisN'
p3214
I1
sg24
g11
sg21
g22
sg23
I2
sS'block.thisIndex'
p3215
g1667
sasS'loops'
p3216
(lp3217
g0
(cpsychopy.data.trial
TrialHandler
p3218
g2
Ntp3219
Rp3220
(dp3221
S'origin'
p3222
NsS'thisTrial'
p3223
(lp3224
sS'_exp'
p3225
I516546032
sg10
S'block'
p3226
sg6
I-1
sS'thisRepN'
p3227
I2
sg18
I01
sg19
g20
sS'data'
p3228
g0
(cpsychopy.data.base
DataHandler
p3229
c__builtin__
dict
p3230
(dp3231
S'ran'
p3232
cnumpy.ma.core
_mareconstruct
p3233
(cnumpy.ma.core
MaskedArray
p3234
cnumpy
ndarray
p3235
(I0
tp3236
S'b'
p3237
tp3238
Rp3239
(I1
(I1
I2
tp3240
g56
(S'f4'
p3241
I0
I1
tp3242
Rp3243
(I3
S'<'
p3244
NNNI-1
I-1
I0
tp3245
bI00
S'\x00\x00\x80?\x00\x00\x80?'
p3246
S'\x00\x00'
p3247
Ntp3248
bsS'order'
p3249
g3233
(g3234
g3235
g3236
g3237
tp3250
Rp3251
(I1
(I1
I2
tp3252
g3243
I00
S'\x00\x00\x00\x00\x00\x00\x80?'
p3253
S'\x00\x00'
p3254
Ntp3255
bstp3256
Rp3257
(dp3258
S'isNumeric'
p3259
(dp3260
g3232
I01
sg3249
I01
ssS'trials'
p3261
g3220
sS'dataTypes'
p3262
(lp3263
g3232
ag3249
asS'dataShape'
p3264
(lp3265
I1
aI2
asbsS'method'
p3266
S'random'
p3267
sS'sequenceIndices'
p3268
cnumpy.core.multiarray
_reconstruct
p3269
(g3235
(I0
tp3270
g3237
tp3271
Rp3272
(I1
(I1
I2
tp3273
g59
I00
S'\x00\x00\x00\x00\x00\x00\x00\x00'
p3274
tp3275
bsS'finished'
p3276
I01
sS'nReps'
p3277
I2
sS'nRemaining'
p3278
I-1
sS'trialList'
p3279
(lp3280
NasS'seed'
p3281
NsS'thisIndex'
p3282
g1667
sS'thisN'
p3283
I2
sS'thisTrialN'
p3284
I0
sS'nTotal'
p3285
I2
sbag0
(g3218
g2
Ntp3286
Rp3287
(dp3288
g3222
Nsg3223
(lp3289
sg3225
I516546032
sg10
g3261
sg6
I-1
sg3227
I4
sg18
I01
sg19
g20
sg3228
g0
(g3229
g3230
(dp3290
g14
g3269
(g3235
(I0
tp3291
g3237
tp3292
Rp3293
(I1
(I1
I4
tp3294
g56
(S'O4'
p3295
I0
I1
tp3296
Rp3297
(I3
S'|'
p3298
NNNI-1
I-1
I63
tp3299
bI00
(lp3300
g435
ag841
ag1199
ag1199
atp3301
bsg16
g3269
(g3235
(I0
tp3302
g3237
tp3303
Rp3304
(I1
(I1
I4
tp3305
g3297
I00
(lp3306
g435
ag841
ag1199
ag1199
atp3307
bsg3232
g3233
(g3234
g3235
g3236
g3237
tp3308
Rp3309
(I1
(I1
I4
tp3310
g3243
I00
S'\x00\x00\x80?\x00\x00\x80?\x00\x00\x80?\x00\x00\x80?'
p3311
S'\x00\x00\x00\x00'
p3312
Ntp3313
bsg15
g3233
(g3234
g3235
g3236
g3237
tp3314
Rp3315
(I1
(I1
I4
tp3316
g3243
I00
S'\xac\xc6\xd2>\xfaz\xb7>\x0f\xd1\xb0>\xe2$\xc8>'
p3317
S'\x00\x00\x00\x00'
p3318
Ntp3319
bsg3249
g3233
(g3234
g3235
g3236
g3237
tp3320
Rp3321
(I1
(I1
I4
tp3322
g3243
I00
S'\x00\x00\x00\x00\x00\x00\x80?\x00\x00\x00@\x00\x00@@'
p3323
S'\x00\x00\x00\x00'
p3324
Ntp3325
bsg17
g3233
(g3234
g3235
g3236
g3237
tp3326
Rp3327
(I1
(I1
I4
tp3328
g3243
I00
S'\xc6\xc4V>\x18<Q>=\xb1K>\x04w#>'
p3329
S'\x00\x00\x00\x00'
p3330
Ntp3331
bstp3332
Rp3333
(dp3334
g3259
(dp3335
g16
I00
sg3232
I01
sg15
I01
sg14
I00
sg3249
I01
sg17
I01
ssg3261
g3287
sg3262
(lp3336
g3232
ag3249
ag14
ag15
ag16
ag17
asg3264
(lp3337
I1
aI4
asbsg3266
S'sequential'
p3338
sg3268
g3269
(g3235
(I0
tp3339
g3237
tp3340
Rp3341
(I1
(I1
I4
tp3342
g59
I00
S'\x00\x00\x00\x00\x00\x00\x00\x00\x00\x00\x00\x00\x00\x00\x00\x00'
p3343
tp3344
bsg3276
I01
sg3277
I4
sg3278
I-1
sg3279
(lp3345
Nasg3281
Nsg3282
g1225
sg3283
I4
sg3284
I0
sg3285
I4
sbag0
(g3218
g2
Ntp3346
Rp3347
(dp3348
g3222
Nsg3223
(lp3349
sg3225
I516546032
sg10
S'stim'
p3350
sg6
I-1
sg3227
I1
sg18
I01
sg19
g20
sg3228
g0
(g3229
g3230
(dp3351
g3232
g3233
(g3234
g3235
g3236
g3237
tp3352
Rp3353
(I1
(I16
I1
tp3354
g3243
I00
S'\x00\x00\x80?\x00\x00\x80?\x00\x00\x80?\x00\x00\x80?\x00\x00\x80?\x00\x00\x80?\x00\x00\x80?\x00\x00\x80?\x00\x00\x80?\x00\x00\x80?\x00\x00\x80?\x00\x00\x80?\x00\x00\x80?\x00\x00\x80?\x00\x00\x80?\x00\x00\x80?'
p3355
S'\x00\x00\x00\x00\x00\x00\x00\x00\x00\x00\x00\x00\x00\x00\x00\x00'
p3356
Ntp3357
bsg3249
g3233
(g3234
g3235
g3236
g3237
tp3358
Rp3359
(I1
(I16
I1
tp3360
g3243
I00
S'\x00\x00\x00\x00\x00\x00\x80?\x00\x00\x00@\x00\x00@@\x00\x00\x80@\x00\x00\xa0@\x00\x00\xc0@\x00\x00\xe0@\x00\x00\x00A\x00\x00\x10A\x00\x00 A\x00\x000A\x00\x00@A\x00\x00PA\x00\x00`A\x00\x00pA'
p3361
S'\x00\x00\x00\x00\x00\x00\x00\x00\x00\x00\x00\x00\x00\x00\x00\x00'
p3362
Ntp3363
bstp3364
Rp3365
(dp3366
g3259
(dp3367
g3232
I01
sg3249
I01
ssg3261
g3347
sg3262
(lp3368
g3232
ag3249
asg3264
(lp3369
I16
aI1
asbsg3266
g3338
sg3268
g3269
(g3235
(I0
tp3370
g3237
tp3371
Rp3372
(I1
(I16
I1
tp3373
g59
I00
S'\x00\x00\x00\x00\x01\x00\x00\x00\x02\x00\x00\x00\x03\x00\x00\x00\x04\x00\x00\x00\x05\x00\x00\x00\x06\x00\x00\x00\x07\x00\x00\x00\x08\x00\x00\x00\t\x00\x00\x00\n\x00\x00\x00\x0b\x00\x00\x00\x0c\x00\x00\x00\r\x00\x00\x00\x0e\x00\x00\x00\x0f\x00\x00\x00'
p3374
tp3375
bsg3276
I01
sg3277
I1
sg3278
I-1
sg3279
(lp3376
ccollections
OrderedDict
p3377
((lp3378
(lp3379
g41
ag92
aa(lp3380
g42
ag67
aa(lp3381
g43
ag53
aa(lp3382
g44
ag84
aa(lp3383
g45
ag74
aa(lp3384
g46
ag68
aatp3385
Rp3386
ag3377
((lp3387
(lp3388
g41
ag115
aa(lp3389
g42
ag67
aa(lp3390
g43
ag53
aa(lp3391
g44
ag110
aa(lp3392
g45
ag105
aa(lp3393
g46
ag68
aatp3394
Rp3395
ag3377
((lp3396
(lp3397
g41
ag138
aa(lp3398
g42
ag67
aa(lp3399
g43
ag53
aa(lp3400
g44
ag133
aa(lp3401
g45
ag128
aa(lp3402
g46
ag68
aatp3403
Rp3404
ag3377
((lp3405
(lp3406
g41
ag161
aa(lp3407
g42
ag67
aa(lp3408
g43
ag53
aa(lp3409
g44
ag156
aa(lp3410
g45
ag151
aa(lp3411
g46
ag68
aatp3412
Rp3413
ag3377
((lp3414
(lp3415
g41
ag183
aa(lp3416
g42
ag67
aa(lp3417
g43
ag53
aa(lp3418
g44
ag178
aa(lp3419
g45
ag128
aa(lp3420
g46
ag68
aatp3421
Rp3422
ag3377
((lp3423
(lp3424
g41
ag207
aa(lp3425
g42
ag67
aa(lp3426
g43
ag53
aa(lp3427
g44
ag202
aa(lp3428
g45
ag197
aa(lp3429
g46
ag194
aatp3430
Rp3431
ag3377
((lp3432
(lp3433
g41
ag229
aa(lp3434
g42
ag67
aa(lp3435
g43
ag53
aa(lp3436
g44
ag224
aa(lp3437
g45
ag105
aa(lp3438
g46
ag68
aatp3439
Rp3440
ag3377
((lp3441
(lp3442
g41
ag251
aa(lp3443
g42
ag67
aa(lp3444
g43
ag53
aa(lp3445
g44
ag246
aa(lp3446
g45
ag128
aa(lp3447
g46
ag68
aatp3448
Rp3449
ag3377
((lp3450
(lp3451
g41
ag274
aa(lp3452
g42
ag67
aa(lp3453
g43
ag53
aa(lp3454
g44
ag269
aa(lp3455
g45
ag264
aa(lp3456
g46
ag68
aatp3457
Rp3458
ag3377
((lp3459
(lp3460
g41
ag296
aa(lp3461
g42
ag67
aa(lp3462
g43
ag53
aa(lp3463
g44
ag291
aa(lp3464
g45
ag151
aa(lp3465
g46
ag68
aatp3466
Rp3467
ag3377
((lp3468
(lp3469
g41
ag319
aa(lp3470
g42
ag67
aa(lp3471
g43
ag53
aa(lp3472
g44
ag314
aa(lp3473
g45
ag309
aa(lp3474
g46
ag68
aatp3475
Rp3476
ag3377
((lp3477
(lp3478
g41
ag342
aa(lp3479
g42
ag67
aa(lp3480
g43
ag53
aa(lp3481
g44
ag337
aa(lp3482
g45
ag332
aa(lp3483
g46
ag68
aatp3484
Rp3485
ag3377
((lp3486
(lp3487
g41
ag364
aa(lp3488
g42
ag67
aa(lp3489
g43
ag53
aa(lp3490
g44
ag359
aa(lp3491
g45
ag74
aa(lp3492
g46
ag68
aatp3493
Rp3494
ag3377
((lp3495
(lp3496
g41
ag386
aa(lp3497
g42
ag67
aa(lp3498
g43
ag53
aa(lp3499
g44
ag381
aa(lp3500
g45
ag264
aa(lp3501
g46
ag68
aatp3502
Rp3503
ag3377
((lp3504
(lp3505
g41
ag409
aa(lp3506
g42
ag67
aa(lp3507
g43
ag53
aa(lp3508
g44
ag404
aa(lp3509
g45
ag399
aa(lp3510
g46
ag194
aatp3511
Rp3512
ag3377
((lp3513
(lp3514
g41
ag431
aa(lp3515
g42
ag67
aa(lp3516
g43
ag53
aa(lp3517
g44
ag426
aa(lp3518
g45
ag309
aa(lp3519
g46
ag68
aatp3520
Rp3521
asg3281
Nsg3282
g417
sg3283
I16
sg3284
I0
sg3285
I16
sbag0
(g3218
g2
Ntp3522
Rp3523
(dp3524
g3222
Nsg3223
(lp3525
sg3225
I516546032
sg10
g3350
sg6
I-1
sg3227
I1
sg18
I01
sg19
g20
sg3228
g0
(g3229
g3230
(dp3526
g3232
g3233
(g3234
g3235
g3236
g3237
tp3527
Rp3528
(I1
(I17
I1
tp3529
g3243
I00
S'\x00\x00\x80?\x00\x00\x80?\x00\x00\x80?\x00\x00\x80?\x00\x00\x80?\x00\x00\x80?\x00\x00\x80?\x00\x00\x80?\x00\x00\x80?\x00\x00\x80?\x00\x00\x80?\x00\x00\x80?\x00\x00\x80?\x00\x00\x80?\x00\x00\x80?\x00\x00\x80?\x00\x00\x80?'
p3530
S'\x00\x00\x00\x00\x00\x00\x00\x00\x00\x00\x00\x00\x00\x00\x00\x00\x00'
p3531
Ntp3532
bsg3249
g3233
(g3234
g3235
g3236
g3237
tp3533
Rp3534
(I1
(I17
I1
tp3535
g3243
I00
S'\x00\x00\x00\x00\x00\x00\x80?\x00\x00\x00@\x00\x00@@\x00\x00\x80@\x00\x00\xa0@\x00\x00\xc0@\x00\x00\xe0@\x00\x00\x00A\x00\x00\x10A\x00\x00 A\x00\x000A\x00\x00@A\x00\x00PA\x00\x00`A\x00\x00pA\x00\x00\x80A'
p3536
S'\x00\x00\x00\x00\x00\x00\x00\x00\x00\x00\x00\x00\x00\x00\x00\x00\x00'
p3537
Ntp3538
bstp3539
Rp3540
(dp3541
g3259
(dp3542
g3232
I01
sg3249
I01
ssg3261
g3523
sg3262
(lp3543
g3232
ag3249
asg3264
(lp3544
I17
aI1
asbsg3266
g3338
sg3268
g3269
(g3235
(I0
tp3545
g3237
tp3546
Rp3547
(I1
(I17
I1
tp3548
g59
I00
S'\x00\x00\x00\x00\x01\x00\x00\x00\x02\x00\x00\x00\x03\x00\x00\x00\x04\x00\x00\x00\x05\x00\x00\x00\x06\x00\x00\x00\x07\x00\x00\x00\x08\x00\x00\x00\t\x00\x00\x00\n\x00\x00\x00\x0b\x00\x00\x00\x0c\x00\x00\x00\r\x00\x00\x00\x0e\x00\x00\x00\x0f\x00\x00\x00\x10\x00\x00\x00'
p3549
tp3550
bsg3276
I01
sg3277
I1
sg3278
I-1
sg3279
(lp3551
g3377
((lp3552
(lp3553
g473
ag476
aa(lp3554
g454
ag455
aa(lp3555
g446
ag447
aa(lp3556
g467
ag470
aa(lp3557
g463
ag464
aa(lp3558
g456
ag457
aatp3559
Rp3560
ag3377
((lp3561
(lp3562
g473
ag499
aa(lp3563
g454
ag455
aa(lp3564
g446
ag447
aa(lp3565
g467
ag494
aa(lp3566
g463
ag489
aa(lp3567
g456
ag457
aatp3568
Rp3569
ag3377
((lp3570
(lp3571
g473
ag522
aa(lp3572
g454
ag455
aa(lp3573
g446
ag447
aa(lp3574
g467
ag517
aa(lp3575
g463
ag512
aa(lp3576
g456
ag457
aatp3577
Rp3578
ag3377
((lp3579
(lp3580
g473
ag544
aa(lp3581
g454
ag455
aa(lp3582
g446
ag447
aa(lp3583
g467
ag539
aa(lp3584
g463
ag489
aa(lp3585
g456
ag457
aatp3586
Rp3587
ag3377
((lp3588
(lp3589
g473
ag567
aa(lp3590
g454
ag455
aa(lp3591
g446
ag447
aa(lp3592
g467
ag562
aa(lp3593
g463
ag399
aa(lp3594
g456
ag555
aatp3595
Rp3596
ag3377
((lp3597
(lp3598
g473
ag589
aa(lp3599
g454
ag455
aa(lp3600
g446
ag447
aa(lp3601
g467
ag584
aa(lp3602
g463
ag105
aa(lp3603
g456
ag457
aatp3604
Rp3605
ag3377
((lp3606
(lp3607
g473
ag612
aa(lp3608
g454
ag455
aa(lp3609
g446
ag447
aa(lp3610
g467
ag607
aa(lp3611
g463
ag602
aa(lp3612
g456
ag457
aatp3613
Rp3614
ag3377
((lp3615
(lp3616
g473
ag634
aa(lp3617
g454
ag455
aa(lp3618
g446
ag447
aa(lp3619
g467
ag629
aa(lp3620
g463
ag105
aa(lp3621
g456
ag457
aatp3622
Rp3623
ag3377
((lp3624
(lp3625
g473
ag657
aa(lp3626
g454
ag455
aa(lp3627
g446
ag447
aa(lp3628
g467
ag652
aa(lp3629
g463
ag647
aa(lp3630
g456
ag457
aatp3631
Rp3632
ag3377
((lp3633
(lp3634
g473
ag681
aa(lp3635
g454
ag455
aa(lp3636
g446
ag447
aa(lp3637
g467
ag676
aa(lp3638
g463
ag671
aa(lp3639
g456
ag668
aatp3640
Rp3641
ag3377
((lp3642
(lp3643
g473
ag703
aa(lp3644
g454
ag455
aa(lp3645
g446
ag447
aa(lp3646
g467
ag698
aa(lp3647
g463
ag489
aa(lp3648
g456
ag457
aatp3649
Rp3650
ag3377
((lp3651
(lp3652
g473
ag725
aa(lp3653
g454
ag455
aa(lp3654
g446
ag447
aa(lp3655
g467
ag720
aa(lp3656
g463
ag512
aa(lp3657
g456
ag457
aatp3658
Rp3659
ag3377
((lp3660
(lp3661
g473
ag748
aa(lp3662
g454
ag455
aa(lp3663
g446
ag447
aa(lp3664
g467
ag743
aa(lp3665
g463
ag738
aa(lp3666
g456
ag457
aatp3667
Rp3668
ag3377
((lp3669
(lp3670
g473
ag770
aa(lp3671
g454
ag455
aa(lp3672
g446
ag447
aa(lp3673
g467
ag765
aa(lp3674
g463
ag647
aa(lp3675
g456
ag457
aatp3676
Rp3677
ag3377
((lp3678
(lp3679
g473
ag792
aa(lp3680
g454
ag455
aa(lp3681
g446
ag447
aa(lp3682
g467
ag787
aa(lp3683
g463
ag309
aa(lp3684
g456
ag457
aatp3685
Rp3686
ag3377
((lp3687
(lp3688
g473
ag815
aa(lp3689
g454
ag455
aa(lp3690
g446
ag447
aa(lp3691
g467
ag810
aa(lp3692
g463
ag805
aa(lp3693
g456
ag457
aatp3694
Rp3695
ag3377
((lp3696
(lp3697
g473
ag837
aa(lp3698
g454
ag455
aa(lp3699
g446
ag447
aa(lp3700
g467
ag832
aa(lp3701
g463
ag264
aa(lp3702
g456
ag457
aatp3703
Rp3704
asg3281
Nsg3282
g823
sg3283
I17
sg3284
I0
sg3285
I17
sbag0
(g3218
g2
Ntp3705
Rp3706
(dp3707
g3222
Nsg3223
(lp3708
sg3225
I516546032
sg10
g3350
sg6
I-1
sg3227
I1
sg18
I01
sg19
g20
sg3228
g0
(g3229
g3230
(dp3709
g3232
g3233
(g3234
g3235
g3236
g3237
tp3710
Rp3711
(I1
(I15
I1
tp3712
g3243
I00
S'\x00\x00\x80?\x00\x00\x80?\x00\x00\x80?\x00\x00\x80?\x00\x00\x80?\x00\x00\x80?\x00\x00\x80?\x00\x00\x80?\x00\x00\x80?\x00\x00\x80?\x00\x00\x80?\x00\x00\x80?\x00\x00\x80?\x00\x00\x80?\x00\x00\x80?'
p3713
S'\x00\x00\x00\x00\x00\x00\x00\x00\x00\x00\x00\x00\x00\x00\x00'
p3714
Ntp3715
bsg3249
g3233
(g3234
g3235
g3236
g3237
tp3716
Rp3717
(I1
(I15
I1
tp3718
g3243
I00
S'\x00\x00\x00\x00\x00\x00\x80?\x00\x00\x00@\x00\x00@@\x00\x00\x80@\x00\x00\xa0@\x00\x00\xc0@\x00\x00\xe0@\x00\x00\x00A\x00\x00\x10A\x00\x00 A\x00\x000A\x00\x00@A\x00\x00PA\x00\x00`A'
p3719
S'\x00\x00\x00\x00\x00\x00\x00\x00\x00\x00\x00\x00\x00\x00\x00'
p3720
Ntp3721
bstp3722
Rp3723
(dp3724
g3259
(dp3725
g3232
I01
sg3249
I01
ssg3261
g3706
sg3262
(lp3726
g3232
ag3249
asg3264
(lp3727
I15
aI1
asbsg3266
g3338
sg3268
g3269
(g3235
(I0
tp3728
g3237
tp3729
Rp3730
(I1
(I15
I1
tp3731
g59
I00
S'\x00\x00\x00\x00\x01\x00\x00\x00\x02\x00\x00\x00\x03\x00\x00\x00\x04\x00\x00\x00\x05\x00\x00\x00\x06\x00\x00\x00\x07\x00\x00\x00\x08\x00\x00\x00\t\x00\x00\x00\n\x00\x00\x00\x0b\x00\x00\x00\x0c\x00\x00\x00\r\x00\x00\x00\x0e\x00\x00\x00'
p3732
tp3733
bsg3276
I01
sg3277
I1
sg3278
I-1
sg3279
(lp3734
g3377
((lp3735
(lp3736
g879
ag882
aa(lp3737
g860
ag861
aa(lp3738
g852
ag853
aa(lp3739
g873
ag876
aa(lp3740
g869
ag870
aa(lp3741
g862
ag863
aatp3742
Rp3743
ag3377
((lp3744
(lp3745
g879
ag904
aa(lp3746
g860
ag861
aa(lp3747
g852
ag853
aa(lp3748
g873
ag899
aa(lp3749
g869
ag602
aa(lp3750
g862
ag863
aatp3751
Rp3752
ag3377
((lp3753
(lp3754
g879
ag928
aa(lp3755
g860
ag861
aa(lp3756
g852
ag853
aa(lp3757
g873
ag923
aa(lp3758
g869
ag918
aa(lp3759
g862
ag915
aatp3760
Rp3761
ag3377
((lp3762
(lp3763
g879
ag950
aa(lp3764
g860
ag861
aa(lp3765
g852
ag853
aa(lp3766
g873
ag945
aa(lp3767
g869
ag332
aa(lp3768
g862
ag863
aatp3769
Rp3770
ag3377
((lp3771
(lp3772
g879
ag973
aa(lp3773
g860
ag861
aa(lp3774
g852
ag853
aa(lp3775
g873
ag968
aa(lp3776
g869
ag963
aa(lp3777
g862
ag863
aatp3778
Rp3779
ag3377
((lp3780
(lp3781
g879
ag995
aa(lp3782
g860
ag861
aa(lp3783
g852
ag853
aa(lp3784
g873
ag990
aa(lp3785
g869
ag489
aa(lp3786
g862
ag863
aatp3787
Rp3788
ag3377
((lp3789
(lp3790
g879
ag1018
aa(lp3791
g860
ag861
aa(lp3792
g852
ag853
aa(lp3793
g873
ag1013
aa(lp3794
g869
ag1008
aa(lp3795
g862
ag863
aatp3796
Rp3797
ag3377
((lp3798
(lp3799
g879
ag1040
aa(lp3800
g860
ag861
aa(lp3801
g852
ag853
aa(lp3802
g873
ag1035
aa(lp3803
g869
ag647
aa(lp3804
g862
ag863
aatp3805
Rp3806
ag3377
((lp3807
(lp3808
g879
ag1063
aa(lp3809
g860
ag861
aa(lp3810
g852
ag853
aa(lp3811
g873
ag1058
aa(lp3812
g869
ag1053
aa(lp3813
g862
ag863
aatp3814
Rp3815
ag3377
((lp3816
(lp3817
g879
ag1085
aa(lp3818
g860
ag861
aa(lp3819
g852
ag853
aa(lp3820
g873
ag1080
aa(lp3821
g869
ag963
aa(lp3822
g862
ag863
aatp3823
Rp3824
ag3377
((lp3825
(lp3826
g879
ag1107
aa(lp3827
g860
ag861
aa(lp3828
g852
ag853
aa(lp3829
g873
ag1102
aa(lp3830
g869
ag963
aa(lp3831
g862
ag863
aatp3832
Rp3833
ag3377
((lp3834
(lp3835
g879
ag1129
aa(lp3836
g860
ag861
aa(lp3837
g852
ag853
aa(lp3838
g873
ag1124
aa(lp3839
g869
ag918
aa(lp3840
g862
ag915
aatp3841
Rp3842
ag3377
((lp3843
(lp3844
g879
ag1151
aa(lp3845
g860
ag861
aa(lp3846
g852
ag853
aa(lp3847
g873
ag1146
aa(lp3848
g869
ag151
aa(lp3849
g862
ag863
aatp3850
Rp3851
ag3377
((lp3852
(lp3853
g879
ag1173
aa(lp3854
g860
ag861
aa(lp3855
g852
ag853
aa(lp3856
g873
ag1168
aa(lp3857
g869
ag489
aa(lp3858
g862
ag863
aatp3859
Rp3860
ag3377
((lp3861
(lp3862
g879
ag1195
aa(lp3863
g860
ag861
aa(lp3864
g852
ag853
aa(lp3865
g873
ag1190
aa(lp3866
g869
ag805
aa(lp3867
g862
ag863
aatp3868
Rp3869
asg3281
Nsg3282
g1181
sg3283
I15
sg3284
I0
sg3285
I15
sbag0
(g3218
g2
Ntp3870
Rp3871
(dp3872
g3222
Nsg3223
(lp3873
sg3225
I516546032
sg10
g3350
sg6
I-1
sg3227
I1
sg18
I01
sg19
g20
sg3228
g0
(g3229
g3230
(dp3874
g3232
g3233
(g3234
g3235
g3236
g3237
tp3875
Rp3876
(I1
(I18
I1
tp3877
g3243
I00
S'\x00\x00\x80?\x00\x00\x80?\x00\x00\x80?\x00\x00\x80?\x00\x00\x80?\x00\x00\x80?\x00\x00\x80?\x00\x00\x80?\x00\x00\x80?\x00\x00\x80?\x00\x00\x80?\x00\x00\x80?\x00\x00\x80?\x00\x00\x80?\x00\x00\x80?\x00\x00\x80?\x00\x00\x80?\x00\x00\x80?'
p3878
S'\x00\x00\x00\x00\x00\x00\x00\x00\x00\x00\x00\x00\x00\x00\x00\x00\x00\x00'
p3879
Ntp3880
bsg3249
g3233
(g3234
g3235
g3236
g3237
tp3881
Rp3882
(I1
(I18
I1
tp3883
g3243
I00
S'\x00\x00\x00\x00\x00\x00\x80?\x00\x00\x00@\x00\x00@@\x00\x00\x80@\x00\x00\xa0@\x00\x00\xc0@\x00\x00\xe0@\x00\x00\x00A\x00\x00\x10A\x00\x00 A\x00\x000A\x00\x00@A\x00\x00PA\x00\x00`A\x00\x00pA\x00\x00\x80A\x00\x00\x88A'
p3884
S'\x00\x00\x00\x00\x00\x00\x00\x00\x00\x00\x00\x00\x00\x00\x00\x00\x00\x00'
p3885
Ntp3886
bstp3887
Rp3888
(dp3889
g3259
(dp3890
g3232
I01
sg3249
I01
ssg3261
g3871
sg3262
(lp3891
g3232
ag3249
asg3264
(lp3892
I18
aI1
asbsg3266
g3338
sg3268
g3269
(g3235
(I0
tp3893
g3237
tp3894
Rp3895
(I1
(I18
I1
tp3896
g59
I00
S'\x00\x00\x00\x00\x01\x00\x00\x00\x02\x00\x00\x00\x03\x00\x00\x00\x04\x00\x00\x00\x05\x00\x00\x00\x06\x00\x00\x00\x07\x00\x00\x00\x08\x00\x00\x00\t\x00\x00\x00\n\x00\x00\x00\x0b\x00\x00\x00\x0c\x00\x00\x00\r\x00\x00\x00\x0e\x00\x00\x00\x0f\x00\x00\x00\x10\x00\x00\x00\x11\x00\x00\x00'
p3897
tp3898
bsg3276
I01
sg3277
I1
sg3278
I-1
sg3279
(lp3899
g3377
((lp3900
(lp3901
g1236
ag1239
aa(lp3902
g1218
ag1219
aa(lp3903
g1210
ag1211
aa(lp3904
g1230
ag1233
aa(lp3905
g1227
ag264
aa(lp3906
g1220
ag1221
aatp3907
Rp3908
ag3377
((lp3909
(lp3910
g1236
ag1261
aa(lp3911
g1218
ag1219
aa(lp3912
g1210
ag1211
aa(lp3913
g1230
ag1256
aa(lp3914
g1227
ag151
aa(lp3915
g1220
ag1221
aatp3916
Rp3917
ag3377
((lp3918
(lp3919
g1236
ag1283
aa(lp3920
g1218
ag1219
aa(lp3921
g1210
ag1211
aa(lp3922
g1230
ag1278
aa(lp3923
g1227
ag602
aa(lp3924
g1220
ag1221
aatp3925
Rp3926
ag3377
((lp3927
(lp3928
g1236
ag1306
aa(lp3929
g1218
ag1219
aa(lp3930
g1210
ag1211
aa(lp3931
g1230
ag1301
aa(lp3932
g1227
ag1296
aa(lp3933
g1220
ag1221
aatp3934
Rp3935
ag3377
((lp3936
(lp3937
g1236
ag1328
aa(lp3938
g1218
ag1219
aa(lp3939
g1210
ag1211
aa(lp3940
g1230
ag1323
aa(lp3941
g1227
ag332
aa(lp3942
g1220
ag1221
aatp3943
Rp3944
ag3377
((lp3945
(lp3946
g1236
ag1350
aa(lp3947
g1218
ag1219
aa(lp3948
g1210
ag1211
aa(lp3949
g1230
ag1345
aa(lp3950
g1227
ag512
aa(lp3951
g1220
ag1221
aatp3952
Rp3953
ag3377
((lp3954
(lp3955
g1236
ag1372
aa(lp3956
g1218
ag1219
aa(lp3957
g1210
ag1211
aa(lp3958
g1230
ag1367
aa(lp3959
g1227
ag963
aa(lp3960
g1220
ag1221
aatp3961
Rp3962
ag3377
((lp3963
(lp3964
g1236
ag1394
aa(lp3965
g1218
ag1219
aa(lp3966
g1210
ag1211
aa(lp3967
g1230
ag1389
aa(lp3968
g1227
ag309
aa(lp3969
g1220
ag1221
aatp3970
Rp3971
ag3377
((lp3972
(lp3973
g1236
ag1416
aa(lp3974
g1218
ag1219
aa(lp3975
g1210
ag1211
aa(lp3976
g1230
ag1411
aa(lp3977
g1227
ag602
aa(lp3978
g1220
ag1221
aatp3979
Rp3980
ag3377
((lp3981
(lp3982
g1236
ag1440
aa(lp3983
g1218
ag1219
aa(lp3984
g1210
ag1211
aa(lp3985
g1230
ag1435
aa(lp3986
g1227
ag1430
aa(lp3987
g1220
ag1427
aatp3988
Rp3989
ag3377
((lp3990
(lp3991
g1236
ag1462
aa(lp3992
g1218
ag1219
aa(lp3993
g1210
ag1211
aa(lp3994
g1230
ag1457
aa(lp3995
g1227
ag647
aa(lp3996
g1220
ag1221
aatp3997
Rp3998
ag3377
((lp3999
(lp4000
g1236
ag1485
aa(lp4001
g1218
ag1219
aa(lp4002
g1210
ag1211
aa(lp4003
g1230
ag1480
aa(lp4004
g1227
ag1475
aa(lp4005
g1220
ag1221
aatp4006
Rp4007
ag3377
((lp4008
(lp4009
g1236
ag1507
aa(lp4010
g1218
ag1219
aa(lp4011
g1210
ag1211
aa(lp4012
g1230
ag1502
aa(lp4013
g1227
ag464
aa(lp4014
g1220
ag1221
aatp4015
Rp4016
ag3377
((lp4017
(lp4018
g1236
ag1530
aa(lp4019
g1218
ag1219
aa(lp4020
g1210
ag1211
aa(lp4021
g1230
ag1525
aa(lp4022
g1227
ag1520
aa(lp4023
g1220
ag1221
aatp4024
Rp4025
ag3377
((lp4026
(lp4027
g1236
ag1553
aa(lp4028
g1218
ag1219
aa(lp4029
g1210
ag1211
aa(lp4030
g1230
ag1548
aa(lp4031
g1227
ag671
aa(lp4032
g1220
ag1541
aatp4033
Rp4034
ag3377
((lp4035
(lp4036
g1236
ag1575
aa(lp4037
g1218
ag1219
aa(lp4038
g1210
ag1211
aa(lp4039
g1230
ag1570
aa(lp4040
g1227
ag309
aa(lp4041
g1220
ag1221
aatp4042
Rp4043
ag3377
((lp4044
(lp4045
g1236
ag1597
aa(lp4046
g1218
ag1219
aa(lp4047
g1210
ag1211
aa(lp4048
g1230
ag1592
aa(lp4049
g1227
ag963
aa(lp4050
g1220
ag1221
aatp4051
Rp4052
ag3377
((lp4053
(lp4054
g1236
ag1619
aa(lp4055
g1218
ag1219
aa(lp4056
g1210
ag1211
aa(lp4057
g1230
ag1614
aa(lp4058
g1227
ag1475
aa(lp4059
g1220
ag1221
aatp4060
Rp4061
asg3281
Nsg3282
g1605
sg3283
I18
sg3284
I0
sg3285
I18
sbag0
(g3218
g2
Ntp4062
Rp4063
(dp4064
g3222
Nsg3223
(lp4065
sg3225
I516546032
sg10
g3261
sg6
I-1
sg3227
I4
sg18
I01
sg19
g20
sg3228
g0
(g3229
g3230
(dp4066
g14
g3269
(g3235
(I0
tp4067
g3237
tp4068
Rp4069
(I1
(I1
I4
tp4070
g3297
I00
(lp4071
g1989
ag2387
ag841
ag841
atp4072
bsg16
g3269
(g3235
(I0
tp4073
g3237
tp4074
Rp4075
(I1
(I1
I4
tp4076
g3297
I00
(lp4077
g1989
ag2387
ag841
ag841
atp4078
bsg3232
g3233
(g3234
g3235
g3236
g3237
tp4079
Rp4080
(I1
(I1
I4
tp4081
g3243
I00
S'\x00\x00\x80?\x00\x00\x80?\x00\x00\x80?\x00\x00\x80?'
p4082
S'\x00\x00\x00\x00'
p4083
Ntp4084
bsg15
g3233
(g3234
g3235
g3236
g3237
tp4085
Rp4086
(I1
(I1
I4
tp4087
g3243
I00
S'\xae\x03\xde?o\x84\n?*F\xd4>\xcc\xae"?'
p4088
S'\x00\x00\x00\x00'
p4089
Ntp4090
bsg3249
g3233
(g3234
g3235
g3236
g3237
tp4091
Rp4092
(I1
(I1
I4
tp4093
g3243
I00
S'\x00\x00\x00\x00\x00\x00\x80?\x00\x00\x00@\x00\x00@@'
p4094
S'\x00\x00\x00\x00'
p4095
Ntp4096
bsg17
g3233
(g3234
g3235
g3236
g3237
tp4097
Rp4098
(I1
(I1
I4
tp4099
g3243
I00
S'\x95q\xfd=-\xef\x15>8\x87\x1e>\x0b]Q>'
p4100
S'\x00\x00\x00\x00'
p4101
Ntp4102
bstp4103
Rp4104
(dp4105
g3259
(dp4106
g16
I00
sg3232
I01
sg15
I01
sg14
I00
sg3249
I01
sg17
I01
ssg3261
g4063
sg3262
(lp4107
g3232
ag3249
ag14
ag15
ag16
ag17
asg3264
(lp4108
I1
aI4
asbsg3266
g3338
sg3268
g3269
(g3235
(I0
tp4109
g3237
tp4110
Rp4111
(I1
(I1
I4
tp4112
g59
I00
S'\x00\x00\x00\x00\x00\x00\x00\x00\x00\x00\x00\x00\x00\x00\x00\x00'
p4113
tp4114
bsg3276
I01
sg3277
I4
sg3278
I-1
sg3279
(lp4115
Nasg3281
Nsg3282
g2832
sg3283
I4
sg3284
I0
sg3285
I4
sbag0
(g3218
g2
Ntp4116
Rp4117
(dp4118
g3222
Nsg3223
(lp4119
sg3225
I516546032
sg10
g3350
sg6
I-1
sg3227
I1
sg18
I01
sg19
g20
sg3228
g0
(g3229
g3230
(dp4120
g3232
g3233
(g3234
g3235
g3236
g3237
tp4121
Rp4122
(I1
(I15
I1
tp4123
g3243
I00
S'\x00\x00\x80?\x00\x00\x80?\x00\x00\x80?\x00\x00\x80?\x00\x00\x80?\x00\x00\x80?\x00\x00\x80?\x00\x00\x80?\x00\x00\x80?\x00\x00\x80?\x00\x00\x80?\x00\x00\x80?\x00\x00\x80?\x00\x00\x80?\x00\x00\x80?'
p4124
S'\x00\x00\x00\x00\x00\x00\x00\x00\x00\x00\x00\x00\x00\x00\x00'
p4125
Ntp4126
bsg3249
g3233
(g3234
g3235
g3236
g3237
tp4127
Rp4128
(I1
(I15
I1
tp4129
g3243
I00
S'\x00\x00\x00\x00\x00\x00\x80?\x00\x00\x00@\x00\x00@@\x00\x00\x80@\x00\x00\xa0@\x00\x00\xc0@\x00\x00\xe0@\x00\x00\x00A\x00\x00\x10A\x00\x00 A\x00\x000A\x00\x00@A\x00\x00PA\x00\x00`A'
p4130
S'\x00\x00\x00\x00\x00\x00\x00\x00\x00\x00\x00\x00\x00\x00\x00'
p4131
Ntp4132
bstp4133
Rp4134
(dp4135
g3259
(dp4136
g3232
I01
sg3249
I01
ssg3261
g4117
sg3262
(lp4137
g3232
ag3249
asg3264
(lp4138
I15
aI1
asbsg3266
g3338
sg3268
g3269
(g3235
(I0
tp4139
g3237
tp4140
Rp4141
(I1
(I15
I1
tp4142
g59
I00
S'\x00\x00\x00\x00\x01\x00\x00\x00\x02\x00\x00\x00\x03\x00\x00\x00\x04\x00\x00\x00\x05\x00\x00\x00\x06\x00\x00\x00\x07\x00\x00\x00\x08\x00\x00\x00\t\x00\x00\x00\n\x00\x00\x00\x0b\x00\x00\x00\x0c\x00\x00\x00\r\x00\x00\x00\x0e\x00\x00\x00'
p4143
tp4144
bsg3276
I01
sg3277
I1
sg3278
I-1
sg3279
(lp4145
g3377
((lp4146
(lp4147
g1668
ag1671
aa(lp4148
g1646
ag1647
aa(lp4149
g1638
ag1639
aa(lp4150
g1659
ag1662
aa(lp4151
g1655
ag1656
aa(lp4152
g1648
ag1649
aatp4153
Rp4154
ag3377
((lp4155
(lp4156
g1668
ag1694
aa(lp4157
g1646
ag1647
aa(lp4158
g1638
ag1639
aa(lp4159
g1659
ag1689
aa(lp4160
g1655
ag1684
aa(lp4161
g1648
ag1649
aatp4162
Rp4163
ag3377
((lp4164
(lp4165
g1668
ag1717
aa(lp4166
g1646
ag1647
aa(lp4167
g1638
ag1639
aa(lp4168
g1659
ag1712
aa(lp4169
g1655
ag671
aa(lp4170
g1648
ag1705
aatp4171
Rp4172
ag3377
((lp4173
(lp4174
g1668
ag1740
aa(lp4175
g1646
ag1647
aa(lp4176
g1638
ag1639
aa(lp4177
g1659
ag1735
aa(lp4178
g1655
ag1730
aa(lp4179
g1648
ag1649
aatp4180
Rp4181
ag3377
((lp4182
(lp4183
g1668
ag1763
aa(lp4184
g1646
ag1647
aa(lp4185
g1638
ag1639
aa(lp4186
g1659
ag1758
aa(lp4187
g1655
ag1753
aa(lp4188
g1648
ag1649
aatp4189
Rp4190
ag3377
((lp4191
(lp4192
g1668
ag1786
aa(lp4193
g1646
ag1647
aa(lp4194
g1638
ag1639
aa(lp4195
g1659
ag1781
aa(lp4196
g1655
ag197
aa(lp4197
g1648
ag1774
aatp4198
Rp4199
ag3377
((lp4200
(lp4201
g1668
ag1808
aa(lp4202
g1646
ag1647
aa(lp4203
g1638
ag1639
aa(lp4204
g1659
ag1803
aa(lp4205
g1655
ag1008
aa(lp4206
g1648
ag1649
aatp4207
Rp4208
ag3377
((lp4209
(lp4210
g1668
ag1830
aa(lp4211
g1646
ag1647
aa(lp4212
g1638
ag1639
aa(lp4213
g1659
ag1825
aa(lp4214
g1655
ag1656
aa(lp4215
g1648
ag1649
aatp4216
Rp4217
ag3377
((lp4218
(lp4219
g1668
ag1852
aa(lp4220
g1646
ag1647
aa(lp4221
g1638
ag1639
aa(lp4222
g1659
ag1847
aa(lp4223
g1655
ag1753
aa(lp4224
g1648
ag1649
aatp4225
Rp4226
ag3377
((lp4227
(lp4228
g1668
ag1874
aa(lp4229
g1646
ag1647
aa(lp4230
g1638
ag1639
aa(lp4231
g1659
ag1869
aa(lp4232
g1655
ag1475
aa(lp4233
g1648
ag1649
aatp4234
Rp4235
ag3377
((lp4236
(lp4237
g1668
ag1896
aa(lp4238
g1646
ag1647
aa(lp4239
g1638
ag1639
aa(lp4240
g1659
ag1891
aa(lp4241
g1655
ag1475
aa(lp4242
g1648
ag1649
aatp4243
Rp4244
ag3377
((lp4245
(lp4246
g1668
ag1918
aa(lp4247
g1646
ag1647
aa(lp4248
g1638
ag1639
aa(lp4249
g1659
ag1913
aa(lp4250
g1655
ag1053
aa(lp4251
g1648
ag1649
aatp4252
Rp4253
ag3377
((lp4254
(lp4255
g1668
ag1940
aa(lp4256
g1646
ag1647
aa(lp4257
g1638
ag1639
aa(lp4258
g1659
ag1935
aa(lp4259
g1655
ag1520
aa(lp4260
g1648
ag1649
aatp4261
Rp4262
ag3377
((lp4263
(lp4264
g1668
ag1962
aa(lp4265
g1646
ag1647
aa(lp4266
g1638
ag1639
aa(lp4267
g1659
ag1957
aa(lp4268
g1655
ag74
aa(lp4269
g1648
ag1649
aatp4270
Rp4271
ag3377
((lp4272
(lp4273
g1668
ag1985
aa(lp4274
g1646
ag1647
aa(lp4275
g1638
ag1639
aa(lp4276
g1659
ag1980
aa(lp4277
g1655
ag1975
aa(lp4278
g1648
ag1774
aatp4279
Rp4280
asg3281
Nsg3282
g1970
sg3283
I15
sg3284
I0
sg3285
I15
sbag0
(g3218
g2
Ntp4281
Rp4282
(dp4283
g3222
Nsg3223
(lp4284
sg3225
I516546032
sg10
g3350
sg6
I-1
sg3227
I1
sg18
I01
sg19
g20
sg3228
g0
(g3229
g3230
(dp4285
g3232
g3233
(g3234
g3235
g3236
g3237
tp4286
Rp4287
(I1
(I17
I1
tp4288
g3243
I00
S'\x00\x00\x80?\x00\x00\x80?\x00\x00\x80?\x00\x00\x80?\x00\x00\x80?\x00\x00\x80?\x00\x00\x80?\x00\x00\x80?\x00\x00\x80?\x00\x00\x80?\x00\x00\x80?\x00\x00\x80?\x00\x00\x80?\x00\x00\x80?\x00\x00\x80?\x00\x00\x80?\x00\x00\x80?'
p4289
S'\x00\x00\x00\x00\x00\x00\x00\x00\x00\x00\x00\x00\x00\x00\x00\x00\x00'
p4290
Ntp4291
bsg3249
g3233
(g3234
g3235
g3236
g3237
tp4292
Rp4293
(I1
(I17
I1
tp4294
g3243
I00
S'\x00\x00\x00\x00\x00\x00\x80?\x00\x00\x00@\x00\x00@@\x00\x00\x80@\x00\x00\xa0@\x00\x00\xc0@\x00\x00\xe0@\x00\x00\x00A\x00\x00\x10A\x00\x00 A\x00\x000A\x00\x00@A\x00\x00PA\x00\x00`A\x00\x00pA\x00\x00\x80A'
p4295
S'\x00\x00\x00\x00\x00\x00\x00\x00\x00\x00\x00\x00\x00\x00\x00\x00\x00'
p4296
Ntp4297
bstp4298
Rp4299
(dp4300
g3259
(dp4301
g3232
I01
sg3249
I01
ssg3261
g4282
sg3262
(lp4302
g3232
ag3249
asg3264
(lp4303
I17
aI1
asbsg3266
g3338
sg3268
g3269
(g3235
(I0
tp4304
g3237
tp4305
Rp4306
(I1
(I17
I1
tp4307
g59
I00
S'\x00\x00\x00\x00\x01\x00\x00\x00\x02\x00\x00\x00\x03\x00\x00\x00\x04\x00\x00\x00\x05\x00\x00\x00\x06\x00\x00\x00\x07\x00\x00\x00\x08\x00\x00\x00\t\x00\x00\x00\n\x00\x00\x00\x0b\x00\x00\x00\x0c\x00\x00\x00\r\x00\x00\x00\x0e\x00\x00\x00\x0f\x00\x00\x00\x10\x00\x00\x00'
p4308
tp4309
bsg3276
I01
sg3277
I1
sg3278
I-1
sg3279
(lp4310
g3377
((lp4311
(lp4312
g2026
ag2029
aa(lp4313
g2008
ag2009
aa(lp4314
g2000
ag2001
aa(lp4315
g2020
ag2023
aa(lp4316
g2017
ag1008
aa(lp4317
g2010
ag2011
aatp4318
Rp4319
ag3377
((lp4320
(lp4321
g2026
ag2051
aa(lp4322
g2008
ag2009
aa(lp4323
g2000
ag2001
aa(lp4324
g2020
ag2046
aa(lp4325
g2017
ag1730
aa(lp4326
g2010
ag2011
aatp4327
Rp4328
ag3377
((lp4329
(lp4330
g2026
ag2074
aa(lp4331
g2008
ag2009
aa(lp4332
g2000
ag2001
aa(lp4333
g2020
ag2069
aa(lp4334
g2017
ag1430
aa(lp4335
g2010
ag2062
aatp4336
Rp4337
ag3377
((lp4338
(lp4339
g2026
ag2096
aa(lp4340
g2008
ag2009
aa(lp4341
g2000
ag2001
aa(lp4342
g2020
ag2091
aa(lp4343
g2017
ag1684
aa(lp4344
g2010
ag2011
aatp4345
Rp4346
ag3377
((lp4347
(lp4348
g2026
ag2118
aa(lp4349
g2008
ag2009
aa(lp4350
g2000
ag2001
aa(lp4351
g2020
ag2113
aa(lp4352
g2017
ag805
aa(lp4353
g2010
ag2011
aatp4354
Rp4355
ag3377
((lp4356
(lp4357
g2026
ag2140
aa(lp4358
g2008
ag2009
aa(lp4359
g2000
ag2001
aa(lp4360
g2020
ag2135
aa(lp4361
g2017
ag128
aa(lp4362
g2010
ag2011
aatp4363
Rp4364
ag3377
((lp4365
(lp4366
g2026
ag2162
aa(lp4367
g2008
ag2009
aa(lp4368
g2000
ag2001
aa(lp4369
g2020
ag2157
aa(lp4370
g2017
ag738
aa(lp4371
g2010
ag2011
aatp4372
Rp4373
ag3377
((lp4374
(lp4375
g2026
ag2185
aa(lp4376
g2008
ag2009
aa(lp4377
g2000
ag2001
aa(lp4378
g2020
ag2180
aa(lp4379
g2017
ag671
aa(lp4380
g2010
ag2173
aatp4381
Rp4382
ag3377
((lp4383
(lp4384
g2026
ag2207
aa(lp4385
g2008
ag2009
aa(lp4386
g2000
ag2001
aa(lp4387
g2020
ag2202
aa(lp4388
g2017
ag1053
aa(lp4389
g2010
ag2011
aatp4390
Rp4391
ag3377
((lp4392
(lp4393
g2026
ag2229
aa(lp4394
g2008
ag2009
aa(lp4395
g2000
ag2001
aa(lp4396
g2020
ag2224
aa(lp4397
g2017
ag647
aa(lp4398
g2010
ag2011
aatp4399
Rp4400
ag3377
((lp4401
(lp4402
g2026
ag2251
aa(lp4403
g2008
ag2009
aa(lp4404
g2000
ag2001
aa(lp4405
g2020
ag2246
aa(lp4406
g2017
ag512
aa(lp4407
g2010
ag2011
aatp4408
Rp4409
ag3377
((lp4410
(lp4411
g2026
ag2273
aa(lp4412
g2008
ag2009
aa(lp4413
g2000
ag2001
aa(lp4414
g2020
ag2268
aa(lp4415
g2017
ag128
aa(lp4416
g2010
ag2011
aatp4417
Rp4418
ag3377
((lp4419
(lp4420
g2026
ag2295
aa(lp4421
g2008
ag2009
aa(lp4422
g2000
ag2001
aa(lp4423
g2020
ag2290
aa(lp4424
g2017
ag870
aa(lp4425
g2010
ag2011
aatp4426
Rp4427
ag3377
((lp4428
(lp4429
g2026
ag2317
aa(lp4430
g2008
ag2009
aa(lp4431
g2000
ag2001
aa(lp4432
g2020
ag2312
aa(lp4433
g2017
ag151
aa(lp4434
g2010
ag2011
aatp4435
Rp4436
ag3377
((lp4437
(lp4438
g2026
ag2339
aa(lp4439
g2008
ag2009
aa(lp4440
g2000
ag2001
aa(lp4441
g2020
ag2334
aa(lp4442
g2017
ag1008
aa(lp4443
g2010
ag2011
aatp4444
Rp4445
ag3377
((lp4446
(lp4447
g2026
ag2361
aa(lp4448
g2008
ag2009
aa(lp4449
g2000
ag2001
aa(lp4450
g2020
ag2356
aa(lp4451
g2017
ag1053
aa(lp4452
g2010
ag2011
aatp4453
Rp4454
ag3377
((lp4455
(lp4456
g2026
ag2383
aa(lp4457
g2008
ag2009
aa(lp4458
g2000
ag2001
aa(lp4459
g2020
ag2378
aa(lp4460
g2017
ag105
aa(lp4461
g2010
ag2011
aatp4462
Rp4463
asg3281
Nsg3282
g2369
sg3283
I17
sg3284
I0
sg3285
I17
sbag0
(g3218
g2
Ntp4464
Rp4465
(dp4466
g3222
Nsg3223
(lp4467
sg3225
I516546032
sg10
g3350
sg6
I-1
sg3227
I1
sg18
I01
sg19
g20
sg3228
g0
(g3229
g3230
(dp4468
g3232
g3233
(g3234
g3235
g3236
g3237
tp4469
Rp4470
(I1
(I18
I1
tp4471
g3243
I00
S'\x00\x00\x80?\x00\x00\x80?\x00\x00\x80?\x00\x00\x80?\x00\x00\x80?\x00\x00\x80?\x00\x00\x80?\x00\x00\x80?\x00\x00\x80?\x00\x00\x80?\x00\x00\x80?\x00\x00\x80?\x00\x00\x80?\x00\x00\x80?\x00\x00\x80?\x00\x00\x80?\x00\x00\x80?\x00\x00\x80?'
p4472
S'\x00\x00\x00\x00\x00\x00\x00\x00\x00\x00\x00\x00\x00\x00\x00\x00\x00\x00'
p4473
Ntp4474
bsg3249
g3233
(g3234
g3235
g3236
g3237
tp4475
Rp4476
(I1
(I18
I1
tp4477
g3243
I00
S'\x00\x00\x00\x00\x00\x00\x80?\x00\x00\x00@\x00\x00@@\x00\x00\x80@\x00\x00\xa0@\x00\x00\xc0@\x00\x00\xe0@\x00\x00\x00A\x00\x00\x10A\x00\x00 A\x00\x000A\x00\x00@A\x00\x00PA\x00\x00`A\x00\x00pA\x00\x00\x80A\x00\x00\x88A'
p4478
S'\x00\x00\x00\x00\x00\x00\x00\x00\x00\x00\x00\x00\x00\x00\x00\x00\x00\x00'
p4479
Ntp4480
bstp4481
Rp4482
(dp4483
g3259
(dp4484
g3232
I01
sg3249
I01
ssg3261
g4465
sg3262
(lp4485
g3232
ag3249
asg3264
(lp4486
I18
aI1
asbsg3266
g3338
sg3268
g3269
(g3235
(I0
tp4487
g3237
tp4488
Rp4489
(I1
(I18
I1
tp4490
g59
I00
S'\x00\x00\x00\x00\x01\x00\x00\x00\x02\x00\x00\x00\x03\x00\x00\x00\x04\x00\x00\x00\x05\x00\x00\x00\x06\x00\x00\x00\x07\x00\x00\x00\x08\x00\x00\x00\t\x00\x00\x00\n\x00\x00\x00\x0b\x00\x00\x00\x0c\x00\x00\x00\r\x00\x00\x00\x0e\x00\x00\x00\x0f\x00\x00\x00\x10\x00\x00\x00\x11\x00\x00\x00'
p4491
tp4492
bsg3276
I01
sg3277
I1
sg3278
I-1
sg3279
(lp4493
g3377
((lp4494
(lp4495
g2424
ag2427
aa(lp4496
g2406
ag2407
aa(lp4497
g2398
ag2399
aa(lp4498
g2418
ag2421
aa(lp4499
g2415
ag1008
aa(lp4500
g2408
ag2409
aatp4501
Rp4502
ag3377
((lp4503
(lp4504
g2424
ag2449
aa(lp4505
g2406
ag2407
aa(lp4506
g2398
ag2399
aa(lp4507
g2418
ag2444
aa(lp4508
g2415
ag489
aa(lp4509
g2408
ag2409
aatp4510
Rp4511
ag3377
((lp4512
(lp4513
g2424
ag2471
aa(lp4514
g2406
ag2407
aa(lp4515
g2398
ag2399
aa(lp4516
g2418
ag2466
aa(lp4517
g2415
ag738
aa(lp4518
g2408
ag2409
aatp4519
Rp4520
ag3377
((lp4521
(lp4522
g2424
ag2493
aa(lp4523
g2406
ag2407
aa(lp4524
g2398
ag2399
aa(lp4525
g2418
ag2488
aa(lp4526
g2415
ag738
aa(lp4527
g2408
ag2409
aatp4528
Rp4529
ag3377
((lp4530
(lp4531
g2424
ag2515
aa(lp4532
g2406
ag2407
aa(lp4533
g2398
ag2399
aa(lp4534
g2418
ag2510
aa(lp4535
g2415
ag647
aa(lp4536
g2408
ag2409
aatp4537
Rp4538
ag3377
((lp4539
(lp4540
g2424
ag2537
aa(lp4541
g2406
ag2407
aa(lp4542
g2398
ag2399
aa(lp4543
g2418
ag2532
aa(lp4544
g2415
ag1008
aa(lp4545
g2408
ag2409
aatp4546
Rp4547
ag3377
((lp4548
(lp4549
g2424
ag2559
aa(lp4550
g2406
ag2407
aa(lp4551
g2398
ag2399
aa(lp4552
g2418
ag2554
aa(lp4553
g2415
ag1753
aa(lp4554
g2408
ag2409
aatp4555
Rp4556
ag3377
((lp4557
(lp4558
g2424
ag2581
aa(lp4559
g2406
ag2407
aa(lp4560
g2398
ag2399
aa(lp4561
g2418
ag2576
aa(lp4562
g2415
ag963
aa(lp4563
g2408
ag2409
aatp4564
Rp4565
ag3377
((lp4566
(lp4567
g2424
ag2603
aa(lp4568
g2406
ag2407
aa(lp4569
g2398
ag2399
aa(lp4570
g2418
ag2598
aa(lp4571
g2415
ag489
aa(lp4572
g2408
ag2409
aatp4573
Rp4574
ag3377
((lp4575
(lp4576
g2424
ag2625
aa(lp4577
g2406
ag2407
aa(lp4578
g2398
ag2399
aa(lp4579
g2418
ag2620
aa(lp4580
g2415
ag74
aa(lp4581
g2408
ag2409
aatp4582
Rp4583
ag3377
((lp4584
(lp4585
g2424
ag2647
aa(lp4586
g2406
ag2407
aa(lp4587
g2398
ag2399
aa(lp4588
g2418
ag2642
aa(lp4589
g2415
ag105
aa(lp4590
g2408
ag2409
aatp4591
Rp4592
ag3377
((lp4593
(lp4594
g2424
ag2670
aa(lp4595
g2406
ag2407
aa(lp4596
g2398
ag2399
aa(lp4597
g2418
ag2665
aa(lp4598
g2415
ag399
aa(lp4599
g2408
ag2658
aatp4600
Rp4601
ag3377
((lp4602
(lp4603
g2424
ag2692
aa(lp4604
g2406
ag2407
aa(lp4605
g2398
ag2399
aa(lp4606
g2418
ag2687
aa(lp4607
g2415
ag1296
aa(lp4608
g2408
ag2409
aatp4609
Rp4610
ag3377
((lp4611
(lp4612
g2424
ag2714
aa(lp4613
g2406
ag2407
aa(lp4614
g2398
ag2399
aa(lp4615
g2418
ag2709
aa(lp4616
g2415
ag1475
aa(lp4617
g2408
ag2409
aatp4618
Rp4619
ag3377
((lp4620
(lp4621
g2424
ag2736
aa(lp4622
g2406
ag2407
aa(lp4623
g2398
ag2399
aa(lp4624
g2418
ag2731
aa(lp4625
g2415
ag602
aa(lp4626
g2408
ag2409
aatp4627
Rp4628
ag3377
((lp4629
(lp4630
g2424
ag2758
aa(lp4631
g2406
ag2407
aa(lp4632
g2398
ag2399
aa(lp4633
g2418
ag2753
aa(lp4634
g2415
ag1008
aa(lp4635
g2408
ag2409
aatp4636
Rp4637
ag3377
((lp4638
(lp4639
g2424
ag2781
aa(lp4640
g2406
ag2407
aa(lp4641
g2398
ag2399
aa(lp4642
g2418
ag2776
aa(lp4643
g2415
ag671
aa(lp4644
g2408
ag2769
aatp4645
Rp4646
ag3377
((lp4647
(lp4648
g2424
ag2803
aa(lp4649
g2406
ag2407
aa(lp4650
g2398
ag2399
aa(lp4651
g2418
ag2798
aa(lp4652
g2415
ag1475
aa(lp4653
g2408
ag2409
aatp4654
Rp4655
asg3281
Nsg3282
g2789
sg3283
I18
sg3284
I0
sg3285
I18
sbag0
(g3218
g2
Ntp4656
Rp4657
(dp4658
g3222
Nsg3223
(lp4659
sg3225
I516546032
sg10
g3350
sg6
I-1
sg3227
I1
sg18
I01
sg19
g20
sg3228
g0
(g3229
g3230
(dp4660
g3232
g3233
(g3234
g3235
g3236
g3237
tp4661
Rp4662
(I1
(I17
I1
tp4663
g3243
I00
S'\x00\x00\x80?\x00\x00\x80?\x00\x00\x80?\x00\x00\x80?\x00\x00\x80?\x00\x00\x80?\x00\x00\x80?\x00\x00\x80?\x00\x00\x80?\x00\x00\x80?\x00\x00\x80?\x00\x00\x80?\x00\x00\x80?\x00\x00\x80?\x00\x00\x80?\x00\x00\x80?\x00\x00\x80?'
p4664
S'\x00\x00\x00\x00\x00\x00\x00\x00\x00\x00\x00\x00\x00\x00\x00\x00\x00'
p4665
Ntp4666
bsg3249
g3233
(g3234
g3235
g3236
g3237
tp4667
Rp4668
(I1
(I17
I1
tp4669
g3243
I00
S'\x00\x00\x00\x00\x00\x00\x80?\x00\x00\x00@\x00\x00@@\x00\x00\x80@\x00\x00\xa0@\x00\x00\xc0@\x00\x00\xe0@\x00\x00\x00A\x00\x00\x10A\x00\x00 A\x00\x000A\x00\x00@A\x00\x00PA\x00\x00`A\x00\x00pA\x00\x00\x80A'
p4670
S'\x00\x00\x00\x00\x00\x00\x00\x00\x00\x00\x00\x00\x00\x00\x00\x00\x00'
p4671
Ntp4672
bstp4673
Rp4674
(dp4675
g3259
(dp4676
g3232
I01
sg3249
I01
ssg3261
g4657
sg3262
(lp4677
g3232
ag3249
asg3264
(lp4678
I17
aI1
asbsg3266
g3338
sg3268
g3269
(g3235
(I0
tp4679
g3237
tp4680
Rp4681
(I1
(I17
I1
tp4682
g59
I00
S'\x00\x00\x00\x00\x01\x00\x00\x00\x02\x00\x00\x00\x03\x00\x00\x00\x04\x00\x00\x00\x05\x00\x00\x00\x06\x00\x00\x00\x07\x00\x00\x00\x08\x00\x00\x00\t\x00\x00\x00\n\x00\x00\x00\x0b\x00\x00\x00\x0c\x00\x00\x00\r\x00\x00\x00\x0e\x00\x00\x00\x0f\x00\x00\x00\x10\x00\x00\x00'
p4683
tp4684
bsg3276
I01
sg3277
I1
sg3278
I-1
sg3279
(lp4685
g3377
((lp4686
(lp4687
g2844
ag2847
aa(lp4688
g2825
ag2826
aa(lp4689
g2817
ag2818
aa(lp4690
g2838
ag2841
aa(lp4691
g2834
ag2835
aa(lp4692
g2827
ag2828
aatp4693
Rp4694
ag3377
((lp4695
(lp4696
g2844
ag2870
aa(lp4697
g2825
ag2826
aa(lp4698
g2817
ag2818
aa(lp4699
g2838
ag2865
aa(lp4700
g2834
ag464
aa(lp4701
g2827
ag2858
aatp4702
Rp4703
ag3377
((lp4704
(lp4705
g2844
ag2892
aa(lp4706
g2825
ag2826
aa(lp4707
g2817
ag2818
aa(lp4708
g2838
ag2887
aa(lp4709
g2834
ag332
aa(lp4710
g2827
ag2858
aatp4711
Rp4712
ag3377
((lp4713
(lp4714
g2844
ag2914
aa(lp4715
g2825
ag2826
aa(lp4716
g2817
ag2818
aa(lp4717
g2838
ag2909
aa(lp4718
g2834
ag128
aa(lp4719
g2827
ag2858
aatp4720
Rp4721
ag3377
((lp4722
(lp4723
g2844
ag2936
aa(lp4724
g2825
ag2826
aa(lp4725
g2817
ag2818
aa(lp4726
g2838
ag2931
aa(lp4727
g2834
ag1475
aa(lp4728
g2827
ag2858
aatp4729
Rp4730
ag3377
((lp4731
(lp4732
g2844
ag2959
aa(lp4733
g2825
ag2826
aa(lp4734
g2817
ag2818
aa(lp4735
g2838
ag2954
aa(lp4736
g2834
ag671
aa(lp4737
g2827
ag2947
aatp4738
Rp4739
ag3377
((lp4740
(lp4741
g2844
ag2981
aa(lp4742
g2825
ag2826
aa(lp4743
g2817
ag2818
aa(lp4744
g2838
ag2976
aa(lp4745
g2834
ag489
aa(lp4746
g2827
ag2858
aatp4747
Rp4748
ag3377
((lp4749
(lp4750
g2844
ag3003
aa(lp4751
g2825
ag2826
aa(lp4752
g2817
ag2818
aa(lp4753
g2838
ag2998
aa(lp4754
g2834
ag1475
aa(lp4755
g2827
ag2858
aatp4756
Rp4757
ag3377
((lp4758
(lp4759
g2844
ag3025
aa(lp4760
g2825
ag2826
aa(lp4761
g2817
ag2818
aa(lp4762
g2838
ag3020
aa(lp4763
g2834
ag647
aa(lp4764
g2827
ag2858
aatp4765
Rp4766
ag3377
((lp4767
(lp4768
g2844
ag3047
aa(lp4769
g2825
ag2826
aa(lp4770
g2817
ag2818
aa(lp4771
g2838
ag3042
aa(lp4772
g2834
ag1296
aa(lp4773
g2827
ag2858
aatp4774
Rp4775
ag3377
((lp4776
(lp4777
g2844
ag3069
aa(lp4778
g2825
ag2826
aa(lp4779
g2817
ag2818
aa(lp4780
g2838
ag3064
aa(lp4781
g2834
ag489
aa(lp4782
g2827
ag2858
aatp4783
Rp4784
ag3377
((lp4785
(lp4786
g2844
ag3091
aa(lp4787
g2825
ag2826
aa(lp4788
g2817
ag2818
aa(lp4789
g2838
ag3086
aa(lp4790
g2834
ag1053
aa(lp4791
g2827
ag2858
aatp4792
Rp4793
ag3377
((lp4794
(lp4795
g2844
ag3113
aa(lp4796
g2825
ag2826
aa(lp4797
g2817
ag2818
aa(lp4798
g2838
ag3108
aa(lp4799
g2834
ag264
aa(lp4800
g2827
ag2858
aatp4801
Rp4802
ag3377
((lp4803
(lp4804
g2844
ag3135
aa(lp4805
g2825
ag2826
aa(lp4806
g2817
ag2818
aa(lp4807
g2838
ag3130
aa(lp4808
g2834
ag1656
aa(lp4809
g2827
ag2858
aatp4810
Rp4811
ag3377
((lp4812
(lp4813
g2844
ag3157
aa(lp4814
g2825
ag2826
aa(lp4815
g2817
ag2818
aa(lp4816
g2838
ag3152
aa(lp4817
g2834
ag264
aa(lp4818
g2827
ag2858
aatp4819
Rp4820
ag3377
((lp4821
(lp4822
g2844
ag3179
aa(lp4823
g2825
ag2826
aa(lp4824
g2817
ag2818
aa(lp4825
g2838
ag3174
aa(lp4826
g2834
ag1475
aa(lp4827
g2827
ag2858
aatp4828
Rp4829
ag3377
((lp4830
(lp4831
g2844
ag3201
aa(lp4832
g2825
ag2826
aa(lp4833
g2817
ag2818
aa(lp4834
g2838
ag3196
aa(lp4835
g2834
ag105
aa(lp4836
g2827
ag2858
aatp4837
Rp4838
asg3281
Nsg3282
g3187
sg3283
I17
sg3284
I0
sg3285
I17
sbasS'savePickle'
p4839
I00
sb.