ccopy_reg
_reconstructor
p0
(cpsychopy.data.experiment
ExperimentHandler
p1
c__builtin__
object
p2
Ntp3
Rp4
(dp5
S'originPath'
p6
NsS'dataFileName'
p7
Vc:\u005cUsers\u005center\u005cOneDrive - University of Toronto\u005cLabs\u005cInzlicht Lab\u005coutside_project\u005cexperiment\u005cpsychoPy_scripts\u005cFULL_EXPERIMENT\u005c__TASKS__\u005cwrapper_beta\u005cdata/John_rsvp_1004_2
p8
sS'runtimeInfo'
p9
NsS'name'
p10
Vrsvp
p11
sS'dataNames'
p12
(lp13
S'usr_input_t1.keys'
p14
aS'usr_input_t1.rt'
p15
aS'usr_input_t2.keys'
p16
aS'usr_input_t2.rt'
p17
asS'autoLog'
p18
I01
sS'extraInfo'
p19
(dp20
S'date'
p21
V2018_Nov_05_1253
p22
sS'run'
p23
I2
sS'expName'
p24
g11
sVparticipant
p25
g0
(cfuture.types.newstr
newstr
p26
c__builtin__
unicode
p27
V1004
p28
tp29
Rp30
sS'frameRate'
p31
NssS'loopsUnfinished'
p32
(lp33
sS'saveWideText'
p34
I00
sS'thisEntry'
p35
(dp36
sS'version'
p37
S''
p38
sS'_paramNamesSoFar'
p39
(lp40
S'block'
p41
aS'sep_dur'
p42
aS'Tx'
p43
aS'trial'
p44
aS'stimulus'
p45
aS'cond'
p46
asS'entries'
p47
(lp48
(dp49
S'block.thisTrialN'
p50
I0
sS'stim.thisTrialN'
p51
I0
sS'block.thisRepN'
p52
I0
sg43
Vt2
p53
sS'stim.thisIndex'
p54
cnumpy.core.multiarray
scalar
p55
(cnumpy
dtype
p56
(S'i4'
p57
I0
I1
tp58
Rp59
(I3
S'<'
p60
NNNI-1
I-1
I0
tp61
bS'\x00\x00\x00\x00'
p62
tp63
Rp64
sg31
NsS'block.thisN'
p65
I0
sS'stim.thisN'
p66
I0
sg42
Vlong
p67
sg46
Vdistractor
p68
sg21
g22
sg23
I2
sS'trials.thisIndex'
p69
g55
(g59
S'\x00\x00\x00\x00'
p70
tp71
Rp72
sS'stim.thisRepN'
p73
I0
sg25
g30
sg45
VS
p74
sS'trials.thisRepN'
p75
I0
sS'trials.thisN'
p76
I0
sg44
g55
(g56
(S'i8'
p77
I0
I1
tp78
Rp79
(I3
S'<'
p80
NNNI-1
I-1
I0
tp81
bS'\x01\x00\x00\x00\x00\x00\x00\x00'
p82
tp83
Rp84
sg24
g11
sS'trials.thisTrialN'
p85
I0
sS'block.thisIndex'
p86
g55
(g59
S'\x00\x00\x00\x00'
p87
tp88
Rp89
sg41
g55
(g79
S'\x01\x00\x00\x00\x00\x00\x00\x00'
p90
tp91
Rp92
sa(dp93
S'block.thisTrialN'
p94
I0
sS'stim.thisTrialN'
p95
I1
sS'block.thisRepN'
p96
I0
sg43
g53
sS'stim.thisIndex'
p97
g55
(g59
S'\x01\x00\x00\x00'
p98
tp99
Rp100
sg31
NsS'block.thisN'
p101
I0
sS'stim.thisN'
p102
I1
sg42
g67
sg46
Vtarget
p103
sg21
g22
sg23
I2
sS'trials.thisIndex'
p104
g72
sS'stim.thisRepN'
p105
I0
sg25
g30
sg45
V3
p106
sS'trials.thisRepN'
p107
I0
sS'trials.thisN'
p108
I0
sg44
g55
(g79
S'\x02\x00\x00\x00\x00\x00\x00\x00'
p109
tp110
Rp111
sg24
g11
sS'trials.thisTrialN'
p112
I0
sS'block.thisIndex'
p113
g89
sg41
g55
(g79
S'\x01\x00\x00\x00\x00\x00\x00\x00'
p114
tp115
Rp116
sa(dp117
S'block.thisTrialN'
p118
I0
sS'stim.thisTrialN'
p119
I2
sS'block.thisRepN'
p120
I0
sg43
g53
sS'stim.thisIndex'
p121
g55
(g59
S'\x02\x00\x00\x00'
p122
tp123
Rp124
sg31
NsS'block.thisN'
p125
I0
sS'stim.thisN'
p126
I2
sg42
g67
sg46
g68
sg21
g22
sg23
I2
sS'trials.thisIndex'
p127
g72
sS'stim.thisRepN'
p128
I0
sg25
g30
sg45
VJ
p129
sS'trials.thisRepN'
p130
I0
sS'trials.thisN'
p131
I0
sg44
g55
(g79
S'\x03\x00\x00\x00\x00\x00\x00\x00'
p132
tp133
Rp134
sg24
g11
sS'trials.thisTrialN'
p135
I0
sS'block.thisIndex'
p136
g89
sg41
g55
(g79
S'\x01\x00\x00\x00\x00\x00\x00\x00'
p137
tp138
Rp139
sa(dp140
S'block.thisTrialN'
p141
I0
sS'stim.thisTrialN'
p142
I3
sS'block.thisRepN'
p143
I0
sg43
g53
sS'stim.thisIndex'
p144
g55
(g59
S'\x03\x00\x00\x00'
p145
tp146
Rp147
sg31
NsS'block.thisN'
p148
I0
sS'stim.thisN'
p149
I3
sg42
g67
sg46
g68
sg21
g22
sg23
I2
sS'trials.thisIndex'
p150
g72
sS'stim.thisRepN'
p151
I0
sg25
g30
sg45
VH
p152
sS'trials.thisRepN'
p153
I0
sS'trials.thisN'
p154
I0
sg44
g55
(g79
S'\x04\x00\x00\x00\x00\x00\x00\x00'
p155
tp156
Rp157
sg24
g11
sS'trials.thisTrialN'
p158
I0
sS'block.thisIndex'
p159
g89
sg41
g55
(g79
S'\x01\x00\x00\x00\x00\x00\x00\x00'
p160
tp161
Rp162
sa(dp163
S'block.thisTrialN'
p164
I0
sS'stim.thisTrialN'
p165
I4
sS'block.thisRepN'
p166
I0
sg43
g53
sS'stim.thisIndex'
p167
g55
(g59
S'\x04\x00\x00\x00'
p168
tp169
Rp170
sg31
NsS'block.thisN'
p171
I0
sS'stim.thisN'
p172
I4
sg42
g67
sg46
g68
sg21
g22
sg23
I2
sS'trials.thisIndex'
p173
g72
sS'stim.thisRepN'
p174
I0
sg25
g30
sg45
VX
p175
sS'trials.thisRepN'
p176
I0
sS'trials.thisN'
p177
I0
sg44
g55
(g79
S'\x05\x00\x00\x00\x00\x00\x00\x00'
p178
tp179
Rp180
sg24
g11
sS'trials.thisTrialN'
p181
I0
sS'block.thisIndex'
p182
g89
sg41
g55
(g79
S'\x01\x00\x00\x00\x00\x00\x00\x00'
p183
tp184
Rp185
sa(dp186
S'block.thisTrialN'
p187
I0
sS'stim.thisTrialN'
p188
I5
sS'block.thisRepN'
p189
I0
sg43
g53
sS'stim.thisIndex'
p190
g55
(g59
S'\x05\x00\x00\x00'
p191
tp192
Rp193
sg31
NsS'block.thisN'
p194
I0
sS'stim.thisN'
p195
I5
sg42
g67
sg46
g68
sg21
g22
sg23
I2
sS'trials.thisIndex'
p196
g72
sS'stim.thisRepN'
p197
I0
sg25
g30
sg45
VA
p198
sS'trials.thisRepN'
p199
I0
sS'trials.thisN'
p200
I0
sg44
g55
(g79
S'\x06\x00\x00\x00\x00\x00\x00\x00'
p201
tp202
Rp203
sg24
g11
sS'trials.thisTrialN'
p204
I0
sS'block.thisIndex'
p205
g89
sg41
g55
(g79
S'\x01\x00\x00\x00\x00\x00\x00\x00'
p206
tp207
Rp208
sa(dp209
S'block.thisTrialN'
p210
I0
sS'stim.thisTrialN'
p211
I6
sS'block.thisRepN'
p212
I0
sg43
g53
sS'stim.thisIndex'
p213
g55
(g59
S'\x06\x00\x00\x00'
p214
tp215
Rp216
sg31
NsS'block.thisN'
p217
I0
sS'stim.thisN'
p218
I6
sg42
g67
sg46
g68
sg21
g22
sg23
I2
sS'trials.thisIndex'
p219
g72
sS'stim.thisRepN'
p220
I0
sg25
g30
sg45
g198
sS'trials.thisRepN'
p221
I0
sS'trials.thisN'
p222
I0
sg44
g55
(g79
S'\x07\x00\x00\x00\x00\x00\x00\x00'
p223
tp224
Rp225
sg24
g11
sS'trials.thisTrialN'
p226
I0
sS'block.thisIndex'
p227
g89
sg41
g55
(g79
S'\x01\x00\x00\x00\x00\x00\x00\x00'
p228
tp229
Rp230
sa(dp231
S'block.thisTrialN'
p232
I0
sS'stim.thisTrialN'
p233
I7
sS'block.thisRepN'
p234
I0
sg43
g53
sS'stim.thisIndex'
p235
g55
(g59
S'\x07\x00\x00\x00'
p236
tp237
Rp238
sg31
NsS'block.thisN'
p239
I0
sS'stim.thisN'
p240
I7
sg42
g67
sg46
g68
sg21
g22
sg23
I2
sS'trials.thisIndex'
p241
g72
sS'stim.thisRepN'
p242
I0
sg25
g30
sg45
VM
p243
sS'trials.thisRepN'
p244
I0
sS'trials.thisN'
p245
I0
sg44
g55
(g79
S'\x08\x00\x00\x00\x00\x00\x00\x00'
p246
tp247
Rp248
sg24
g11
sS'trials.thisTrialN'
p249
I0
sS'block.thisIndex'
p250
g89
sg41
g55
(g79
S'\x01\x00\x00\x00\x00\x00\x00\x00'
p251
tp252
Rp253
sa(dp254
S'block.thisTrialN'
p255
I0
sS'stim.thisTrialN'
p256
I8
sS'block.thisRepN'
p257
I0
sg43
g53
sS'stim.thisIndex'
p258
g55
(g59
S'\x08\x00\x00\x00'
p259
tp260
Rp261
sg31
NsS'block.thisN'
p262
I0
sS'stim.thisN'
p263
I8
sg42
g67
sg46
g68
sg21
g22
sg23
I2
sS'trials.thisIndex'
p264
g72
sS'stim.thisRepN'
p265
I0
sg25
g30
sg45
VT
p266
sS'trials.thisRepN'
p267
I0
sS'trials.thisN'
p268
I0
sg44
g55
(g79
S'\t\x00\x00\x00\x00\x00\x00\x00'
p269
tp270
Rp271
sg24
g11
sS'trials.thisTrialN'
p272
I0
sS'block.thisIndex'
p273
g89
sg41
g55
(g79
S'\x01\x00\x00\x00\x00\x00\x00\x00'
p274
tp275
Rp276
sa(dp277
S'block.thisTrialN'
p278
I0
sS'stim.thisTrialN'
p279
I9
sS'block.thisRepN'
p280
I0
sg43
g53
sS'stim.thisIndex'
p281
g55
(g59
S'\t\x00\x00\x00'
p282
tp283
Rp284
sg31
NsS'block.thisN'
p285
I0
sS'stim.thisN'
p286
I9
sg42
g67
sg46
g68
sg21
g22
sg23
I2
sS'trials.thisIndex'
p287
g72
sS'stim.thisRepN'
p288
I0
sg25
g30
sg45
VZ
p289
sS'trials.thisRepN'
p290
I0
sS'trials.thisN'
p291
I0
sg44
g55
(g79
S'\n\x00\x00\x00\x00\x00\x00\x00'
p292
tp293
Rp294
sg24
g11
sS'trials.thisTrialN'
p295
I0
sS'block.thisIndex'
p296
g89
sg41
g55
(g79
S'\x01\x00\x00\x00\x00\x00\x00\x00'
p297
tp298
Rp299
sa(dp300
S'block.thisTrialN'
p301
I0
sS'stim.thisTrialN'
p302
I10
sS'block.thisRepN'
p303
I0
sg43
g53
sS'stim.thisIndex'
p304
g55
(g59
S'\n\x00\x00\x00'
p305
tp306
Rp307
sg31
NsS'block.thisN'
p308
I0
sS'stim.thisN'
p309
I10
sg42
g67
sg46
g103
sg21
g22
sg23
I2
sS'trials.thisIndex'
p310
g72
sS'stim.thisRepN'
p311
I0
sg25
g30
sg45
V4
p312
sS'trials.thisRepN'
p313
I0
sS'trials.thisN'
p314
I0
sg44
g55
(g79
S'\x0b\x00\x00\x00\x00\x00\x00\x00'
p315
tp316
Rp317
sg24
g11
sS'trials.thisTrialN'
p318
I0
sS'block.thisIndex'
p319
g89
sg41
g55
(g79
S'\x01\x00\x00\x00\x00\x00\x00\x00'
p320
tp321
Rp322
sa(dp323
S'block.thisTrialN'
p324
I0
sS'stim.thisTrialN'
p325
I11
sS'block.thisRepN'
p326
I0
sg43
g53
sS'stim.thisIndex'
p327
g55
(g59
S'\x0b\x00\x00\x00'
p328
tp329
Rp330
sg31
NsS'block.thisN'
p331
I0
sS'stim.thisN'
p332
I11
sg42
g67
sg46
g68
sg21
g22
sg23
I2
sS'trials.thisIndex'
p333
g72
sS'stim.thisRepN'
p334
I0
sg25
g30
sg45
VO
p335
sS'trials.thisRepN'
p336
I0
sS'trials.thisN'
p337
I0
sg44
g55
(g79
S'\x0c\x00\x00\x00\x00\x00\x00\x00'
p338
tp339
Rp340
sg24
g11
sS'trials.thisTrialN'
p341
I0
sS'block.thisIndex'
p342
g89
sg41
g55
(g79
S'\x01\x00\x00\x00\x00\x00\x00\x00'
p343
tp344
Rp345
sa(dp346
S'block.thisTrialN'
p347
I0
sS'stim.thisTrialN'
p348
I12
sS'block.thisRepN'
p349
I0
sg43
g53
sS'stim.thisIndex'
p350
g55
(g59
S'\x0c\x00\x00\x00'
p351
tp352
Rp353
sg31
NsS'block.thisN'
p354
I0
sS'stim.thisN'
p355
I12
sg42
g67
sg46
g68
sg21
g22
sg23
I2
sS'trials.thisIndex'
p356
g72
sS'stim.thisRepN'
p357
I0
sg25
g30
sg45
VE
p358
sS'trials.thisRepN'
p359
I0
sS'trials.thisN'
p360
I0
sg44
g55
(g79
S'\r\x00\x00\x00\x00\x00\x00\x00'
p361
tp362
Rp363
sg24
g11
sS'trials.thisTrialN'
p364
I0
sS'block.thisIndex'
p365
g89
sg41
g55
(g79
S'\x01\x00\x00\x00\x00\x00\x00\x00'
p366
tp367
Rp368
sa(dp369
S'block.thisTrialN'
p370
I0
sS'stim.thisTrialN'
p371
I13
sS'block.thisRepN'
p372
I0
sg43
g53
sS'stim.thisIndex'
p373
g55
(g59
S'\r\x00\x00\x00'
p374
tp375
Rp376
sg31
NsS'block.thisN'
p377
I0
sS'stim.thisN'
p378
I13
sg42
g67
sg46
g68
sg21
g22
sg23
I2
sS'trials.thisIndex'
p379
g72
sS'stim.thisRepN'
p380
I0
sg25
g30
sg45
g335
sS'trials.thisRepN'
p381
I0
sS'trials.thisN'
p382
I0
sg44
g55
(g79
S'\x0e\x00\x00\x00\x00\x00\x00\x00'
p383
tp384
Rp385
sg24
g11
sS'trials.thisTrialN'
p386
I0
sS'block.thisIndex'
p387
g89
sg41
g55
(g79
S'\x01\x00\x00\x00\x00\x00\x00\x00'
p388
tp389
Rp390
sa(dp391
S'block.thisTrialN'
p392
I0
sS'stim.thisTrialN'
p393
I14
sS'block.thisRepN'
p394
I0
sg43
g53
sS'stim.thisIndex'
p395
g55
(g59
S'\x0e\x00\x00\x00'
p396
tp397
Rp398
sg31
NsS'block.thisN'
p399
I0
sS'stim.thisN'
p400
I14
sg42
g67
sg46
g68
sg21
g22
sg23
I2
sS'trials.thisIndex'
p401
g72
sS'stim.thisRepN'
p402
I0
sg25
g30
sg45
VV
p403
sS'trials.thisRepN'
p404
I0
sS'trials.thisN'
p405
I0
sg44
g55
(g79
S'\x0f\x00\x00\x00\x00\x00\x00\x00'
p406
tp407
Rp408
sg24
g11
sS'trials.thisTrialN'
p409
I0
sS'block.thisIndex'
p410
g89
sg41
g55
(g79
S'\x01\x00\x00\x00\x00\x00\x00\x00'
p411
tp412
Rp413
sa(dp414
S'block.thisTrialN'
p415
I0
sS'stim.thisTrialN'
p416
I15
sS'block.thisRepN'
p417
I0
sg43
g53
sS'stim.thisIndex'
p418
g55
(g59
S'\x0f\x00\x00\x00'
p419
tp420
Rp421
sg31
NsS'block.thisN'
p422
I0
sS'stim.thisN'
p423
I15
sg42
g67
sg46
g68
sg21
g22
sg23
I2
sS'trials.thisIndex'
p424
g72
sS'stim.thisRepN'
p425
I0
sg25
g30
sg45
VU
p426
sS'trials.thisRepN'
p427
I0
sS'trials.thisN'
p428
I0
sg44
g55
(g79
S'\x10\x00\x00\x00\x00\x00\x00\x00'
p429
tp430
Rp431
sg24
g11
sS'trials.thisTrialN'
p432
I0
sS'block.thisIndex'
p433
g89
sg41
g55
(g79
S'\x01\x00\x00\x00\x00\x00\x00\x00'
p434
tp435
Rp436
sa(dp437
S'block.thisTrialN'
p438
I0
sS'stim.thisTrialN'
p439
I16
sS'block.thisRepN'
p440
I0
sg43
g53
sS'stim.thisIndex'
p441
g55
(g59
S'\x10\x00\x00\x00'
p442
tp443
Rp444
sg31
NsS'block.thisN'
p445
I0
sS'stim.thisN'
p446
I16
sg42
g67
sg46
g68
sg21
g22
sg23
I2
sS'trials.thisIndex'
p447
g72
sS'stim.thisRepN'
p448
I0
sg25
g30
sg45
g426
sS'trials.thisRepN'
p449
I0
sS'trials.thisN'
p450
I0
sg44
g55
(g79
S'\x11\x00\x00\x00\x00\x00\x00\x00'
p451
tp452
Rp453
sg24
g11
sS'trials.thisTrialN'
p454
I0
sS'block.thisIndex'
p455
g89
sg41
g55
(g79
S'\x01\x00\x00\x00\x00\x00\x00\x00'
p456
tp457
Rp458
sa(dp459
S'block.thisTrialN'
p460
I0
sS'block.thisRepN'
p461
I0
sg16
S'4'
p462
sS'trials.thisRepN'
p463
I0
sg15
F0.7280814999976428
sg25
g30
sS'block.thisN'
p464
I0
sg31
NsS'trials.thisN'
p465
I0
sg14
g462
sg24
g11
sS'trials.thisTrialN'
p466
I0
sS'trials.thisIndex'
p467
g72
sg21
g22
sg23
I2
sS'block.thisIndex'
p468
g89
sg17
F0.3049116999900434
sa(dp469
S'block.thisTrialN'
p470
I0
sS'stim.thisTrialN'
p471
I0
sS'block.thisRepN'
p472
I0
sS'Tx'
p473
Vt1
p474
sS'stim.thisIndex'
p475
g55
(g59
S'\x00\x00\x00\x00'
p476
tp477
Rp478
sg31
NsS'block.thisN'
p479
I0
sS'stim.thisN'
p480
I0
sS'sep_dur'
p481
Vshort
p482
sS'cond'
p483
Vdistractor
p484
sg21
g22
sg23
I2
sS'trials.thisIndex'
p485
g55
(g59
S'\x00\x00\x00\x00'
p486
tp487
Rp488
sS'stim.thisRepN'
p489
I0
sg25
g30
sS'stimulus'
p490
g74
sS'trials.thisRepN'
p491
I1
sS'trials.thisN'
p492
I1
sS'trial'
p493
g55
(g79
S'\x01\x00\x00\x00\x00\x00\x00\x00'
p494
tp495
Rp496
sg24
g11
sS'trials.thisTrialN'
p497
I0
sS'block.thisIndex'
p498
g89
sS'block'
p499
g55
(g79
S'\x02\x00\x00\x00\x00\x00\x00\x00'
p500
tp501
Rp502
sa(dp503
S'block.thisTrialN'
p504
I0
sS'stim.thisTrialN'
p505
I1
sS'block.thisRepN'
p506
I0
sg473
g474
sS'stim.thisIndex'
p507
g55
(g59
S'\x01\x00\x00\x00'
p508
tp509
Rp510
sg31
NsS'block.thisN'
p511
I0
sS'stim.thisN'
p512
I1
sg481
g482
sg483
g484
sg21
g22
sg23
I2
sS'trials.thisIndex'
p513
g488
sS'stim.thisRepN'
p514
I0
sg25
g30
sg490
VN
p515
sS'trials.thisRepN'
p516
I1
sS'trials.thisN'
p517
I1
sg493
g55
(g79
S'\x02\x00\x00\x00\x00\x00\x00\x00'
p518
tp519
Rp520
sg24
g11
sS'trials.thisTrialN'
p521
I0
sS'block.thisIndex'
p522
g89
sg499
g55
(g79
S'\x02\x00\x00\x00\x00\x00\x00\x00'
p523
tp524
Rp525
sa(dp526
S'block.thisTrialN'
p527
I0
sS'stim.thisTrialN'
p528
I2
sS'block.thisRepN'
p529
I0
sg473
g474
sS'stim.thisIndex'
p530
g55
(g59
S'\x02\x00\x00\x00'
p531
tp532
Rp533
sg31
NsS'block.thisN'
p534
I0
sS'stim.thisN'
p535
I2
sg481
g482
sg483
g484
sg21
g22
sg23
I2
sS'trials.thisIndex'
p536
g488
sS'stim.thisRepN'
p537
I0
sg25
g30
sg490
VI
p538
sS'trials.thisRepN'
p539
I1
sS'trials.thisN'
p540
I1
sg493
g55
(g79
S'\x03\x00\x00\x00\x00\x00\x00\x00'
p541
tp542
Rp543
sg24
g11
sS'trials.thisTrialN'
p544
I0
sS'block.thisIndex'
p545
g89
sg499
g55
(g79
S'\x02\x00\x00\x00\x00\x00\x00\x00'
p546
tp547
Rp548
sa(dp549
S'block.thisTrialN'
p550
I0
sS'stim.thisTrialN'
p551
I3
sS'block.thisRepN'
p552
I0
sg473
g474
sS'stim.thisIndex'
p553
g55
(g59
S'\x03\x00\x00\x00'
p554
tp555
Rp556
sg31
NsS'block.thisN'
p557
I0
sS'stim.thisN'
p558
I3
sg481
g482
sg483
g484
sg21
g22
sg23
I2
sS'trials.thisIndex'
p559
g488
sS'stim.thisRepN'
p560
I0
sg25
g30
sg490
VL
p561
sS'trials.thisRepN'
p562
I1
sS'trials.thisN'
p563
I1
sg493
g55
(g79
S'\x04\x00\x00\x00\x00\x00\x00\x00'
p564
tp565
Rp566
sg24
g11
sS'trials.thisTrialN'
p567
I0
sS'block.thisIndex'
p568
g89
sg499
g55
(g79
S'\x02\x00\x00\x00\x00\x00\x00\x00'
p569
tp570
Rp571
sa(dp572
S'block.thisTrialN'
p573
I0
sS'stim.thisTrialN'
p574
I4
sS'block.thisRepN'
p575
I0
sg473
g474
sS'stim.thisIndex'
p576
g55
(g59
S'\x04\x00\x00\x00'
p577
tp578
Rp579
sg31
NsS'block.thisN'
p580
I0
sS'stim.thisN'
p581
I4
sg481
g482
sg483
g484
sg21
g22
sg23
I2
sS'trials.thisIndex'
p582
g488
sS'stim.thisRepN'
p583
I0
sg25
g30
sg490
VK
p584
sS'trials.thisRepN'
p585
I1
sS'trials.thisN'
p586
I1
sg493
g55
(g79
S'\x05\x00\x00\x00\x00\x00\x00\x00'
p587
tp588
Rp589
sg24
g11
sS'trials.thisTrialN'
p590
I0
sS'block.thisIndex'
p591
g89
sg499
g55
(g79
S'\x02\x00\x00\x00\x00\x00\x00\x00'
p592
tp593
Rp594
sa(dp595
S'block.thisTrialN'
p596
I0
sS'stim.thisTrialN'
p597
I5
sS'block.thisRepN'
p598
I0
sg473
g474
sS'stim.thisIndex'
p599
g55
(g59
S'\x05\x00\x00\x00'
p600
tp601
Rp602
sg31
NsS'block.thisN'
p603
I0
sS'stim.thisN'
p604
I5
sg481
g482
sg483
g484
sg21
g22
sg23
I2
sS'trials.thisIndex'
p605
g488
sS'stim.thisRepN'
p606
I0
sg25
g30
sg490
VW
p607
sS'trials.thisRepN'
p608
I1
sS'trials.thisN'
p609
I1
sg493
g55
(g79
S'\x06\x00\x00\x00\x00\x00\x00\x00'
p610
tp611
Rp612
sg24
g11
sS'trials.thisTrialN'
p613
I0
sS'block.thisIndex'
p614
g89
sg499
g55
(g79
S'\x02\x00\x00\x00\x00\x00\x00\x00'
p615
tp616
Rp617
sa(dp618
S'block.thisTrialN'
p619
I0
sS'stim.thisTrialN'
p620
I6
sS'block.thisRepN'
p621
I0
sg473
g474
sS'stim.thisIndex'
p622
g55
(g59
S'\x06\x00\x00\x00'
p623
tp624
Rp625
sg31
NsS'block.thisN'
p626
I0
sS'stim.thisN'
p627
I6
sg481
g482
sg483
g484
sg21
g22
sg23
I2
sS'trials.thisIndex'
p628
g488
sS'stim.thisRepN'
p629
I0
sg25
g30
sg490
g198
sS'trials.thisRepN'
p630
I1
sS'trials.thisN'
p631
I1
sg493
g55
(g79
S'\x07\x00\x00\x00\x00\x00\x00\x00'
p632
tp633
Rp634
sg24
g11
sS'trials.thisTrialN'
p635
I0
sS'block.thisIndex'
p636
g89
sg499
g55
(g79
S'\x02\x00\x00\x00\x00\x00\x00\x00'
p637
tp638
Rp639
sa(dp640
S'block.thisTrialN'
p641
I0
sS'stim.thisTrialN'
p642
I7
sS'block.thisRepN'
p643
I0
sg473
g474
sS'stim.thisIndex'
p644
g55
(g59
S'\x07\x00\x00\x00'
p645
tp646
Rp647
sg31
NsS'block.thisN'
p648
I0
sS'stim.thisN'
p649
I7
sg481
g482
sg483
g484
sg21
g22
sg23
I2
sS'trials.thisIndex'
p650
g488
sS'stim.thisRepN'
p651
I0
sg25
g30
sg490
g538
sS'trials.thisRepN'
p652
I1
sS'trials.thisN'
p653
I1
sg493
g55
(g79
S'\x08\x00\x00\x00\x00\x00\x00\x00'
p654
tp655
Rp656
sg24
g11
sS'trials.thisTrialN'
p657
I0
sS'block.thisIndex'
p658
g89
sg499
g55
(g79
S'\x02\x00\x00\x00\x00\x00\x00\x00'
p659
tp660
Rp661
sa(dp662
S'block.thisTrialN'
p663
I0
sS'stim.thisTrialN'
p664
I8
sS'block.thisRepN'
p665
I0
sg473
g474
sS'stim.thisIndex'
p666
g55
(g59
S'\x08\x00\x00\x00'
p667
tp668
Rp669
sg31
NsS'block.thisN'
p670
I0
sS'stim.thisN'
p671
I8
sg481
g482
sg483
g484
sg21
g22
sg23
I2
sS'trials.thisIndex'
p672
g488
sS'stim.thisRepN'
p673
I0
sg25
g30
sg490
VP
p674
sS'trials.thisRepN'
p675
I1
sS'trials.thisN'
p676
I1
sg493
g55
(g79
S'\t\x00\x00\x00\x00\x00\x00\x00'
p677
tp678
Rp679
sg24
g11
sS'trials.thisTrialN'
p680
I0
sS'block.thisIndex'
p681
g89
sg499
g55
(g79
S'\x02\x00\x00\x00\x00\x00\x00\x00'
p682
tp683
Rp684
sa(dp685
S'block.thisTrialN'
p686
I0
sS'stim.thisTrialN'
p687
I9
sS'block.thisRepN'
p688
I0
sg473
g474
sS'stim.thisIndex'
p689
g55
(g59
S'\t\x00\x00\x00'
p690
tp691
Rp692
sg31
NsS'block.thisN'
p693
I0
sS'stim.thisN'
p694
I9
sg481
g482
sg483
g484
sg21
g22
sg23
I2
sS'trials.thisIndex'
p695
g488
sS'stim.thisRepN'
p696
I0
sg25
g30
sg490
g152
sS'trials.thisRepN'
p697
I1
sS'trials.thisN'
p698
I1
sg493
g55
(g79
S'\n\x00\x00\x00\x00\x00\x00\x00'
p699
tp700
Rp701
sg24
g11
sS'trials.thisTrialN'
p702
I0
sS'block.thisIndex'
p703
g89
sg499
g55
(g79
S'\x02\x00\x00\x00\x00\x00\x00\x00'
p704
tp705
Rp706
sa(dp707
S'block.thisTrialN'
p708
I0
sS'stim.thisTrialN'
p709
I10
sS'block.thisRepN'
p710
I0
sg473
g474
sS'stim.thisIndex'
p711
g55
(g59
S'\n\x00\x00\x00'
p712
tp713
Rp714
sg31
NsS'block.thisN'
p715
I0
sS'stim.thisN'
p716
I10
sg481
g482
sg483
Vtarget
p717
sg21
g22
sg23
I2
sS'trials.thisIndex'
p718
g488
sS'stim.thisRepN'
p719
I0
sg25
g30
sg490
V2
p720
sS'trials.thisRepN'
p721
I1
sS'trials.thisN'
p722
I1
sg493
g55
(g79
S'\x0b\x00\x00\x00\x00\x00\x00\x00'
p723
tp724
Rp725
sg24
g11
sS'trials.thisTrialN'
p726
I0
sS'block.thisIndex'
p727
g89
sg499
g55
(g79
S'\x02\x00\x00\x00\x00\x00\x00\x00'
p728
tp729
Rp730
sa(dp731
S'block.thisTrialN'
p732
I0
sS'stim.thisTrialN'
p733
I11
sS'block.thisRepN'
p734
I0
sg473
g474
sS'stim.thisIndex'
p735
g55
(g59
S'\x0b\x00\x00\x00'
p736
tp737
Rp738
sg31
NsS'block.thisN'
p739
I0
sS'stim.thisN'
p740
I11
sg481
g482
sg483
g484
sg21
g22
sg23
I2
sS'trials.thisIndex'
p741
g488
sS'stim.thisRepN'
p742
I0
sg25
g30
sg490
VG
p743
sS'trials.thisRepN'
p744
I1
sS'trials.thisN'
p745
I1
sg493
g55
(g79
S'\x0c\x00\x00\x00\x00\x00\x00\x00'
p746
tp747
Rp748
sg24
g11
sS'trials.thisTrialN'
p749
I0
sS'block.thisIndex'
p750
g89
sg499
g55
(g79
S'\x02\x00\x00\x00\x00\x00\x00\x00'
p751
tp752
Rp753
sa(dp754
S'block.thisTrialN'
p755
I0
sS'stim.thisTrialN'
p756
I12
sS'block.thisRepN'
p757
I0
sg473
g474
sS'stim.thisIndex'
p758
g55
(g59
S'\x0c\x00\x00\x00'
p759
tp760
Rp761
sg31
NsS'block.thisN'
p762
I0
sS'stim.thisN'
p763
I12
sg481
g482
sg483
g484
sg21
g22
sg23
I2
sS'trials.thisIndex'
p764
g488
sS'stim.thisRepN'
p765
I0
sg25
g30
sg490
VQ
p766
sS'trials.thisRepN'
p767
I1
sS'trials.thisN'
p768
I1
sg493
g55
(g79
S'\r\x00\x00\x00\x00\x00\x00\x00'
p769
tp770
Rp771
sg24
g11
sS'trials.thisTrialN'
p772
I0
sS'block.thisIndex'
p773
g89
sg499
g55
(g79
S'\x02\x00\x00\x00\x00\x00\x00\x00'
p774
tp775
Rp776
sa(dp777
S'block.thisTrialN'
p778
I0
sS'stim.thisTrialN'
p779
I13
sS'block.thisRepN'
p780
I0
sg473
g474
sS'stim.thisIndex'
p781
g55
(g59
S'\r\x00\x00\x00'
p782
tp783
Rp784
sg31
NsS'block.thisN'
p785
I0
sS'stim.thisN'
p786
I13
sg481
g482
sg483
g484
sg21
g22
sg23
I2
sS'trials.thisIndex'
p787
g488
sS'stim.thisRepN'
p788
I0
sg25
g30
sg490
g584
sS'trials.thisRepN'
p789
I1
sS'trials.thisN'
p790
I1
sg493
g55
(g79
S'\x0e\x00\x00\x00\x00\x00\x00\x00'
p791
tp792
Rp793
sg24
g11
sS'trials.thisTrialN'
p794
I0
sS'block.thisIndex'
p795
g89
sg499
g55
(g79
S'\x02\x00\x00\x00\x00\x00\x00\x00'
p796
tp797
Rp798
sa(dp799
S'block.thisTrialN'
p800
I0
sS'stim.thisTrialN'
p801
I14
sS'block.thisRepN'
p802
I0
sg473
g474
sS'stim.thisIndex'
p803
g55
(g59
S'\x0e\x00\x00\x00'
p804
tp805
Rp806
sg31
NsS'block.thisN'
p807
I0
sS'stim.thisN'
p808
I14
sg481
g482
sg483
g484
sg21
g22
sg23
I2
sS'trials.thisIndex'
p809
g488
sS'stim.thisRepN'
p810
I0
sg25
g30
sg490
g129
sS'trials.thisRepN'
p811
I1
sS'trials.thisN'
p812
I1
sg493
g55
(g79
S'\x0f\x00\x00\x00\x00\x00\x00\x00'
p813
tp814
Rp815
sg24
g11
sS'trials.thisTrialN'
p816
I0
sS'block.thisIndex'
p817
g89
sg499
g55
(g79
S'\x02\x00\x00\x00\x00\x00\x00\x00'
p818
tp819
Rp820
sa(dp821
S'block.thisTrialN'
p822
I0
sS'stim.thisTrialN'
p823
I15
sS'block.thisRepN'
p824
I0
sg473
g474
sS'stim.thisIndex'
p825
g55
(g59
S'\x0f\x00\x00\x00'
p826
tp827
Rp828
sg31
NsS'block.thisN'
p829
I0
sS'stim.thisN'
p830
I15
sg481
g482
sg483
Vmask
p831
sg21
g22
sg23
I2
sS'trials.thisIndex'
p832
g488
sS'stim.thisRepN'
p833
I0
sg25
g30
sg490
V 
p834
sS'trials.thisRepN'
p835
I1
sS'trials.thisN'
p836
I1
sg493
g55
(g79
S'\x10\x00\x00\x00\x00\x00\x00\x00'
p837
tp838
Rp839
sg24
g11
sS'trials.thisTrialN'
p840
I0
sS'block.thisIndex'
p841
g89
sg499
g55
(g79
S'\x02\x00\x00\x00\x00\x00\x00\x00'
p842
tp843
Rp844
sa(dp845
S'block.thisTrialN'
p846
I0
sS'stim.thisTrialN'
p847
I16
sS'block.thisRepN'
p848
I0
sg473
g474
sS'stim.thisIndex'
p849
g55
(g59
S'\x10\x00\x00\x00'
p850
tp851
Rp852
sg31
NsS'block.thisN'
p853
I0
sS'stim.thisN'
p854
I16
sg481
g482
sg483
g484
sg21
g22
sg23
I2
sS'trials.thisIndex'
p855
g488
sS'stim.thisRepN'
p856
I0
sg25
g30
sg490
VY
p857
sS'trials.thisRepN'
p858
I1
sS'trials.thisN'
p859
I1
sg493
g55
(g79
S'\x11\x00\x00\x00\x00\x00\x00\x00'
p860
tp861
Rp862
sg24
g11
sS'trials.thisTrialN'
p863
I0
sS'block.thisIndex'
p864
g89
sg499
g55
(g79
S'\x02\x00\x00\x00\x00\x00\x00\x00'
p865
tp866
Rp867
sa(dp868
S'block.thisTrialN'
p869
I0
sS'block.thisRepN'
p870
I0
sg16
g462
sS'trials.thisRepN'
p871
I1
sg15
F0.5751110999990487
sg25
g30
sS'block.thisN'
p872
I0
sg31
NsS'trials.thisN'
p873
I1
sg14
g462
sg24
g11
sS'trials.thisTrialN'
p874
I0
sS'trials.thisIndex'
p875
g488
sg21
g22
sg23
I2
sS'block.thisIndex'
p876
g89
sg17
F0.16135680000297725
sa(dp877
S'block.thisTrialN'
p878
I0
sS'stim.thisTrialN'
p879
I0
sS'block.thisRepN'
p880
I0
sS'Tx'
p881
Vt1
p882
sS'stim.thisIndex'
p883
g55
(g59
S'\x00\x00\x00\x00'
p884
tp885
Rp886
sg31
NsS'block.thisN'
p887
I0
sS'stim.thisN'
p888
I0
sS'sep_dur'
p889
Vshort
p890
sS'cond'
p891
Vdistractor
p892
sg21
g22
sg23
I2
sS'trials.thisIndex'
p893
g55
(g59
S'\x00\x00\x00\x00'
p894
tp895
Rp896
sS'stim.thisRepN'
p897
I0
sg25
g30
sS'stimulus'
p898
g515
sS'trials.thisRepN'
p899
I2
sS'trials.thisN'
p900
I2
sS'trial'
p901
g55
(g79
S'\x01\x00\x00\x00\x00\x00\x00\x00'
p902
tp903
Rp904
sg24
g11
sS'trials.thisTrialN'
p905
I0
sS'block.thisIndex'
p906
g89
sS'block'
p907
g55
(g79
S'\x03\x00\x00\x00\x00\x00\x00\x00'
p908
tp909
Rp910
sa(dp911
S'block.thisTrialN'
p912
I0
sS'stim.thisTrialN'
p913
I1
sS'block.thisRepN'
p914
I0
sg881
g882
sS'stim.thisIndex'
p915
g55
(g59
S'\x01\x00\x00\x00'
p916
tp917
Rp918
sg31
NsS'block.thisN'
p919
I0
sS'stim.thisN'
p920
I1
sg889
g890
sg891
g892
sg21
g22
sg23
I2
sS'trials.thisIndex'
p921
g896
sS'stim.thisRepN'
p922
I0
sg25
g30
sg898
g152
sS'trials.thisRepN'
p923
I2
sS'trials.thisN'
p924
I2
sg901
g55
(g79
S'\x02\x00\x00\x00\x00\x00\x00\x00'
p925
tp926
Rp927
sg24
g11
sS'trials.thisTrialN'
p928
I0
sS'block.thisIndex'
p929
g89
sg907
g55
(g79
S'\x03\x00\x00\x00\x00\x00\x00\x00'
p930
tp931
Rp932
sa(dp933
S'block.thisTrialN'
p934
I0
sS'stim.thisTrialN'
p935
I2
sS'block.thisRepN'
p936
I0
sg881
g882
sS'stim.thisIndex'
p937
g55
(g59
S'\x02\x00\x00\x00'
p938
tp939
Rp940
sg31
NsS'block.thisN'
p941
I0
sS'stim.thisN'
p942
I2
sg889
g890
sg891
g892
sg21
g22
sg23
I2
sS'trials.thisIndex'
p943
g896
sS'stim.thisRepN'
p944
I0
sg25
g30
sg898
g515
sS'trials.thisRepN'
p945
I2
sS'trials.thisN'
p946
I2
sg901
g55
(g79
S'\x03\x00\x00\x00\x00\x00\x00\x00'
p947
tp948
Rp949
sg24
g11
sS'trials.thisTrialN'
p950
I0
sS'block.thisIndex'
p951
g89
sg907
g55
(g79
S'\x03\x00\x00\x00\x00\x00\x00\x00'
p952
tp953
Rp954
sa(dp955
S'block.thisTrialN'
p956
I0
sS'stim.thisTrialN'
p957
I3
sS'block.thisRepN'
p958
I0
sg881
g882
sS'stim.thisIndex'
p959
g55
(g59
S'\x03\x00\x00\x00'
p960
tp961
Rp962
sg31
NsS'block.thisN'
p963
I0
sS'stim.thisN'
p964
I3
sg889
g890
sg891
g892
sg21
g22
sg23
I2
sS'trials.thisIndex'
p965
g896
sS'stim.thisRepN'
p966
I0
sg25
g30
sg898
VC
p967
sS'trials.thisRepN'
p968
I2
sS'trials.thisN'
p969
I2
sg901
g55
(g79
S'\x04\x00\x00\x00\x00\x00\x00\x00'
p970
tp971
Rp972
sg24
g11
sS'trials.thisTrialN'
p973
I0
sS'block.thisIndex'
p974
g89
sg907
g55
(g79
S'\x03\x00\x00\x00\x00\x00\x00\x00'
p975
tp976
Rp977
sa(dp978
S'block.thisTrialN'
p979
I0
sS'stim.thisTrialN'
p980
I4
sS'block.thisRepN'
p981
I0
sg881
g882
sS'stim.thisIndex'
p982
g55
(g59
S'\x04\x00\x00\x00'
p983
tp984
Rp985
sg31
NsS'block.thisN'
p986
I0
sS'stim.thisN'
p987
I4
sg889
g890
sg891
g892
sg21
g22
sg23
I2
sS'trials.thisIndex'
p988
g896
sS'stim.thisRepN'
p989
I0
sg25
g30
sg898
g266
sS'trials.thisRepN'
p990
I2
sS'trials.thisN'
p991
I2
sg901
g55
(g79
S'\x05\x00\x00\x00\x00\x00\x00\x00'
p992
tp993
Rp994
sg24
g11
sS'trials.thisTrialN'
p995
I0
sS'block.thisIndex'
p996
g89
sg907
g55
(g79
S'\x03\x00\x00\x00\x00\x00\x00\x00'
p997
tp998
Rp999
sa(dp1000
S'block.thisTrialN'
p1001
I0
sS'stim.thisTrialN'
p1002
I5
sS'block.thisRepN'
p1003
I0
sg881
g882
sS'stim.thisIndex'
p1004
g55
(g59
S'\x05\x00\x00\x00'
p1005
tp1006
Rp1007
sg31
NsS'block.thisN'
p1008
I0
sS'stim.thisN'
p1009
I5
sg889
g890
sg891
g892
sg21
g22
sg23
I2
sS'trials.thisIndex'
p1010
g896
sS'stim.thisRepN'
p1011
I0
sg25
g30
sg898
g289
sS'trials.thisRepN'
p1012
I2
sS'trials.thisN'
p1013
I2
sg901
g55
(g79
S'\x06\x00\x00\x00\x00\x00\x00\x00'
p1014
tp1015
Rp1016
sg24
g11
sS'trials.thisTrialN'
p1017
I0
sS'block.thisIndex'
p1018
g89
sg907
g55
(g79
S'\x03\x00\x00\x00\x00\x00\x00\x00'
p1019
tp1020
Rp1021
sa(dp1022
S'block.thisTrialN'
p1023
I0
sS'stim.thisTrialN'
p1024
I6
sS'block.thisRepN'
p1025
I0
sg881
g882
sS'stim.thisIndex'
p1026
g55
(g59
S'\x06\x00\x00\x00'
p1027
tp1028
Rp1029
sg31
NsS'block.thisN'
p1030
I0
sS'stim.thisN'
p1031
I6
sg889
g890
sg891
Vtarget
p1032
sg21
g22
sg23
I2
sS'trials.thisIndex'
p1033
g896
sS'stim.thisRepN'
p1034
I0
sg25
g30
sg898
V1
p1035
sS'trials.thisRepN'
p1036
I2
sS'trials.thisN'
p1037
I2
sg901
g55
(g79
S'\x07\x00\x00\x00\x00\x00\x00\x00'
p1038
tp1039
Rp1040
sg24
g11
sS'trials.thisTrialN'
p1041
I0
sS'block.thisIndex'
p1042
g89
sg907
g55
(g79
S'\x03\x00\x00\x00\x00\x00\x00\x00'
p1043
tp1044
Rp1045
sa(dp1046
S'block.thisTrialN'
p1047
I0
sS'stim.thisTrialN'
p1048
I7
sS'block.thisRepN'
p1049
I0
sg881
g882
sS'stim.thisIndex'
p1050
g55
(g59
S'\x07\x00\x00\x00'
p1051
tp1052
Rp1053
sg31
NsS'block.thisN'
p1054
I0
sS'stim.thisN'
p1055
I7
sg889
g890
sg891
g892
sg21
g22
sg23
I2
sS'trials.thisIndex'
p1056
g896
sS'stim.thisRepN'
p1057
I0
sg25
g30
sg898
g766
sS'trials.thisRepN'
p1058
I2
sS'trials.thisN'
p1059
I2
sg901
g55
(g79
S'\x08\x00\x00\x00\x00\x00\x00\x00'
p1060
tp1061
Rp1062
sg24
g11
sS'trials.thisTrialN'
p1063
I0
sS'block.thisIndex'
p1064
g89
sg907
g55
(g79
S'\x03\x00\x00\x00\x00\x00\x00\x00'
p1065
tp1066
Rp1067
sa(dp1068
S'block.thisTrialN'
p1069
I0
sS'stim.thisTrialN'
p1070
I8
sS'block.thisRepN'
p1071
I0
sg881
g882
sS'stim.thisIndex'
p1072
g55
(g59
S'\x08\x00\x00\x00'
p1073
tp1074
Rp1075
sg31
NsS'block.thisN'
p1076
I0
sS'stim.thisN'
p1077
I8
sg889
g890
sg891
g892
sg21
g22
sg23
I2
sS'trials.thisIndex'
p1078
g896
sS'stim.thisRepN'
p1079
I0
sg25
g30
sg898
g857
sS'trials.thisRepN'
p1080
I2
sS'trials.thisN'
p1081
I2
sg901
g55
(g79
S'\t\x00\x00\x00\x00\x00\x00\x00'
p1082
tp1083
Rp1084
sg24
g11
sS'trials.thisTrialN'
p1085
I0
sS'block.thisIndex'
p1086
g89
sg907
g55
(g79
S'\x03\x00\x00\x00\x00\x00\x00\x00'
p1087
tp1088
Rp1089
sa(dp1090
S'block.thisTrialN'
p1091
I0
sS'stim.thisTrialN'
p1092
I9
sS'block.thisRepN'
p1093
I0
sg881
g882
sS'stim.thisIndex'
p1094
g55
(g59
S'\t\x00\x00\x00'
p1095
tp1096
Rp1097
sg31
NsS'block.thisN'
p1098
I0
sS'stim.thisN'
p1099
I9
sg889
g890
sg891
g892
sg21
g22
sg23
I2
sS'trials.thisIndex'
p1100
g896
sS'stim.thisRepN'
p1101
I0
sg25
g30
sg898
g403
sS'trials.thisRepN'
p1102
I2
sS'trials.thisN'
p1103
I2
sg901
g55
(g79
S'\n\x00\x00\x00\x00\x00\x00\x00'
p1104
tp1105
Rp1106
sg24
g11
sS'trials.thisTrialN'
p1107
I0
sS'block.thisIndex'
p1108
g89
sg907
g55
(g79
S'\x03\x00\x00\x00\x00\x00\x00\x00'
p1109
tp1110
Rp1111
sa(dp1112
S'block.thisTrialN'
p1113
I0
sS'stim.thisTrialN'
p1114
I10
sS'block.thisRepN'
p1115
I0
sg881
g882
sS'stim.thisIndex'
p1116
g55
(g59
S'\n\x00\x00\x00'
p1117
tp1118
Rp1119
sg31
NsS'block.thisN'
p1120
I0
sS'stim.thisN'
p1121
I10
sg889
g890
sg891
g892
sg21
g22
sg23
I2
sS'trials.thisIndex'
p1122
g896
sS'stim.thisRepN'
p1123
I0
sg25
g30
sg898
g175
sS'trials.thisRepN'
p1124
I2
sS'trials.thisN'
p1125
I2
sg901
g55
(g79
S'\x0b\x00\x00\x00\x00\x00\x00\x00'
p1126
tp1127
Rp1128
sg24
g11
sS'trials.thisTrialN'
p1129
I0
sS'block.thisIndex'
p1130
g89
sg907
g55
(g79
S'\x03\x00\x00\x00\x00\x00\x00\x00'
p1131
tp1132
Rp1133
sa(dp1134
S'block.thisTrialN'
p1135
I0
sS'stim.thisTrialN'
p1136
I11
sS'block.thisRepN'
p1137
I0
sg881
g882
sS'stim.thisIndex'
p1138
g55
(g59
S'\x0b\x00\x00\x00'
p1139
tp1140
Rp1141
sg31
NsS'block.thisN'
p1142
I0
sS'stim.thisN'
p1143
I11
sg889
g890
sg891
Vmask
p1144
sg21
g22
sg23
I2
sS'trials.thisIndex'
p1145
g896
sS'stim.thisRepN'
p1146
I0
sg25
g30
sg898
g834
sS'trials.thisRepN'
p1147
I2
sS'trials.thisN'
p1148
I2
sg901
g55
(g79
S'\x0c\x00\x00\x00\x00\x00\x00\x00'
p1149
tp1150
Rp1151
sg24
g11
sS'trials.thisTrialN'
p1152
I0
sS'block.thisIndex'
p1153
g89
sg907
g55
(g79
S'\x03\x00\x00\x00\x00\x00\x00\x00'
p1154
tp1155
Rp1156
sa(dp1157
S'block.thisTrialN'
p1158
I0
sS'stim.thisTrialN'
p1159
I12
sS'block.thisRepN'
p1160
I0
sg881
g882
sS'stim.thisIndex'
p1161
g55
(g59
S'\x0c\x00\x00\x00'
p1162
tp1163
Rp1164
sg31
NsS'block.thisN'
p1165
I0
sS'stim.thisN'
p1166
I12
sg889
g890
sg891
g892
sg21
g22
sg23
I2
sS'trials.thisIndex'
p1167
g896
sS'stim.thisRepN'
p1168
I0
sg25
g30
sg898
g538
sS'trials.thisRepN'
p1169
I2
sS'trials.thisN'
p1170
I2
sg901
g55
(g79
S'\r\x00\x00\x00\x00\x00\x00\x00'
p1171
tp1172
Rp1173
sg24
g11
sS'trials.thisTrialN'
p1174
I0
sS'block.thisIndex'
p1175
g89
sg907
g55
(g79
S'\x03\x00\x00\x00\x00\x00\x00\x00'
p1176
tp1177
Rp1178
sa(dp1179
S'block.thisTrialN'
p1180
I0
sS'stim.thisTrialN'
p1181
I13
sS'block.thisRepN'
p1182
I0
sg881
g882
sS'stim.thisIndex'
p1183
g55
(g59
S'\r\x00\x00\x00'
p1184
tp1185
Rp1186
sg31
NsS'block.thisN'
p1187
I0
sS'stim.thisN'
p1188
I13
sg889
g890
sg891
g892
sg21
g22
sg23
I2
sS'trials.thisIndex'
p1189
g896
sS'stim.thisRepN'
p1190
I0
sg25
g30
sg898
g967
sS'trials.thisRepN'
p1191
I2
sS'trials.thisN'
p1192
I2
sg901
g55
(g79
S'\x0e\x00\x00\x00\x00\x00\x00\x00'
p1193
tp1194
Rp1195
sg24
g11
sS'trials.thisTrialN'
p1196
I0
sS'block.thisIndex'
p1197
g89
sg907
g55
(g79
S'\x03\x00\x00\x00\x00\x00\x00\x00'
p1198
tp1199
Rp1200
sa(dp1201
S'block.thisTrialN'
p1202
I0
sS'stim.thisTrialN'
p1203
I14
sS'block.thisRepN'
p1204
I0
sg881
g882
sS'stim.thisIndex'
p1205
g55
(g59
S'\x0e\x00\x00\x00'
p1206
tp1207
Rp1208
sg31
NsS'block.thisN'
p1209
I0
sS'stim.thisN'
p1210
I14
sg889
g890
sg891
g892
sg21
g22
sg23
I2
sS'trials.thisIndex'
p1211
g896
sS'stim.thisRepN'
p1212
I0
sg25
g30
sg898
g129
sS'trials.thisRepN'
p1213
I2
sS'trials.thisN'
p1214
I2
sg901
g55
(g79
S'\x0f\x00\x00\x00\x00\x00\x00\x00'
p1215
tp1216
Rp1217
sg24
g11
sS'trials.thisTrialN'
p1218
I0
sS'block.thisIndex'
p1219
g89
sg907
g55
(g79
S'\x03\x00\x00\x00\x00\x00\x00\x00'
p1220
tp1221
Rp1222
sa(dp1223
S'block.thisTrialN'
p1224
I0
sS'stim.thisTrialN'
p1225
I15
sS'block.thisRepN'
p1226
I0
sg881
g882
sS'stim.thisIndex'
p1227
g55
(g59
S'\x0f\x00\x00\x00'
p1228
tp1229
Rp1230
sg31
NsS'block.thisN'
p1231
I0
sS'stim.thisN'
p1232
I15
sg889
g890
sg891
g892
sg21
g22
sg23
I2
sS'trials.thisIndex'
p1233
g896
sS'stim.thisRepN'
p1234
I0
sg25
g30
sg898
g766
sS'trials.thisRepN'
p1235
I2
sS'trials.thisN'
p1236
I2
sg901
g55
(g79
S'\x10\x00\x00\x00\x00\x00\x00\x00'
p1237
tp1238
Rp1239
sg24
g11
sS'trials.thisTrialN'
p1240
I0
sS'block.thisIndex'
p1241
g89
sg907
g55
(g79
S'\x03\x00\x00\x00\x00\x00\x00\x00'
p1242
tp1243
Rp1244
sa(dp1245
S'block.thisTrialN'
p1246
I0
sS'block.thisRepN'
p1247
I0
sg16
S'5'
p1248
sS'trials.thisRepN'
p1249
I2
sg15
F1.2768697999999858
sg25
g30
sS'block.thisN'
p1250
I0
sg31
NsS'trials.thisN'
p1251
I2
sg14
g1248
sg24
g11
sS'trials.thisTrialN'
p1252
I0
sS'trials.thisIndex'
p1253
g896
sg21
g22
sg23
I2
sS'block.thisIndex'
p1254
g89
sg17
F0.15384839999023825
sa(dp1255
S'block.thisTrialN'
p1256
I0
sS'stim.thisTrialN'
p1257
I0
sS'block.thisRepN'
p1258
I0
sS'Tx'
p1259
Vt2
p1260
sS'stim.thisIndex'
p1261
g55
(g59
S'\x00\x00\x00\x00'
p1262
tp1263
Rp1264
sg31
NsS'block.thisN'
p1265
I0
sS'stim.thisN'
p1266
I0
sS'sep_dur'
p1267
Vlong
p1268
sS'cond'
p1269
Vdistractor
p1270
sg21
g22
sg23
I2
sS'trials.thisIndex'
p1271
g55
(g59
S'\x00\x00\x00\x00'
p1272
tp1273
Rp1274
sS'stim.thisRepN'
p1275
I0
sg25
g30
sS'stimulus'
p1276
g289
sS'trials.thisRepN'
p1277
I3
sS'trials.thisN'
p1278
I3
sS'trial'
p1279
g55
(g79
S'\x01\x00\x00\x00\x00\x00\x00\x00'
p1280
tp1281
Rp1282
sg24
g11
sS'trials.thisTrialN'
p1283
I0
sS'block.thisIndex'
p1284
g89
sS'block'
p1285
g55
(g79
S'\x04\x00\x00\x00\x00\x00\x00\x00'
p1286
tp1287
Rp1288
sa(dp1289
S'block.thisTrialN'
p1290
I0
sS'stim.thisTrialN'
p1291
I1
sS'block.thisRepN'
p1292
I0
sg1259
g1260
sS'stim.thisIndex'
p1293
g55
(g59
S'\x01\x00\x00\x00'
p1294
tp1295
Rp1296
sg31
NsS'block.thisN'
p1297
I0
sS'stim.thisN'
p1298
I1
sg1267
g1268
sg1269
g1270
sg21
g22
sg23
I2
sS'trials.thisIndex'
p1299
g1274
sS'stim.thisRepN'
p1300
I0
sg25
g30
sg1276
g561
sS'trials.thisRepN'
p1301
I3
sS'trials.thisN'
p1302
I3
sg1279
g55
(g79
S'\x02\x00\x00\x00\x00\x00\x00\x00'
p1303
tp1304
Rp1305
sg24
g11
sS'trials.thisTrialN'
p1306
I0
sS'block.thisIndex'
p1307
g89
sg1285
g55
(g79
S'\x04\x00\x00\x00\x00\x00\x00\x00'
p1308
tp1309
Rp1310
sa(dp1311
S'block.thisTrialN'
p1312
I0
sS'stim.thisTrialN'
p1313
I2
sS'block.thisRepN'
p1314
I0
sg1259
g1260
sS'stim.thisIndex'
p1315
g55
(g59
S'\x02\x00\x00\x00'
p1316
tp1317
Rp1318
sg31
NsS'block.thisN'
p1319
I0
sS'stim.thisN'
p1320
I2
sg1267
g1268
sg1269
g1270
sg21
g22
sg23
I2
sS'trials.thisIndex'
p1321
g1274
sS'stim.thisRepN'
p1322
I0
sg25
g30
sg1276
g335
sS'trials.thisRepN'
p1323
I3
sS'trials.thisN'
p1324
I3
sg1279
g55
(g79
S'\x03\x00\x00\x00\x00\x00\x00\x00'
p1325
tp1326
Rp1327
sg24
g11
sS'trials.thisTrialN'
p1328
I0
sS'block.thisIndex'
p1329
g89
sg1285
g55
(g79
S'\x04\x00\x00\x00\x00\x00\x00\x00'
p1330
tp1331
Rp1332
sa(dp1333
S'block.thisTrialN'
p1334
I0
sS'stim.thisTrialN'
p1335
I3
sS'block.thisRepN'
p1336
I0
sg1259
g1260
sS'stim.thisIndex'
p1337
g55
(g59
S'\x03\x00\x00\x00'
p1338
tp1339
Rp1340
sg31
NsS'block.thisN'
p1341
I0
sS'stim.thisN'
p1342
I3
sg1267
g1268
sg1269
g1270
sg21
g22
sg23
I2
sS'trials.thisIndex'
p1343
g1274
sS'stim.thisRepN'
p1344
I0
sg25
g30
sg1276
VB
p1345
sS'trials.thisRepN'
p1346
I3
sS'trials.thisN'
p1347
I3
sg1279
g55
(g79
S'\x04\x00\x00\x00\x00\x00\x00\x00'
p1348
tp1349
Rp1350
sg24
g11
sS'trials.thisTrialN'
p1351
I0
sS'block.thisIndex'
p1352
g89
sg1285
g55
(g79
S'\x04\x00\x00\x00\x00\x00\x00\x00'
p1353
tp1354
Rp1355
sa(dp1356
S'block.thisTrialN'
p1357
I0
sS'stim.thisTrialN'
p1358
I4
sS'block.thisRepN'
p1359
I0
sg1259
g1260
sS'stim.thisIndex'
p1360
g55
(g59
S'\x04\x00\x00\x00'
p1361
tp1362
Rp1363
sg31
NsS'block.thisN'
p1364
I0
sS'stim.thisN'
p1365
I4
sg1267
g1268
sg1269
g1270
sg21
g22
sg23
I2
sS'trials.thisIndex'
p1366
g1274
sS'stim.thisRepN'
p1367
I0
sg25
g30
sg1276
g967
sS'trials.thisRepN'
p1368
I3
sS'trials.thisN'
p1369
I3
sg1279
g55
(g79
S'\x05\x00\x00\x00\x00\x00\x00\x00'
p1370
tp1371
Rp1372
sg24
g11
sS'trials.thisTrialN'
p1373
I0
sS'block.thisIndex'
p1374
g89
sg1285
g55
(g79
S'\x04\x00\x00\x00\x00\x00\x00\x00'
p1375
tp1376
Rp1377
sa(dp1378
S'block.thisTrialN'
p1379
I0
sS'stim.thisTrialN'
p1380
I5
sS'block.thisRepN'
p1381
I0
sg1259
g1260
sS'stim.thisIndex'
p1382
g55
(g59
S'\x05\x00\x00\x00'
p1383
tp1384
Rp1385
sg31
NsS'block.thisN'
p1386
I0
sS'stim.thisN'
p1387
I5
sg1267
g1268
sg1269
Vtarget
p1388
sg21
g22
sg23
I2
sS'trials.thisIndex'
p1389
g1274
sS'stim.thisRepN'
p1390
I0
sg25
g30
sg1276
V7
p1391
sS'trials.thisRepN'
p1392
I3
sS'trials.thisN'
p1393
I3
sg1279
g55
(g79
S'\x06\x00\x00\x00\x00\x00\x00\x00'
p1394
tp1395
Rp1396
sg24
g11
sS'trials.thisTrialN'
p1397
I0
sS'block.thisIndex'
p1398
g89
sg1285
g55
(g79
S'\x04\x00\x00\x00\x00\x00\x00\x00'
p1399
tp1400
Rp1401
sa(dp1402
S'block.thisTrialN'
p1403
I0
sS'stim.thisTrialN'
p1404
I6
sS'block.thisRepN'
p1405
I0
sg1259
g1260
sS'stim.thisIndex'
p1406
g55
(g59
S'\x06\x00\x00\x00'
p1407
tp1408
Rp1409
sg31
NsS'block.thisN'
p1410
I0
sS'stim.thisN'
p1411
I6
sg1267
g1268
sg1269
g1270
sg21
g22
sg23
I2
sS'trials.thisIndex'
p1412
g1274
sS'stim.thisRepN'
p1413
I0
sg25
g30
sg1276
g426
sS'trials.thisRepN'
p1414
I3
sS'trials.thisN'
p1415
I3
sg1279
g55
(g79
S'\x07\x00\x00\x00\x00\x00\x00\x00'
p1416
tp1417
Rp1418
sg24
g11
sS'trials.thisTrialN'
p1419
I0
sS'block.thisIndex'
p1420
g89
sg1285
g55
(g79
S'\x04\x00\x00\x00\x00\x00\x00\x00'
p1421
tp1422
Rp1423
sa(dp1424
S'block.thisTrialN'
p1425
I0
sS'stim.thisTrialN'
p1426
I7
sS'block.thisRepN'
p1427
I0
sg1259
g1260
sS'stim.thisIndex'
p1428
g55
(g59
S'\x07\x00\x00\x00'
p1429
tp1430
Rp1431
sg31
NsS'block.thisN'
p1432
I0
sS'stim.thisN'
p1433
I7
sg1267
g1268
sg1269
g1270
sg21
g22
sg23
I2
sS'trials.thisIndex'
p1434
g1274
sS'stim.thisRepN'
p1435
I0
sg25
g30
sg1276
g607
sS'trials.thisRepN'
p1436
I3
sS'trials.thisN'
p1437
I3
sg1279
g55
(g79
S'\x08\x00\x00\x00\x00\x00\x00\x00'
p1438
tp1439
Rp1440
sg24
g11
sS'trials.thisTrialN'
p1441
I0
sS'block.thisIndex'
p1442
g89
sg1285
g55
(g79
S'\x04\x00\x00\x00\x00\x00\x00\x00'
p1443
tp1444
Rp1445
sa(dp1446
S'block.thisTrialN'
p1447
I0
sS'stim.thisTrialN'
p1448
I8
sS'block.thisRepN'
p1449
I0
sg1259
g1260
sS'stim.thisIndex'
p1450
g55
(g59
S'\x08\x00\x00\x00'
p1451
tp1452
Rp1453
sg31
NsS'block.thisN'
p1454
I0
sS'stim.thisN'
p1455
I8
sg1267
g1268
sg1269
g1270
sg21
g22
sg23
I2
sS'trials.thisIndex'
p1456
g1274
sS'stim.thisRepN'
p1457
I0
sg25
g30
sg1276
VF
p1458
sS'trials.thisRepN'
p1459
I3
sS'trials.thisN'
p1460
I3
sg1279
g55
(g79
S'\t\x00\x00\x00\x00\x00\x00\x00'
p1461
tp1462
Rp1463
sg24
g11
sS'trials.thisTrialN'
p1464
I0
sS'block.thisIndex'
p1465
g89
sg1285
g55
(g79
S'\x04\x00\x00\x00\x00\x00\x00\x00'
p1466
tp1467
Rp1468
sa(dp1469
S'block.thisTrialN'
p1470
I0
sS'stim.thisTrialN'
p1471
I9
sS'block.thisRepN'
p1472
I0
sg1259
g1260
sS'stim.thisIndex'
p1473
g55
(g59
S'\t\x00\x00\x00'
p1474
tp1475
Rp1476
sg31
NsS'block.thisN'
p1477
I0
sS'stim.thisN'
p1478
I9
sg1267
g1268
sg1269
g1270
sg21
g22
sg23
I2
sS'trials.thisIndex'
p1479
g1274
sS'stim.thisRepN'
p1480
I0
sg25
g30
sg1276
g426
sS'trials.thisRepN'
p1481
I3
sS'trials.thisN'
p1482
I3
sg1279
g55
(g79
S'\n\x00\x00\x00\x00\x00\x00\x00'
p1483
tp1484
Rp1485
sg24
g11
sS'trials.thisTrialN'
p1486
I0
sS'block.thisIndex'
p1487
g89
sg1285
g55
(g79
S'\x04\x00\x00\x00\x00\x00\x00\x00'
p1488
tp1489
Rp1490
sa(dp1491
S'block.thisTrialN'
p1492
I0
sS'stim.thisTrialN'
p1493
I10
sS'block.thisRepN'
p1494
I0
sg1259
g1260
sS'stim.thisIndex'
p1495
g55
(g59
S'\n\x00\x00\x00'
p1496
tp1497
Rp1498
sg31
NsS'block.thisN'
p1499
I0
sS'stim.thisN'
p1500
I10
sg1267
g1268
sg1269
g1270
sg21
g22
sg23
I2
sS'trials.thisIndex'
p1501
g1274
sS'stim.thisRepN'
p1502
I0
sg25
g30
sg1276
VD
p1503
sS'trials.thisRepN'
p1504
I3
sS'trials.thisN'
p1505
I3
sg1279
g55
(g79
S'\x0b\x00\x00\x00\x00\x00\x00\x00'
p1506
tp1507
Rp1508
sg24
g11
sS'trials.thisTrialN'
p1509
I0
sS'block.thisIndex'
p1510
g89
sg1285
g55
(g79
S'\x04\x00\x00\x00\x00\x00\x00\x00'
p1511
tp1512
Rp1513
sa(dp1514
S'block.thisTrialN'
p1515
I0
sS'stim.thisTrialN'
p1516
I11
sS'block.thisRepN'
p1517
I0
sg1259
g1260
sS'stim.thisIndex'
p1518
g55
(g59
S'\x0b\x00\x00\x00'
p1519
tp1520
Rp1521
sg31
NsS'block.thisN'
p1522
I0
sS'stim.thisN'
p1523
I11
sg1267
g1268
sg1269
g1270
sg21
g22
sg23
I2
sS'trials.thisIndex'
p1524
g1274
sS'stim.thisRepN'
p1525
I0
sg25
g30
sg1276
g1345
sS'trials.thisRepN'
p1526
I3
sS'trials.thisN'
p1527
I3
sg1279
g55
(g79
S'\x0c\x00\x00\x00\x00\x00\x00\x00'
p1528
tp1529
Rp1530
sg24
g11
sS'trials.thisTrialN'
p1531
I0
sS'block.thisIndex'
p1532
g89
sg1285
g55
(g79
S'\x04\x00\x00\x00\x00\x00\x00\x00'
p1533
tp1534
Rp1535
sa(dp1536
S'block.thisTrialN'
p1537
I0
sS'stim.thisTrialN'
p1538
I12
sS'block.thisRepN'
p1539
I0
sg1259
g1260
sS'stim.thisIndex'
p1540
g55
(g59
S'\x0c\x00\x00\x00'
p1541
tp1542
Rp1543
sg31
NsS'block.thisN'
p1544
I0
sS'stim.thisN'
p1545
I12
sg1267
g1268
sg1269
g1270
sg21
g22
sg23
I2
sS'trials.thisIndex'
p1546
g1274
sS'stim.thisRepN'
p1547
I0
sg25
g30
sg1276
g1345
sS'trials.thisRepN'
p1548
I3
sS'trials.thisN'
p1549
I3
sg1279
g55
(g79
S'\r\x00\x00\x00\x00\x00\x00\x00'
p1550
tp1551
Rp1552
sg24
g11
sS'trials.thisTrialN'
p1553
I0
sS'block.thisIndex'
p1554
g89
sg1285
g55
(g79
S'\x04\x00\x00\x00\x00\x00\x00\x00'
p1555
tp1556
Rp1557
sa(dp1558
S'block.thisTrialN'
p1559
I0
sS'stim.thisTrialN'
p1560
I13
sS'block.thisRepN'
p1561
I0
sg1259
g1260
sS'stim.thisIndex'
p1562
g55
(g59
S'\r\x00\x00\x00'
p1563
tp1564
Rp1565
sg31
NsS'block.thisN'
p1566
I0
sS'stim.thisN'
p1567
I13
sg1267
g1268
sg1269
g1270
sg21
g22
sg23
I2
sS'trials.thisIndex'
p1568
g1274
sS'stim.thisRepN'
p1569
I0
sg25
g30
sg1276
g538
sS'trials.thisRepN'
p1570
I3
sS'trials.thisN'
p1571
I3
sg1279
g55
(g79
S'\x0e\x00\x00\x00\x00\x00\x00\x00'
p1572
tp1573
Rp1574
sg24
g11
sS'trials.thisTrialN'
p1575
I0
sS'block.thisIndex'
p1576
g89
sg1285
g55
(g79
S'\x04\x00\x00\x00\x00\x00\x00\x00'
p1577
tp1578
Rp1579
sa(dp1580
S'block.thisTrialN'
p1581
I0
sS'stim.thisTrialN'
p1582
I14
sS'block.thisRepN'
p1583
I0
sg1259
g1260
sS'stim.thisIndex'
p1584
g55
(g59
S'\x0e\x00\x00\x00'
p1585
tp1586
Rp1587
sg31
NsS'block.thisN'
p1588
I0
sS'stim.thisN'
p1589
I14
sg1267
g1268
sg1269
g1388
sg21
g22
sg23
I2
sS'trials.thisIndex'
p1590
g1274
sS'stim.thisRepN'
p1591
I0
sg25
g30
sg1276
g106
sS'trials.thisRepN'
p1592
I3
sS'trials.thisN'
p1593
I3
sg1279
g55
(g79
S'\x0f\x00\x00\x00\x00\x00\x00\x00'
p1594
tp1595
Rp1596
sg24
g11
sS'trials.thisTrialN'
p1597
I0
sS'block.thisIndex'
p1598
g89
sg1285
g55
(g79
S'\x04\x00\x00\x00\x00\x00\x00\x00'
p1599
tp1600
Rp1601
sa(dp1602
S'block.thisTrialN'
p1603
I0
sS'block.thisRepN'
p1604
I0
sg16
g1248
sS'trials.thisRepN'
p1605
I3
sg15
F0.7159329999994952
sg25
g30
sS'block.thisN'
p1606
I0
sg31
NsS'trials.thisN'
p1607
I3
sg14
g1248
sg24
g11
sS'trials.thisTrialN'
p1608
I0
sS'trials.thisIndex'
p1609
g1274
sg21
g22
sg23
I2
sS'block.thisIndex'
p1610
g89
sg17
F0.1527048999996623
sa(dp1611
S'block.thisTrialN'
p1612
I0
sS'block.thisRepN'
p1613
I0
sg31
Nsg25
g30
sS'block.thisN'
p1614
I0
sg24
g11
sg21
g22
sg23
I2
sS'block.thisIndex'
p1615
g89
sa(dp1616
S'block.thisTrialN'
p1617
I0
sS'stim.thisTrialN'
p1618
I0
sS'block.thisRepN'
p1619
I1
sS'Tx'
p1620
Vt1
p1621
sS'stim.thisIndex'
p1622
g55
(g59
S'\x00\x00\x00\x00'
p1623
tp1624
Rp1625
sg31
NsS'block.thisN'
p1626
I1
sS'stim.thisN'
p1627
I0
sS'sep_dur'
p1628
Vshort
p1629
sS'cond'
p1630
Vdistractor
p1631
sg21
g22
sg23
I2
sS'trials.thisIndex'
p1632
g55
(g59
S'\x00\x00\x00\x00'
p1633
tp1634
Rp1635
sS'stim.thisRepN'
p1636
I0
sg25
g30
sS'stimulus'
p1637
g74
sS'trials.thisRepN'
p1638
I0
sS'trials.thisN'
p1639
I0
sS'trial'
p1640
g55
(g79
S'\x01\x00\x00\x00\x00\x00\x00\x00'
p1641
tp1642
Rp1643
sg24
g11
sS'trials.thisTrialN'
p1644
I0
sS'block.thisIndex'
p1645
g55
(g59
S'\x00\x00\x00\x00'
p1646
tp1647
Rp1648
sS'block'
p1649
g55
(g79
S'\x05\x00\x00\x00\x00\x00\x00\x00'
p1650
tp1651
Rp1652
sa(dp1653
S'block.thisTrialN'
p1654
I0
sS'stim.thisTrialN'
p1655
I1
sS'block.thisRepN'
p1656
I1
sg1620
g1621
sS'stim.thisIndex'
p1657
g55
(g59
S'\x01\x00\x00\x00'
p1658
tp1659
Rp1660
sg31
NsS'block.thisN'
p1661
I1
sS'stim.thisN'
p1662
I1
sg1628
g1629
sg1630
g1631
sg21
g22
sg23
I2
sS'trials.thisIndex'
p1663
g1635
sS'stim.thisRepN'
p1664
I0
sg25
g30
sg1637
g584
sS'trials.thisRepN'
p1665
I0
sS'trials.thisN'
p1666
I0
sg1640
g55
(g79
S'\x02\x00\x00\x00\x00\x00\x00\x00'
p1667
tp1668
Rp1669
sg24
g11
sS'trials.thisTrialN'
p1670
I0
sS'block.thisIndex'
p1671
g1648
sg1649
g55
(g79
S'\x05\x00\x00\x00\x00\x00\x00\x00'
p1672
tp1673
Rp1674
sa(dp1675
S'block.thisTrialN'
p1676
I0
sS'stim.thisTrialN'
p1677
I2
sS'block.thisRepN'
p1678
I1
sg1620
g1621
sS'stim.thisIndex'
p1679
g55
(g59
S'\x02\x00\x00\x00'
p1680
tp1681
Rp1682
sg31
NsS'block.thisN'
p1683
I1
sS'stim.thisN'
p1684
I2
sg1628
g1629
sg1630
g1631
sg21
g22
sg23
I2
sS'trials.thisIndex'
p1685
g1635
sS'stim.thisRepN'
p1686
I0
sg25
g30
sg1637
g403
sS'trials.thisRepN'
p1687
I0
sS'trials.thisN'
p1688
I0
sg1640
g55
(g79
S'\x03\x00\x00\x00\x00\x00\x00\x00'
p1689
tp1690
Rp1691
sg24
g11
sS'trials.thisTrialN'
p1692
I0
sS'block.thisIndex'
p1693
g1648
sg1649
g55
(g79
S'\x05\x00\x00\x00\x00\x00\x00\x00'
p1694
tp1695
Rp1696
sa(dp1697
S'block.thisTrialN'
p1698
I0
sS'stim.thisTrialN'
p1699
I3
sS'block.thisRepN'
p1700
I1
sg1620
g1621
sS'stim.thisIndex'
p1701
g55
(g59
S'\x03\x00\x00\x00'
p1702
tp1703
Rp1704
sg31
NsS'block.thisN'
p1705
I1
sS'stim.thisN'
p1706
I3
sg1628
g1629
sg1630
g1631
sg21
g22
sg23
I2
sS'trials.thisIndex'
p1707
g1635
sS'stim.thisRepN'
p1708
I0
sg25
g30
sg1637
g1503
sS'trials.thisRepN'
p1709
I0
sS'trials.thisN'
p1710
I0
sg1640
g55
(g79
S'\x04\x00\x00\x00\x00\x00\x00\x00'
p1711
tp1712
Rp1713
sg24
g11
sS'trials.thisTrialN'
p1714
I0
sS'block.thisIndex'
p1715
g1648
sg1649
g55
(g79
S'\x05\x00\x00\x00\x00\x00\x00\x00'
p1716
tp1717
Rp1718
sa(dp1719
S'block.thisTrialN'
p1720
I0
sS'stim.thisTrialN'
p1721
I4
sS'block.thisRepN'
p1722
I1
sg1620
g1621
sS'stim.thisIndex'
p1723
g55
(g59
S'\x04\x00\x00\x00'
p1724
tp1725
Rp1726
sg31
NsS'block.thisN'
p1727
I1
sS'stim.thisN'
p1728
I4
sg1628
g1629
sg1630
g1631
sg21
g22
sg23
I2
sS'trials.thisIndex'
p1729
g1635
sS'stim.thisRepN'
p1730
I0
sg25
g30
sg1637
g198
sS'trials.thisRepN'
p1731
I0
sS'trials.thisN'
p1732
I0
sg1640
g55
(g79
S'\x05\x00\x00\x00\x00\x00\x00\x00'
p1733
tp1734
Rp1735
sg24
g11
sS'trials.thisTrialN'
p1736
I0
sS'block.thisIndex'
p1737
g1648
sg1649
g55
(g79
S'\x05\x00\x00\x00\x00\x00\x00\x00'
p1738
tp1739
Rp1740
sa(dp1741
S'block.thisTrialN'
p1742
I0
sS'stim.thisTrialN'
p1743
I5
sS'block.thisRepN'
p1744
I1
sg1620
g1621
sS'stim.thisIndex'
p1745
g55
(g59
S'\x05\x00\x00\x00'
p1746
tp1747
Rp1748
sg31
NsS'block.thisN'
p1749
I1
sS'stim.thisN'
p1750
I5
sg1628
g1629
sg1630
g1631
sg21
g22
sg23
I2
sS'trials.thisIndex'
p1751
g1635
sS'stim.thisRepN'
p1752
I0
sg25
g30
sg1637
g857
sS'trials.thisRepN'
p1753
I0
sS'trials.thisN'
p1754
I0
sg1640
g55
(g79
S'\x06\x00\x00\x00\x00\x00\x00\x00'
p1755
tp1756
Rp1757
sg24
g11
sS'trials.thisTrialN'
p1758
I0
sS'block.thisIndex'
p1759
g1648
sg1649
g55
(g79
S'\x05\x00\x00\x00\x00\x00\x00\x00'
p1760
tp1761
Rp1762
sa(dp1763
S'block.thisTrialN'
p1764
I0
sS'stim.thisTrialN'
p1765
I6
sS'block.thisRepN'
p1766
I1
sg1620
g1621
sS'stim.thisIndex'
p1767
g55
(g59
S'\x06\x00\x00\x00'
p1768
tp1769
Rp1770
sg31
NsS'block.thisN'
p1771
I1
sS'stim.thisN'
p1772
I6
sg1628
g1629
sg1630
g1631
sg21
g22
sg23
I2
sS'trials.thisIndex'
p1773
g1635
sS'stim.thisRepN'
p1774
I0
sg25
g30
sg1637
g561
sS'trials.thisRepN'
p1775
I0
sS'trials.thisN'
p1776
I0
sg1640
g55
(g79
S'\x07\x00\x00\x00\x00\x00\x00\x00'
p1777
tp1778
Rp1779
sg24
g11
sS'trials.thisTrialN'
p1780
I0
sS'block.thisIndex'
p1781
g1648
sg1649
g55
(g79
S'\x05\x00\x00\x00\x00\x00\x00\x00'
p1782
tp1783
Rp1784
sa(dp1785
S'block.thisTrialN'
p1786
I0
sS'stim.thisTrialN'
p1787
I7
sS'block.thisRepN'
p1788
I1
sg1620
g1621
sS'stim.thisIndex'
p1789
g55
(g59
S'\x07\x00\x00\x00'
p1790
tp1791
Rp1792
sg31
NsS'block.thisN'
p1793
I1
sS'stim.thisN'
p1794
I7
sg1628
g1629
sg1630
g1631
sg21
g22
sg23
I2
sS'trials.thisIndex'
p1795
g1635
sS'stim.thisRepN'
p1796
I0
sg25
g30
sg1637
g152
sS'trials.thisRepN'
p1797
I0
sS'trials.thisN'
p1798
I0
sg1640
g55
(g79
S'\x08\x00\x00\x00\x00\x00\x00\x00'
p1799
tp1800
Rp1801
sg24
g11
sS'trials.thisTrialN'
p1802
I0
sS'block.thisIndex'
p1803
g1648
sg1649
g55
(g79
S'\x05\x00\x00\x00\x00\x00\x00\x00'
p1804
tp1805
Rp1806
sa(dp1807
S'block.thisTrialN'
p1808
I0
sS'stim.thisTrialN'
p1809
I8
sS'block.thisRepN'
p1810
I1
sg1620
g1621
sS'stim.thisIndex'
p1811
g55
(g59
S'\x08\x00\x00\x00'
p1812
tp1813
Rp1814
sg31
NsS'block.thisN'
p1815
I1
sS'stim.thisN'
p1816
I8
sg1628
g1629
sg1630
g1631
sg21
g22
sg23
I2
sS'trials.thisIndex'
p1817
g1635
sS'stim.thisRepN'
p1818
I0
sg25
g30
sg1637
g289
sS'trials.thisRepN'
p1819
I0
sS'trials.thisN'
p1820
I0
sg1640
g55
(g79
S'\t\x00\x00\x00\x00\x00\x00\x00'
p1821
tp1822
Rp1823
sg24
g11
sS'trials.thisTrialN'
p1824
I0
sS'block.thisIndex'
p1825
g1648
sg1649
g55
(g79
S'\x05\x00\x00\x00\x00\x00\x00\x00'
p1826
tp1827
Rp1828
sa(dp1829
S'block.thisTrialN'
p1830
I0
sS'stim.thisTrialN'
p1831
I9
sS'block.thisRepN'
p1832
I1
sg1620
g1621
sS'stim.thisIndex'
p1833
g55
(g59
S'\t\x00\x00\x00'
p1834
tp1835
Rp1836
sg31
NsS'block.thisN'
p1837
I1
sS'stim.thisN'
p1838
I9
sg1628
g1629
sg1630
Vtarget
p1839
sg21
g22
sg23
I2
sS'trials.thisIndex'
p1840
g1635
sS'stim.thisRepN'
p1841
I0
sg25
g30
sg1637
V8
p1842
sS'trials.thisRepN'
p1843
I0
sS'trials.thisN'
p1844
I0
sg1640
g55
(g79
S'\n\x00\x00\x00\x00\x00\x00\x00'
p1845
tp1846
Rp1847
sg24
g11
sS'trials.thisTrialN'
p1848
I0
sS'block.thisIndex'
p1849
g1648
sg1649
g55
(g79
S'\x05\x00\x00\x00\x00\x00\x00\x00'
p1850
tp1851
Rp1852
sa(dp1853
S'block.thisTrialN'
p1854
I0
sS'stim.thisTrialN'
p1855
I10
sS'block.thisRepN'
p1856
I1
sg1620
g1621
sS'stim.thisIndex'
p1857
g55
(g59
S'\n\x00\x00\x00'
p1858
tp1859
Rp1860
sg31
NsS'block.thisN'
p1861
I1
sS'stim.thisN'
p1862
I10
sg1628
g1629
sg1630
g1631
sg21
g22
sg23
I2
sS'trials.thisIndex'
p1863
g1635
sS'stim.thisRepN'
p1864
I0
sg25
g30
sg1637
VR
p1865
sS'trials.thisRepN'
p1866
I0
sS'trials.thisN'
p1867
I0
sg1640
g55
(g79
S'\x0b\x00\x00\x00\x00\x00\x00\x00'
p1868
tp1869
Rp1870
sg24
g11
sS'trials.thisTrialN'
p1871
I0
sS'block.thisIndex'
p1872
g1648
sg1649
g55
(g79
S'\x05\x00\x00\x00\x00\x00\x00\x00'
p1873
tp1874
Rp1875
sa(dp1876
S'block.thisTrialN'
p1877
I0
sS'stim.thisTrialN'
p1878
I11
sS'block.thisRepN'
p1879
I1
sg1620
g1621
sS'stim.thisIndex'
p1880
g55
(g59
S'\x0b\x00\x00\x00'
p1881
tp1882
Rp1883
sg31
NsS'block.thisN'
p1884
I1
sS'stim.thisN'
p1885
I11
sg1628
g1629
sg1630
g1631
sg21
g22
sg23
I2
sS'trials.thisIndex'
p1886
g1635
sS'stim.thisRepN'
p1887
I0
sg25
g30
sg1637
g403
sS'trials.thisRepN'
p1888
I0
sS'trials.thisN'
p1889
I0
sg1640
g55
(g79
S'\x0c\x00\x00\x00\x00\x00\x00\x00'
p1890
tp1891
Rp1892
sg24
g11
sS'trials.thisTrialN'
p1893
I0
sS'block.thisIndex'
p1894
g1648
sg1649
g55
(g79
S'\x05\x00\x00\x00\x00\x00\x00\x00'
p1895
tp1896
Rp1897
sa(dp1898
S'block.thisTrialN'
p1899
I0
sS'stim.thisTrialN'
p1900
I12
sS'block.thisRepN'
p1901
I1
sg1620
g1621
sS'stim.thisIndex'
p1902
g55
(g59
S'\x0c\x00\x00\x00'
p1903
tp1904
Rp1905
sg31
NsS'block.thisN'
p1906
I1
sS'stim.thisN'
p1907
I12
sg1628
g1629
sg1630
g1631
sg21
g22
sg23
I2
sS'trials.thisIndex'
p1908
g1635
sS'stim.thisRepN'
p1909
I0
sg25
g30
sg1637
g538
sS'trials.thisRepN'
p1910
I0
sS'trials.thisN'
p1911
I0
sg1640
g55
(g79
S'\r\x00\x00\x00\x00\x00\x00\x00'
p1912
tp1913
Rp1914
sg24
g11
sS'trials.thisTrialN'
p1915
I0
sS'block.thisIndex'
p1916
g1648
sg1649
g55
(g79
S'\x05\x00\x00\x00\x00\x00\x00\x00'
p1917
tp1918
Rp1919
sa(dp1920
S'block.thisTrialN'
p1921
I0
sS'stim.thisTrialN'
p1922
I13
sS'block.thisRepN'
p1923
I1
sg1620
g1621
sS'stim.thisIndex'
p1924
g55
(g59
S'\r\x00\x00\x00'
p1925
tp1926
Rp1927
sg31
NsS'block.thisN'
p1928
I1
sS'stim.thisN'
p1929
I13
sg1628
g1629
sg1630
g1631
sg21
g22
sg23
I2
sS'trials.thisIndex'
p1930
g1635
sS'stim.thisRepN'
p1931
I0
sg25
g30
sg1637
g1458
sS'trials.thisRepN'
p1932
I0
sS'trials.thisN'
p1933
I0
sg1640
g55
(g79
S'\x0e\x00\x00\x00\x00\x00\x00\x00'
p1934
tp1935
Rp1936
sg24
g11
sS'trials.thisTrialN'
p1937
I0
sS'block.thisIndex'
p1938
g1648
sg1649
g55
(g79
S'\x05\x00\x00\x00\x00\x00\x00\x00'
p1939
tp1940
Rp1941
sa(dp1942
S'block.thisTrialN'
p1943
I0
sS'stim.thisTrialN'
p1944
I14
sS'block.thisRepN'
p1945
I1
sg1620
g1621
sS'stim.thisIndex'
p1946
g55
(g59
S'\x0e\x00\x00\x00'
p1947
tp1948
Rp1949
sg31
NsS'block.thisN'
p1950
I1
sS'stim.thisN'
p1951
I14
sg1628
g1629
sg1630
Vmask
p1952
sg21
g22
sg23
I2
sS'trials.thisIndex'
p1953
g1635
sS'stim.thisRepN'
p1954
I0
sg25
g30
sg1637
g834
sS'trials.thisRepN'
p1955
I0
sS'trials.thisN'
p1956
I0
sg1640
g55
(g79
S'\x0f\x00\x00\x00\x00\x00\x00\x00'
p1957
tp1958
Rp1959
sg24
g11
sS'trials.thisTrialN'
p1960
I0
sS'block.thisIndex'
p1961
g1648
sg1649
g55
(g79
S'\x05\x00\x00\x00\x00\x00\x00\x00'
p1962
tp1963
Rp1964
sa(dp1965
S'block.thisTrialN'
p1966
I0
sS'stim.thisTrialN'
p1967
I15
sS'block.thisRepN'
p1968
I1
sg1620
g1621
sS'stim.thisIndex'
p1969
g55
(g59
S'\x0f\x00\x00\x00'
p1970
tp1971
Rp1972
sg31
NsS'block.thisN'
p1973
I1
sS'stim.thisN'
p1974
I15
sg1628
g1629
sg1630
g1631
sg21
g22
sg23
I2
sS'trials.thisIndex'
p1975
g1635
sS'stim.thisRepN'
p1976
I0
sg25
g30
sg1637
g175
sS'trials.thisRepN'
p1977
I0
sS'trials.thisN'
p1978
I0
sg1640
g55
(g79
S'\x10\x00\x00\x00\x00\x00\x00\x00'
p1979
tp1980
Rp1981
sg24
g11
sS'trials.thisTrialN'
p1982
I0
sS'block.thisIndex'
p1983
g1648
sg1649
g55
(g79
S'\x05\x00\x00\x00\x00\x00\x00\x00'
p1984
tp1985
Rp1986
sa(dp1987
S'block.thisTrialN'
p1988
I0
sS'stim.thisTrialN'
p1989
I16
sS'block.thisRepN'
p1990
I1
sg1620
g1621
sS'stim.thisIndex'
p1991
g55
(g59
S'\x10\x00\x00\x00'
p1992
tp1993
Rp1994
sg31
NsS'block.thisN'
p1995
I1
sS'stim.thisN'
p1996
I16
sg1628
g1629
sg1630
g1631
sg21
g22
sg23
I2
sS'trials.thisIndex'
p1997
g1635
sS'stim.thisRepN'
p1998
I0
sg25
g30
sg1637
g74
sS'trials.thisRepN'
p1999
I0
sS'trials.thisN'
p2000
I0
sg1640
g55
(g79
S'\x11\x00\x00\x00\x00\x00\x00\x00'
p2001
tp2002
Rp2003
sg24
g11
sS'trials.thisTrialN'
p2004
I0
sS'block.thisIndex'
p2005
g1648
sg1649
g55
(g79
S'\x05\x00\x00\x00\x00\x00\x00\x00'
p2006
tp2007
Rp2008
sa(dp2009
S'block.thisTrialN'
p2010
I0
sS'block.thisRepN'
p2011
I1
sg16
g1248
sS'trials.thisRepN'
p2012
I0
sg15
F0.49883939999563154
sg25
g30
sS'block.thisN'
p2013
I1
sg31
NsS'trials.thisN'
p2014
I0
sg14
g1248
sg24
g11
sS'trials.thisTrialN'
p2015
I0
sS'trials.thisIndex'
p2016
g1635
sg21
g22
sg23
I2
sS'block.thisIndex'
p2017
g1648
sg17
F0.12868039999739267
sa(dp2018
S'block.thisTrialN'
p2019
I0
sS'stim.thisTrialN'
p2020
I0
sS'block.thisRepN'
p2021
I1
sS'Tx'
p2022
Vt2
p2023
sS'stim.thisIndex'
p2024
g55
(g59
S'\x00\x00\x00\x00'
p2025
tp2026
Rp2027
sg31
NsS'block.thisN'
p2028
I1
sS'stim.thisN'
p2029
I0
sS'sep_dur'
p2030
Vlong
p2031
sS'cond'
p2032
Vdistractor
p2033
sg21
g22
sg23
I2
sS'trials.thisIndex'
p2034
g55
(g59
S'\x00\x00\x00\x00'
p2035
tp2036
Rp2037
sS'stim.thisRepN'
p2038
I0
sg25
g30
sS'stimulus'
p2039
g243
sS'trials.thisRepN'
p2040
I1
sS'trials.thisN'
p2041
I1
sS'trial'
p2042
g55
(g79
S'\x01\x00\x00\x00\x00\x00\x00\x00'
p2043
tp2044
Rp2045
sg24
g11
sS'trials.thisTrialN'
p2046
I0
sS'block.thisIndex'
p2047
g1648
sS'block'
p2048
g55
(g79
S'\x06\x00\x00\x00\x00\x00\x00\x00'
p2049
tp2050
Rp2051
sa(dp2052
S'block.thisTrialN'
p2053
I0
sS'stim.thisTrialN'
p2054
I1
sS'block.thisRepN'
p2055
I1
sg2022
g2023
sS'stim.thisIndex'
p2056
g55
(g59
S'\x01\x00\x00\x00'
p2057
tp2058
Rp2059
sg31
NsS'block.thisN'
p2060
I1
sS'stim.thisN'
p2061
I1
sg2030
g2031
sg2032
Vtarget
p2062
sg21
g22
sg23
I2
sS'trials.thisIndex'
p2063
g2037
sS'stim.thisRepN'
p2064
I0
sg25
g30
sg2039
g1035
sS'trials.thisRepN'
p2065
I1
sS'trials.thisN'
p2066
I1
sg2042
g55
(g79
S'\x02\x00\x00\x00\x00\x00\x00\x00'
p2067
tp2068
Rp2069
sg24
g11
sS'trials.thisTrialN'
p2070
I0
sS'block.thisIndex'
p2071
g1648
sg2048
g55
(g79
S'\x06\x00\x00\x00\x00\x00\x00\x00'
p2072
tp2073
Rp2074
sa(dp2075
S'block.thisTrialN'
p2076
I0
sS'stim.thisTrialN'
p2077
I2
sS'block.thisRepN'
p2078
I1
sg2022
g2023
sS'stim.thisIndex'
p2079
g55
(g59
S'\x02\x00\x00\x00'
p2080
tp2081
Rp2082
sg31
NsS'block.thisN'
p2083
I1
sS'stim.thisN'
p2084
I2
sg2030
g2031
sg2032
g2033
sg21
g22
sg23
I2
sS'trials.thisIndex'
p2085
g2037
sS'stim.thisRepN'
p2086
I0
sg25
g30
sg2039
g561
sS'trials.thisRepN'
p2087
I1
sS'trials.thisN'
p2088
I1
sg2042
g55
(g79
S'\x03\x00\x00\x00\x00\x00\x00\x00'
p2089
tp2090
Rp2091
sg24
g11
sS'trials.thisTrialN'
p2092
I0
sS'block.thisIndex'
p2093
g1648
sg2048
g55
(g79
S'\x06\x00\x00\x00\x00\x00\x00\x00'
p2094
tp2095
Rp2096
sa(dp2097
S'block.thisTrialN'
p2098
I0
sS'stim.thisTrialN'
p2099
I3
sS'block.thisRepN'
p2100
I1
sg2022
g2023
sS'stim.thisIndex'
p2101
g55
(g59
S'\x03\x00\x00\x00'
p2102
tp2103
Rp2104
sg31
NsS'block.thisN'
p2105
I1
sS'stim.thisN'
p2106
I3
sg2030
g2031
sg2032
g2033
sg21
g22
sg23
I2
sS'trials.thisIndex'
p2107
g2037
sS'stim.thisRepN'
p2108
I0
sg25
g30
sg2039
g538
sS'trials.thisRepN'
p2109
I1
sS'trials.thisN'
p2110
I1
sg2042
g55
(g79
S'\x04\x00\x00\x00\x00\x00\x00\x00'
p2111
tp2112
Rp2113
sg24
g11
sS'trials.thisTrialN'
p2114
I0
sS'block.thisIndex'
p2115
g1648
sg2048
g55
(g79
S'\x06\x00\x00\x00\x00\x00\x00\x00'
p2116
tp2117
Rp2118
sa(dp2119
S'block.thisTrialN'
p2120
I0
sS'stim.thisTrialN'
p2121
I4
sS'block.thisRepN'
p2122
I1
sg2022
g2023
sS'stim.thisIndex'
p2123
g55
(g59
S'\x04\x00\x00\x00'
p2124
tp2125
Rp2126
sg31
NsS'block.thisN'
p2127
I1
sS'stim.thisN'
p2128
I4
sg2030
g2031
sg2032
g2033
sg21
g22
sg23
I2
sS'trials.thisIndex'
p2129
g2037
sS'stim.thisRepN'
p2130
I0
sg25
g30
sg2039
g561
sS'trials.thisRepN'
p2131
I1
sS'trials.thisN'
p2132
I1
sg2042
g55
(g79
S'\x05\x00\x00\x00\x00\x00\x00\x00'
p2133
tp2134
Rp2135
sg24
g11
sS'trials.thisTrialN'
p2136
I0
sS'block.thisIndex'
p2137
g1648
sg2048
g55
(g79
S'\x06\x00\x00\x00\x00\x00\x00\x00'
p2138
tp2139
Rp2140
sa(dp2141
S'block.thisTrialN'
p2142
I0
sS'stim.thisTrialN'
p2143
I5
sS'block.thisRepN'
p2144
I1
sg2022
g2023
sS'stim.thisIndex'
p2145
g55
(g59
S'\x05\x00\x00\x00'
p2146
tp2147
Rp2148
sg31
NsS'block.thisN'
p2149
I1
sS'stim.thisN'
p2150
I5
sg2030
g2031
sg2032
g2033
sg21
g22
sg23
I2
sS'trials.thisIndex'
p2151
g2037
sS'stim.thisRepN'
p2152
I0
sg25
g30
sg2039
g584
sS'trials.thisRepN'
p2153
I1
sS'trials.thisN'
p2154
I1
sg2042
g55
(g79
S'\x06\x00\x00\x00\x00\x00\x00\x00'
p2155
tp2156
Rp2157
sg24
g11
sS'trials.thisTrialN'
p2158
I0
sS'block.thisIndex'
p2159
g1648
sg2048
g55
(g79
S'\x06\x00\x00\x00\x00\x00\x00\x00'
p2160
tp2161
Rp2162
sa(dp2163
S'block.thisTrialN'
p2164
I0
sS'stim.thisTrialN'
p2165
I6
sS'block.thisRepN'
p2166
I1
sg2022
g2023
sS'stim.thisIndex'
p2167
g55
(g59
S'\x06\x00\x00\x00'
p2168
tp2169
Rp2170
sg31
NsS'block.thisN'
p2171
I1
sS'stim.thisN'
p2172
I6
sg2030
g2031
sg2032
g2033
sg21
g22
sg23
I2
sS'trials.thisIndex'
p2173
g2037
sS'stim.thisRepN'
p2174
I0
sg25
g30
sg2039
g967
sS'trials.thisRepN'
p2175
I1
sS'trials.thisN'
p2176
I1
sg2042
g55
(g79
S'\x07\x00\x00\x00\x00\x00\x00\x00'
p2177
tp2178
Rp2179
sg24
g11
sS'trials.thisTrialN'
p2180
I0
sS'block.thisIndex'
p2181
g1648
sg2048
g55
(g79
S'\x06\x00\x00\x00\x00\x00\x00\x00'
p2182
tp2183
Rp2184
sa(dp2185
S'block.thisTrialN'
p2186
I0
sS'stim.thisTrialN'
p2187
I7
sS'block.thisRepN'
p2188
I1
sg2022
g2023
sS'stim.thisIndex'
p2189
g55
(g59
S'\x07\x00\x00\x00'
p2190
tp2191
Rp2192
sg31
NsS'block.thisN'
p2193
I1
sS'stim.thisN'
p2194
I7
sg2030
g2031
sg2032
g2033
sg21
g22
sg23
I2
sS'trials.thisIndex'
p2195
g2037
sS'stim.thisRepN'
p2196
I0
sg25
g30
sg2039
g857
sS'trials.thisRepN'
p2197
I1
sS'trials.thisN'
p2198
I1
sg2042
g55
(g79
S'\x08\x00\x00\x00\x00\x00\x00\x00'
p2199
tp2200
Rp2201
sg24
g11
sS'trials.thisTrialN'
p2202
I0
sS'block.thisIndex'
p2203
g1648
sg2048
g55
(g79
S'\x06\x00\x00\x00\x00\x00\x00\x00'
p2204
tp2205
Rp2206
sa(dp2207
S'block.thisTrialN'
p2208
I0
sS'stim.thisTrialN'
p2209
I8
sS'block.thisRepN'
p2210
I1
sg2022
g2023
sS'stim.thisIndex'
p2211
g55
(g59
S'\x08\x00\x00\x00'
p2212
tp2213
Rp2214
sg31
NsS'block.thisN'
p2215
I1
sS'stim.thisN'
p2216
I8
sg2030
g2031
sg2032
g2033
sg21
g22
sg23
I2
sS'trials.thisIndex'
p2217
g2037
sS'stim.thisRepN'
p2218
I0
sg25
g30
sg2039
g1865
sS'trials.thisRepN'
p2219
I1
sS'trials.thisN'
p2220
I1
sg2042
g55
(g79
S'\t\x00\x00\x00\x00\x00\x00\x00'
p2221
tp2222
Rp2223
sg24
g11
sS'trials.thisTrialN'
p2224
I0
sS'block.thisIndex'
p2225
g1648
sg2048
g55
(g79
S'\x06\x00\x00\x00\x00\x00\x00\x00'
p2226
tp2227
Rp2228
sa(dp2229
S'block.thisTrialN'
p2230
I0
sS'stim.thisTrialN'
p2231
I9
sS'block.thisRepN'
p2232
I1
sg2022
g2023
sS'stim.thisIndex'
p2233
g55
(g59
S'\t\x00\x00\x00'
p2234
tp2235
Rp2236
sg31
NsS'block.thisN'
p2237
I1
sS'stim.thisN'
p2238
I9
sg2030
g2031
sg2032
g2033
sg21
g22
sg23
I2
sS'trials.thisIndex'
p2239
g2037
sS'stim.thisRepN'
p2240
I0
sg25
g30
sg2039
g561
sS'trials.thisRepN'
p2241
I1
sS'trials.thisN'
p2242
I1
sg2042
g55
(g79
S'\n\x00\x00\x00\x00\x00\x00\x00'
p2243
tp2244
Rp2245
sg24
g11
sS'trials.thisTrialN'
p2246
I0
sS'block.thisIndex'
p2247
g1648
sg2048
g55
(g79
S'\x06\x00\x00\x00\x00\x00\x00\x00'
p2248
tp2249
Rp2250
sa(dp2251
S'block.thisTrialN'
p2252
I0
sS'stim.thisTrialN'
p2253
I10
sS'block.thisRepN'
p2254
I1
sg2022
g2023
sS'stim.thisIndex'
p2255
g55
(g59
S'\n\x00\x00\x00'
p2256
tp2257
Rp2258
sg31
NsS'block.thisN'
p2259
I1
sS'stim.thisN'
p2260
I10
sg2030
g2031
sg2032
g2062
sg21
g22
sg23
I2
sS'trials.thisIndex'
p2261
g2037
sS'stim.thisRepN'
p2262
I0
sg25
g30
sg2039
g312
sS'trials.thisRepN'
p2263
I1
sS'trials.thisN'
p2264
I1
sg2042
g55
(g79
S'\x0b\x00\x00\x00\x00\x00\x00\x00'
p2265
tp2266
Rp2267
sg24
g11
sS'trials.thisTrialN'
p2268
I0
sS'block.thisIndex'
p2269
g1648
sg2048
g55
(g79
S'\x06\x00\x00\x00\x00\x00\x00\x00'
p2270
tp2271
Rp2272
sa(dp2273
S'block.thisTrialN'
p2274
I0
sS'stim.thisTrialN'
p2275
I11
sS'block.thisRepN'
p2276
I1
sg2022
g2023
sS'stim.thisIndex'
p2277
g55
(g59
S'\x0b\x00\x00\x00'
p2278
tp2279
Rp2280
sg31
NsS'block.thisN'
p2281
I1
sS'stim.thisN'
p2282
I11
sg2030
g2031
sg2032
g2033
sg21
g22
sg23
I2
sS'trials.thisIndex'
p2283
g2037
sS'stim.thisRepN'
p2284
I0
sg25
g30
sg2039
g358
sS'trials.thisRepN'
p2285
I1
sS'trials.thisN'
p2286
I1
sg2042
g55
(g79
S'\x0c\x00\x00\x00\x00\x00\x00\x00'
p2287
tp2288
Rp2289
sg24
g11
sS'trials.thisTrialN'
p2290
I0
sS'block.thisIndex'
p2291
g1648
sg2048
g55
(g79
S'\x06\x00\x00\x00\x00\x00\x00\x00'
p2292
tp2293
Rp2294
sa(dp2295
S'block.thisTrialN'
p2296
I0
sS'stim.thisTrialN'
p2297
I12
sS'block.thisRepN'
p2298
I1
sg2022
g2023
sS'stim.thisIndex'
p2299
g55
(g59
S'\x0c\x00\x00\x00'
p2300
tp2301
Rp2302
sg31
NsS'block.thisN'
p2303
I1
sS'stim.thisN'
p2304
I12
sg2030
g2031
sg2032
g2033
sg21
g22
sg23
I2
sS'trials.thisIndex'
p2305
g2037
sS'stim.thisRepN'
p2306
I0
sg25
g30
sg2039
g857
sS'trials.thisRepN'
p2307
I1
sS'trials.thisN'
p2308
I1
sg2042
g55
(g79
S'\r\x00\x00\x00\x00\x00\x00\x00'
p2309
tp2310
Rp2311
sg24
g11
sS'trials.thisTrialN'
p2312
I0
sS'block.thisIndex'
p2313
g1648
sg2048
g55
(g79
S'\x06\x00\x00\x00\x00\x00\x00\x00'
p2314
tp2315
Rp2316
sa(dp2317
S'block.thisTrialN'
p2318
I0
sS'stim.thisTrialN'
p2319
I13
sS'block.thisRepN'
p2320
I1
sg2022
g2023
sS'stim.thisIndex'
p2321
g55
(g59
S'\r\x00\x00\x00'
p2322
tp2323
Rp2324
sg31
NsS'block.thisN'
p2325
I1
sS'stim.thisN'
p2326
I13
sg2030
g2031
sg2032
g2033
sg21
g22
sg23
I2
sS'trials.thisIndex'
p2327
g2037
sS'stim.thisRepN'
p2328
I0
sg25
g30
sg2039
g426
sS'trials.thisRepN'
p2329
I1
sS'trials.thisN'
p2330
I1
sg2042
g55
(g79
S'\x0e\x00\x00\x00\x00\x00\x00\x00'
p2331
tp2332
Rp2333
sg24
g11
sS'trials.thisTrialN'
p2334
I0
sS'block.thisIndex'
p2335
g1648
sg2048
g55
(g79
S'\x06\x00\x00\x00\x00\x00\x00\x00'
p2336
tp2337
Rp2338
sa(dp2339
S'block.thisTrialN'
p2340
I0
sS'stim.thisTrialN'
p2341
I14
sS'block.thisRepN'
p2342
I1
sg2022
g2023
sS'stim.thisIndex'
p2343
g55
(g59
S'\x0e\x00\x00\x00'
p2344
tp2345
Rp2346
sg31
NsS'block.thisN'
p2347
I1
sS'stim.thisN'
p2348
I14
sg2030
g2031
sg2032
g2033
sg21
g22
sg23
I2
sS'trials.thisIndex'
p2349
g2037
sS'stim.thisRepN'
p2350
I0
sg25
g30
sg2039
g175
sS'trials.thisRepN'
p2351
I1
sS'trials.thisN'
p2352
I1
sg2042
g55
(g79
S'\x0f\x00\x00\x00\x00\x00\x00\x00'
p2353
tp2354
Rp2355
sg24
g11
sS'trials.thisTrialN'
p2356
I0
sS'block.thisIndex'
p2357
g1648
sg2048
g55
(g79
S'\x06\x00\x00\x00\x00\x00\x00\x00'
p2358
tp2359
Rp2360
sa(dp2361
S'block.thisTrialN'
p2362
I0
sS'stim.thisTrialN'
p2363
I15
sS'block.thisRepN'
p2364
I1
sg2022
g2023
sS'stim.thisIndex'
p2365
g55
(g59
S'\x0f\x00\x00\x00'
p2366
tp2367
Rp2368
sg31
NsS'block.thisN'
p2369
I1
sS'stim.thisN'
p2370
I15
sg2030
g2031
sg2032
g2033
sg21
g22
sg23
I2
sS'trials.thisIndex'
p2371
g2037
sS'stim.thisRepN'
p2372
I0
sg25
g30
sg2039
g266
sS'trials.thisRepN'
p2373
I1
sS'trials.thisN'
p2374
I1
sg2042
g55
(g79
S'\x10\x00\x00\x00\x00\x00\x00\x00'
p2375
tp2376
Rp2377
sg24
g11
sS'trials.thisTrialN'
p2378
I0
sS'block.thisIndex'
p2379
g1648
sg2048
g55
(g79
S'\x06\x00\x00\x00\x00\x00\x00\x00'
p2380
tp2381
Rp2382
sa(dp2383
S'block.thisTrialN'
p2384
I0
sS'block.thisRepN'
p2385
I1
sg16
g462
sS'trials.thisRepN'
p2386
I1
sg15
F0.38970030000200495
sg25
g30
sS'block.thisN'
p2387
I1
sg31
NsS'trials.thisN'
p2388
I1
sg14
S'1'
p2389
sg24
g11
sS'trials.thisTrialN'
p2390
I0
sS'trials.thisIndex'
p2391
g2037
sg21
g22
sg23
I2
sS'block.thisIndex'
p2392
g1648
sg17
F0.08816610000212677
sa(dp2393
S'block.thisTrialN'
p2394
I0
sS'stim.thisTrialN'
p2395
I0
sS'block.thisRepN'
p2396
I1
sS'Tx'
p2397
Vt2
p2398
sS'stim.thisIndex'
p2399
g55
(g59
S'\x00\x00\x00\x00'
p2400
tp2401
Rp2402
sg31
NsS'block.thisN'
p2403
I1
sS'stim.thisN'
p2404
I0
sS'sep_dur'
p2405
Vlong
p2406
sS'cond'
p2407
Vdistractor
p2408
sg21
g22
sg23
I2
sS'trials.thisIndex'
p2409
g55
(g59
S'\x00\x00\x00\x00'
p2410
tp2411
Rp2412
sS'stim.thisRepN'
p2413
I0
sg25
g30
sS'stimulus'
p2414
g403
sS'trials.thisRepN'
p2415
I2
sS'trials.thisN'
p2416
I2
sS'trial'
p2417
g55
(g79
S'\x01\x00\x00\x00\x00\x00\x00\x00'
p2418
tp2419
Rp2420
sg24
g11
sS'trials.thisTrialN'
p2421
I0
sS'block.thisIndex'
p2422
g1648
sS'block'
p2423
g55
(g79
S'\x07\x00\x00\x00\x00\x00\x00\x00'
p2424
tp2425
Rp2426
sa(dp2427
S'block.thisTrialN'
p2428
I0
sS'stim.thisTrialN'
p2429
I1
sS'block.thisRepN'
p2430
I1
sg2397
g2398
sS'stim.thisIndex'
p2431
g55
(g59
S'\x01\x00\x00\x00'
p2432
tp2433
Rp2434
sg31
NsS'block.thisN'
p2435
I1
sS'stim.thisN'
p2436
I1
sg2405
g2406
sg2407
Vtarget
p2437
sg21
g22
sg23
I2
sS'trials.thisIndex'
p2438
g2412
sS'stim.thisRepN'
p2439
I0
sg25
g30
sg2414
g720
sS'trials.thisRepN'
p2440
I2
sS'trials.thisN'
p2441
I2
sg2417
g55
(g79
S'\x02\x00\x00\x00\x00\x00\x00\x00'
p2442
tp2443
Rp2444
sg24
g11
sS'trials.thisTrialN'
p2445
I0
sS'block.thisIndex'
p2446
g1648
sg2423
g55
(g79
S'\x07\x00\x00\x00\x00\x00\x00\x00'
p2447
tp2448
Rp2449
sa(dp2450
S'block.thisTrialN'
p2451
I0
sS'stim.thisTrialN'
p2452
I2
sS'block.thisRepN'
p2453
I1
sg2397
g2398
sS'stim.thisIndex'
p2454
g55
(g59
S'\x02\x00\x00\x00'
p2455
tp2456
Rp2457
sg31
NsS'block.thisN'
p2458
I1
sS'stim.thisN'
p2459
I2
sg2405
g2406
sg2407
g2408
sg21
g22
sg23
I2
sS'trials.thisIndex'
p2460
g2412
sS'stim.thisRepN'
p2461
I0
sg25
g30
sg2414
g74
sS'trials.thisRepN'
p2462
I2
sS'trials.thisN'
p2463
I2
sg2417
g55
(g79
S'\x03\x00\x00\x00\x00\x00\x00\x00'
p2464
tp2465
Rp2466
sg24
g11
sS'trials.thisTrialN'
p2467
I0
sS'block.thisIndex'
p2468
g1648
sg2423
g55
(g79
S'\x07\x00\x00\x00\x00\x00\x00\x00'
p2469
tp2470
Rp2471
sa(dp2472
S'block.thisTrialN'
p2473
I0
sS'stim.thisTrialN'
p2474
I3
sS'block.thisRepN'
p2475
I1
sg2397
g2398
sS'stim.thisIndex'
p2476
g55
(g59
S'\x03\x00\x00\x00'
p2477
tp2478
Rp2479
sg31
NsS'block.thisN'
p2480
I1
sS'stim.thisN'
p2481
I3
sg2405
g2406
sg2407
g2408
sg21
g22
sg23
I2
sS'trials.thisIndex'
p2482
g2412
sS'stim.thisRepN'
p2483
I0
sg25
g30
sg2414
g1503
sS'trials.thisRepN'
p2484
I2
sS'trials.thisN'
p2485
I2
sg2417
g55
(g79
S'\x04\x00\x00\x00\x00\x00\x00\x00'
p2486
tp2487
Rp2488
sg24
g11
sS'trials.thisTrialN'
p2489
I0
sS'block.thisIndex'
p2490
g1648
sg2423
g55
(g79
S'\x07\x00\x00\x00\x00\x00\x00\x00'
p2491
tp2492
Rp2493
sa(dp2494
S'block.thisTrialN'
p2495
I0
sS'stim.thisTrialN'
p2496
I4
sS'block.thisRepN'
p2497
I1
sg2397
g2398
sS'stim.thisIndex'
p2498
g55
(g59
S'\x04\x00\x00\x00'
p2499
tp2500
Rp2501
sg31
NsS'block.thisN'
p2502
I1
sS'stim.thisN'
p2503
I4
sg2405
g2406
sg2407
g2408
sg21
g22
sg23
I2
sS'trials.thisIndex'
p2504
g2412
sS'stim.thisRepN'
p2505
I0
sg25
g30
sg2414
g175
sS'trials.thisRepN'
p2506
I2
sS'trials.thisN'
p2507
I2
sg2417
g55
(g79
S'\x05\x00\x00\x00\x00\x00\x00\x00'
p2508
tp2509
Rp2510
sg24
g11
sS'trials.thisTrialN'
p2511
I0
sS'block.thisIndex'
p2512
g1648
sg2423
g55
(g79
S'\x07\x00\x00\x00\x00\x00\x00\x00'
p2513
tp2514
Rp2515
sa(dp2516
S'block.thisTrialN'
p2517
I0
sS'stim.thisTrialN'
p2518
I5
sS'block.thisRepN'
p2519
I1
sg2397
g2398
sS'stim.thisIndex'
p2520
g55
(g59
S'\x05\x00\x00\x00'
p2521
tp2522
Rp2523
sg31
NsS'block.thisN'
p2524
I1
sS'stim.thisN'
p2525
I5
sg2405
g2406
sg2407
g2408
sg21
g22
sg23
I2
sS'trials.thisIndex'
p2526
g2412
sS'stim.thisRepN'
p2527
I0
sg25
g30
sg2414
g967
sS'trials.thisRepN'
p2528
I2
sS'trials.thisN'
p2529
I2
sg2417
g55
(g79
S'\x06\x00\x00\x00\x00\x00\x00\x00'
p2530
tp2531
Rp2532
sg24
g11
sS'trials.thisTrialN'
p2533
I0
sS'block.thisIndex'
p2534
g1648
sg2423
g55
(g79
S'\x07\x00\x00\x00\x00\x00\x00\x00'
p2535
tp2536
Rp2537
sa(dp2538
S'block.thisTrialN'
p2539
I0
sS'stim.thisTrialN'
p2540
I6
sS'block.thisRepN'
p2541
I1
sg2397
g2398
sS'stim.thisIndex'
p2542
g55
(g59
S'\x06\x00\x00\x00'
p2543
tp2544
Rp2545
sg31
NsS'block.thisN'
p2546
I1
sS'stim.thisN'
p2547
I6
sg2405
g2406
sg2407
g2408
sg21
g22
sg23
I2
sS'trials.thisIndex'
p2548
g2412
sS'stim.thisRepN'
p2549
I0
sg25
g30
sg2414
g243
sS'trials.thisRepN'
p2550
I2
sS'trials.thisN'
p2551
I2
sg2417
g55
(g79
S'\x07\x00\x00\x00\x00\x00\x00\x00'
p2552
tp2553
Rp2554
sg24
g11
sS'trials.thisTrialN'
p2555
I0
sS'block.thisIndex'
p2556
g1648
sg2423
g55
(g79
S'\x07\x00\x00\x00\x00\x00\x00\x00'
p2557
tp2558
Rp2559
sa(dp2560
S'block.thisTrialN'
p2561
I0
sS'stim.thisTrialN'
p2562
I7
sS'block.thisRepN'
p2563
I1
sg2397
g2398
sS'stim.thisIndex'
p2564
g55
(g59
S'\x07\x00\x00\x00'
p2565
tp2566
Rp2567
sg31
NsS'block.thisN'
p2568
I1
sS'stim.thisN'
p2569
I7
sg2405
g2406
sg2407
g2408
sg21
g22
sg23
I2
sS'trials.thisIndex'
p2570
g2412
sS'stim.thisRepN'
p2571
I0
sg25
g30
sg2414
g607
sS'trials.thisRepN'
p2572
I2
sS'trials.thisN'
p2573
I2
sg2417
g55
(g79
S'\x08\x00\x00\x00\x00\x00\x00\x00'
p2574
tp2575
Rp2576
sg24
g11
sS'trials.thisTrialN'
p2577
I0
sS'block.thisIndex'
p2578
g1648
sg2423
g55
(g79
S'\x07\x00\x00\x00\x00\x00\x00\x00'
p2579
tp2580
Rp2581
sa(dp2582
S'block.thisTrialN'
p2583
I0
sS'stim.thisTrialN'
p2584
I8
sS'block.thisRepN'
p2585
I1
sg2397
g2398
sS'stim.thisIndex'
p2586
g55
(g59
S'\x08\x00\x00\x00'
p2587
tp2588
Rp2589
sg31
NsS'block.thisN'
p2590
I1
sS'stim.thisN'
p2591
I8
sg2405
g2406
sg2407
g2408
sg21
g22
sg23
I2
sS'trials.thisIndex'
p2592
g2412
sS'stim.thisRepN'
p2593
I0
sg25
g30
sg2414
g1865
sS'trials.thisRepN'
p2594
I2
sS'trials.thisN'
p2595
I2
sg2417
g55
(g79
S'\t\x00\x00\x00\x00\x00\x00\x00'
p2596
tp2597
Rp2598
sg24
g11
sS'trials.thisTrialN'
p2599
I0
sS'block.thisIndex'
p2600
g1648
sg2423
g55
(g79
S'\x07\x00\x00\x00\x00\x00\x00\x00'
p2601
tp2602
Rp2603
sa(dp2604
S'block.thisTrialN'
p2605
I0
sS'stim.thisTrialN'
p2606
I9
sS'block.thisRepN'
p2607
I1
sg2397
g2398
sS'stim.thisIndex'
p2608
g55
(g59
S'\t\x00\x00\x00'
p2609
tp2610
Rp2611
sg31
NsS'block.thisN'
p2612
I1
sS'stim.thisN'
p2613
I9
sg2405
g2406
sg2407
g2408
sg21
g22
sg23
I2
sS'trials.thisIndex'
p2614
g2412
sS'stim.thisRepN'
p2615
I0
sg25
g30
sg2414
g766
sS'trials.thisRepN'
p2616
I2
sS'trials.thisN'
p2617
I2
sg2417
g55
(g79
S'\n\x00\x00\x00\x00\x00\x00\x00'
p2618
tp2619
Rp2620
sg24
g11
sS'trials.thisTrialN'
p2621
I0
sS'block.thisIndex'
p2622
g1648
sg2423
g55
(g79
S'\x07\x00\x00\x00\x00\x00\x00\x00'
p2623
tp2624
Rp2625
sa(dp2626
S'block.thisTrialN'
p2627
I0
sS'stim.thisTrialN'
p2628
I10
sS'block.thisRepN'
p2629
I1
sg2397
g2398
sS'stim.thisIndex'
p2630
g55
(g59
S'\n\x00\x00\x00'
p2631
tp2632
Rp2633
sg31
NsS'block.thisN'
p2634
I1
sS'stim.thisN'
p2635
I10
sg2405
g2406
sg2407
g2437
sg21
g22
sg23
I2
sS'trials.thisIndex'
p2636
g2412
sS'stim.thisRepN'
p2637
I0
sg25
g30
sg2414
g312
sS'trials.thisRepN'
p2638
I2
sS'trials.thisN'
p2639
I2
sg2417
g55
(g79
S'\x0b\x00\x00\x00\x00\x00\x00\x00'
p2640
tp2641
Rp2642
sg24
g11
sS'trials.thisTrialN'
p2643
I0
sS'block.thisIndex'
p2644
g1648
sg2423
g55
(g79
S'\x07\x00\x00\x00\x00\x00\x00\x00'
p2645
tp2646
Rp2647
sa(dp2648
S'block.thisTrialN'
p2649
I0
sS'stim.thisTrialN'
p2650
I11
sS'block.thisRepN'
p2651
I1
sg2397
g2398
sS'stim.thisIndex'
p2652
g55
(g59
S'\x0b\x00\x00\x00'
p2653
tp2654
Rp2655
sg31
NsS'block.thisN'
p2656
I1
sS'stim.thisN'
p2657
I11
sg2405
g2406
sg2407
g2408
sg21
g22
sg23
I2
sS'trials.thisIndex'
p2658
g2412
sS'stim.thisRepN'
p2659
I0
sg25
g30
sg2414
g1345
sS'trials.thisRepN'
p2660
I2
sS'trials.thisN'
p2661
I2
sg2417
g55
(g79
S'\x0c\x00\x00\x00\x00\x00\x00\x00'
p2662
tp2663
Rp2664
sg24
g11
sS'trials.thisTrialN'
p2665
I0
sS'block.thisIndex'
p2666
g1648
sg2423
g55
(g79
S'\x07\x00\x00\x00\x00\x00\x00\x00'
p2667
tp2668
Rp2669
sa(dp2670
S'block.thisTrialN'
p2671
I0
sS'stim.thisTrialN'
p2672
I12
sS'block.thisRepN'
p2673
I1
sg2397
g2398
sS'stim.thisIndex'
p2674
g55
(g59
S'\x0c\x00\x00\x00'
p2675
tp2676
Rp2677
sg31
NsS'block.thisN'
p2678
I1
sS'stim.thisN'
p2679
I12
sg2405
g2406
sg2407
g2408
sg21
g22
sg23
I2
sS'trials.thisIndex'
p2680
g2412
sS'stim.thisRepN'
p2681
I0
sg25
g30
sg2414
g198
sS'trials.thisRepN'
p2682
I2
sS'trials.thisN'
p2683
I2
sg2417
g55
(g79
S'\r\x00\x00\x00\x00\x00\x00\x00'
p2684
tp2685
Rp2686
sg24
g11
sS'trials.thisTrialN'
p2687
I0
sS'block.thisIndex'
p2688
g1648
sg2423
g55
(g79
S'\x07\x00\x00\x00\x00\x00\x00\x00'
p2689
tp2690
Rp2691
sa(dp2692
S'block.thisTrialN'
p2693
I0
sS'stim.thisTrialN'
p2694
I13
sS'block.thisRepN'
p2695
I1
sg2397
g2398
sS'stim.thisIndex'
p2696
g55
(g59
S'\r\x00\x00\x00'
p2697
tp2698
Rp2699
sg31
NsS'block.thisN'
p2700
I1
sS'stim.thisN'
p2701
I13
sg2405
g2406
sg2407
g2408
sg21
g22
sg23
I2
sS'trials.thisIndex'
p2702
g2412
sS'stim.thisRepN'
p2703
I0
sg25
g30
sg2414
g358
sS'trials.thisRepN'
p2704
I2
sS'trials.thisN'
p2705
I2
sg2417
g55
(g79
S'\x0e\x00\x00\x00\x00\x00\x00\x00'
p2706
tp2707
Rp2708
sg24
g11
sS'trials.thisTrialN'
p2709
I0
sS'block.thisIndex'
p2710
g1648
sg2423
g55
(g79
S'\x07\x00\x00\x00\x00\x00\x00\x00'
p2711
tp2712
Rp2713
sa(dp2714
S'block.thisTrialN'
p2715
I0
sS'stim.thisTrialN'
p2716
I14
sS'block.thisRepN'
p2717
I1
sg2397
g2398
sS'stim.thisIndex'
p2718
g55
(g59
S'\x0e\x00\x00\x00'
p2719
tp2720
Rp2721
sg31
NsS'block.thisN'
p2722
I1
sS'stim.thisN'
p2723
I14
sg2405
g2406
sg2407
g2408
sg21
g22
sg23
I2
sS'trials.thisIndex'
p2724
g2412
sS'stim.thisRepN'
p2725
I0
sg25
g30
sg2414
g74
sS'trials.thisRepN'
p2726
I2
sS'trials.thisN'
p2727
I2
sg2417
g55
(g79
S'\x0f\x00\x00\x00\x00\x00\x00\x00'
p2728
tp2729
Rp2730
sg24
g11
sS'trials.thisTrialN'
p2731
I0
sS'block.thisIndex'
p2732
g1648
sg2423
g55
(g79
S'\x07\x00\x00\x00\x00\x00\x00\x00'
p2733
tp2734
Rp2735
sa(dp2736
S'block.thisTrialN'
p2737
I0
sS'stim.thisTrialN'
p2738
I15
sS'block.thisRepN'
p2739
I1
sg2397
g2398
sS'stim.thisIndex'
p2740
g55
(g59
S'\x0f\x00\x00\x00'
p2741
tp2742
Rp2743
sg31
NsS'block.thisN'
p2744
I1
sS'stim.thisN'
p2745
I15
sg2405
g2406
sg2407
g2408
sg21
g22
sg23
I2
sS'trials.thisIndex'
p2746
g2412
sS'stim.thisRepN'
p2747
I0
sg25
g30
sg2414
g289
sS'trials.thisRepN'
p2748
I2
sS'trials.thisN'
p2749
I2
sg2417
g55
(g79
S'\x10\x00\x00\x00\x00\x00\x00\x00'
p2750
tp2751
Rp2752
sg24
g11
sS'trials.thisTrialN'
p2753
I0
sS'block.thisIndex'
p2754
g1648
sg2423
g55
(g79
S'\x07\x00\x00\x00\x00\x00\x00\x00'
p2755
tp2756
Rp2757
sa(dp2758
S'block.thisTrialN'
p2759
I0
sS'stim.thisTrialN'
p2760
I16
sS'block.thisRepN'
p2761
I1
sg2397
g2398
sS'stim.thisIndex'
p2762
g55
(g59
S'\x10\x00\x00\x00'
p2763
tp2764
Rp2765
sg31
NsS'block.thisN'
p2766
I1
sS'stim.thisN'
p2767
I16
sg2405
g2406
sg2407
g2408
sg21
g22
sg23
I2
sS'trials.thisIndex'
p2768
g2412
sS'stim.thisRepN'
p2769
I0
sg25
g30
sg2414
g403
sS'trials.thisRepN'
p2770
I2
sS'trials.thisN'
p2771
I2
sg2417
g55
(g79
S'\x11\x00\x00\x00\x00\x00\x00\x00'
p2772
tp2773
Rp2774
sg24
g11
sS'trials.thisTrialN'
p2775
I0
sS'block.thisIndex'
p2776
g1648
sg2423
g55
(g79
S'\x07\x00\x00\x00\x00\x00\x00\x00'
p2777
tp2778
Rp2779
sa(dp2780
S'block.thisTrialN'
p2781
I0
sS'stim.thisTrialN'
p2782
I17
sS'block.thisRepN'
p2783
I1
sg2397
g2398
sS'stim.thisIndex'
p2784
g55
(g59
S'\x11\x00\x00\x00'
p2785
tp2786
Rp2787
sg31
NsS'block.thisN'
p2788
I1
sS'stim.thisN'
p2789
I17
sg2405
g2406
sg2407
g2408
sg21
g22
sg23
I2
sS'trials.thisIndex'
p2790
g2412
sS'stim.thisRepN'
p2791
I0
sg25
g30
sg2414
g358
sS'trials.thisRepN'
p2792
I2
sS'trials.thisN'
p2793
I2
sg2417
g55
(g79
S'\x12\x00\x00\x00\x00\x00\x00\x00'
p2794
tp2795
Rp2796
sg24
g11
sS'trials.thisTrialN'
p2797
I0
sS'block.thisIndex'
p2798
g1648
sg2423
g55
(g79
S'\x07\x00\x00\x00\x00\x00\x00\x00'
p2799
tp2800
Rp2801
sa(dp2802
S'block.thisTrialN'
p2803
I0
sS'block.thisRepN'
p2804
I1
sg16
S'2'
p2805
sS'trials.thisRepN'
p2806
I2
sg15
F0.10310130000289064
sg25
g30
sS'block.thisN'
p2807
I1
sg31
NsS'trials.thisN'
p2808
I2
sg14
g2805
sg24
g11
sS'trials.thisTrialN'
p2809
I0
sS'trials.thisIndex'
p2810
g2412
sg21
g22
sg23
I2
sS'block.thisIndex'
p2811
g1648
sg17
F0.19320609999704175
sa(dp2812
S'block.thisTrialN'
p2813
I0
sS'stim.thisTrialN'
p2814
I0
sS'block.thisRepN'
p2815
I1
sS'Tx'
p2816
Vt2
p2817
sS'stim.thisIndex'
p2818
g55
(g59
S'\x00\x00\x00\x00'
p2819
tp2820
Rp2821
sg31
NsS'block.thisN'
p2822
I1
sS'stim.thisN'
p2823
I0
sS'sep_dur'
p2824
Vlong
p2825
sS'cond'
p2826
Vdistractor
p2827
sg21
g22
sg23
I2
sS'trials.thisIndex'
p2828
g55
(g59
S'\x00\x00\x00\x00'
p2829
tp2830
Rp2831
sS'stim.thisRepN'
p2832
I0
sg25
g30
sS'stimulus'
p2833
g967
sS'trials.thisRepN'
p2834
I3
sS'trials.thisN'
p2835
I3
sS'trial'
p2836
g55
(g79
S'\x01\x00\x00\x00\x00\x00\x00\x00'
p2837
tp2838
Rp2839
sg24
g11
sS'trials.thisTrialN'
p2840
I0
sS'block.thisIndex'
p2841
g1648
sS'block'
p2842
g55
(g79
S'\x08\x00\x00\x00\x00\x00\x00\x00'
p2843
tp2844
Rp2845
sa(dp2846
S'block.thisTrialN'
p2847
I0
sS'stim.thisTrialN'
p2848
I1
sS'block.thisRepN'
p2849
I1
sg2816
g2817
sS'stim.thisIndex'
p2850
g55
(g59
S'\x01\x00\x00\x00'
p2851
tp2852
Rp2853
sg31
NsS'block.thisN'
p2854
I1
sS'stim.thisN'
p2855
I1
sg2824
g2825
sg2826
g2827
sg21
g22
sg23
I2
sS'trials.thisIndex'
p2856
g2831
sS'stim.thisRepN'
p2857
I0
sg25
g30
sg2833
g426
sS'trials.thisRepN'
p2858
I3
sS'trials.thisN'
p2859
I3
sg2836
g55
(g79
S'\x02\x00\x00\x00\x00\x00\x00\x00'
p2860
tp2861
Rp2862
sg24
g11
sS'trials.thisTrialN'
p2863
I0
sS'block.thisIndex'
p2864
g1648
sg2842
g55
(g79
S'\x08\x00\x00\x00\x00\x00\x00\x00'
p2865
tp2866
Rp2867
sa(dp2868
S'block.thisTrialN'
p2869
I0
sS'stim.thisTrialN'
p2870
I2
sS'block.thisRepN'
p2871
I1
sg2816
g2817
sS'stim.thisIndex'
p2872
g55
(g59
S'\x02\x00\x00\x00'
p2873
tp2874
Rp2875
sg31
NsS'block.thisN'
p2876
I1
sS'stim.thisN'
p2877
I2
sg2824
g2825
sg2826
g2827
sg21
g22
sg23
I2
sS'trials.thisIndex'
p2878
g2831
sS'stim.thisRepN'
p2879
I0
sg25
g30
sg2833
g358
sS'trials.thisRepN'
p2880
I3
sS'trials.thisN'
p2881
I3
sg2836
g55
(g79
S'\x03\x00\x00\x00\x00\x00\x00\x00'
p2882
tp2883
Rp2884
sg24
g11
sS'trials.thisTrialN'
p2885
I0
sS'block.thisIndex'
p2886
g1648
sg2842
g55
(g79
S'\x08\x00\x00\x00\x00\x00\x00\x00'
p2887
tp2888
Rp2889
sa(dp2890
S'block.thisTrialN'
p2891
I0
sS'stim.thisTrialN'
p2892
I3
sS'block.thisRepN'
p2893
I1
sg2816
g2817
sS'stim.thisIndex'
p2894
g55
(g59
S'\x03\x00\x00\x00'
p2895
tp2896
Rp2897
sg31
NsS'block.thisN'
p2898
I1
sS'stim.thisN'
p2899
I3
sg2824
g2825
sg2826
g2827
sg21
g22
sg23
I2
sS'trials.thisIndex'
p2900
g2831
sS'stim.thisRepN'
p2901
I0
sg25
g30
sg2833
g403
sS'trials.thisRepN'
p2902
I3
sS'trials.thisN'
p2903
I3
sg2836
g55
(g79
S'\x04\x00\x00\x00\x00\x00\x00\x00'
p2904
tp2905
Rp2906
sg24
g11
sS'trials.thisTrialN'
p2907
I0
sS'block.thisIndex'
p2908
g1648
sg2842
g55
(g79
S'\x08\x00\x00\x00\x00\x00\x00\x00'
p2909
tp2910
Rp2911
sa(dp2912
S'block.thisTrialN'
p2913
I0
sS'stim.thisTrialN'
p2914
I4
sS'block.thisRepN'
p2915
I1
sg2816
g2817
sS'stim.thisIndex'
p2916
g55
(g59
S'\x04\x00\x00\x00'
p2917
tp2918
Rp2919
sg31
NsS'block.thisN'
p2920
I1
sS'stim.thisN'
p2921
I4
sg2824
g2825
sg2826
Vtarget
p2922
sg21
g22
sg23
I2
sS'trials.thisIndex'
p2923
g2831
sS'stim.thisRepN'
p2924
I0
sg25
g30
sg2833
V5
p2925
sS'trials.thisRepN'
p2926
I3
sS'trials.thisN'
p2927
I3
sg2836
g55
(g79
S'\x05\x00\x00\x00\x00\x00\x00\x00'
p2928
tp2929
Rp2930
sg24
g11
sS'trials.thisTrialN'
p2931
I0
sS'block.thisIndex'
p2932
g1648
sg2842
g55
(g79
S'\x08\x00\x00\x00\x00\x00\x00\x00'
p2933
tp2934
Rp2935
sa(dp2936
S'block.thisTrialN'
p2937
I0
sS'stim.thisTrialN'
p2938
I5
sS'block.thisRepN'
p2939
I1
sg2816
g2817
sS'stim.thisIndex'
p2940
g55
(g59
S'\x05\x00\x00\x00'
p2941
tp2942
Rp2943
sg31
NsS'block.thisN'
p2944
I1
sS'stim.thisN'
p2945
I5
sg2824
g2825
sg2826
g2827
sg21
g22
sg23
I2
sS'trials.thisIndex'
p2946
g2831
sS'stim.thisRepN'
p2947
I0
sg25
g30
sg2833
g1345
sS'trials.thisRepN'
p2948
I3
sS'trials.thisN'
p2949
I3
sg2836
g55
(g79
S'\x06\x00\x00\x00\x00\x00\x00\x00'
p2950
tp2951
Rp2952
sg24
g11
sS'trials.thisTrialN'
p2953
I0
sS'block.thisIndex'
p2954
g1648
sg2842
g55
(g79
S'\x08\x00\x00\x00\x00\x00\x00\x00'
p2955
tp2956
Rp2957
sa(dp2958
S'block.thisTrialN'
p2959
I0
sS'stim.thisTrialN'
p2960
I6
sS'block.thisRepN'
p2961
I1
sg2816
g2817
sS'stim.thisIndex'
p2962
g55
(g59
S'\x06\x00\x00\x00'
p2963
tp2964
Rp2965
sg31
NsS'block.thisN'
p2966
I1
sS'stim.thisN'
p2967
I6
sg2824
g2825
sg2826
g2827
sg21
g22
sg23
I2
sS'trials.thisIndex'
p2968
g2831
sS'stim.thisRepN'
p2969
I0
sg25
g30
sg2833
g967
sS'trials.thisRepN'
p2970
I3
sS'trials.thisN'
p2971
I3
sg2836
g55
(g79
S'\x07\x00\x00\x00\x00\x00\x00\x00'
p2972
tp2973
Rp2974
sg24
g11
sS'trials.thisTrialN'
p2975
I0
sS'block.thisIndex'
p2976
g1648
sg2842
g55
(g79
S'\x08\x00\x00\x00\x00\x00\x00\x00'
p2977
tp2978
Rp2979
sa(dp2980
S'block.thisTrialN'
p2981
I0
sS'stim.thisTrialN'
p2982
I7
sS'block.thisRepN'
p2983
I1
sg2816
g2817
sS'stim.thisIndex'
p2984
g55
(g59
S'\x07\x00\x00\x00'
p2985
tp2986
Rp2987
sg31
NsS'block.thisN'
p2988
I1
sS'stim.thisN'
p2989
I7
sg2824
g2825
sg2826
g2827
sg21
g22
sg23
I2
sS'trials.thisIndex'
p2990
g2831
sS'stim.thisRepN'
p2991
I0
sg25
g30
sg2833
g243
sS'trials.thisRepN'
p2992
I3
sS'trials.thisN'
p2993
I3
sg2836
g55
(g79
S'\x08\x00\x00\x00\x00\x00\x00\x00'
p2994
tp2995
Rp2996
sg24
g11
sS'trials.thisTrialN'
p2997
I0
sS'block.thisIndex'
p2998
g1648
sg2842
g55
(g79
S'\x08\x00\x00\x00\x00\x00\x00\x00'
p2999
tp3000
Rp3001
sa(dp3002
S'block.thisTrialN'
p3003
I0
sS'stim.thisTrialN'
p3004
I8
sS'block.thisRepN'
p3005
I1
sg2816
g2817
sS'stim.thisIndex'
p3006
g55
(g59
S'\x08\x00\x00\x00'
p3007
tp3008
Rp3009
sg31
NsS'block.thisN'
p3010
I1
sS'stim.thisN'
p3011
I8
sg2824
g2825
sg2826
g2827
sg21
g22
sg23
I2
sS'trials.thisIndex'
p3012
g2831
sS'stim.thisRepN'
p3013
I0
sg25
g30
sg2833
g403
sS'trials.thisRepN'
p3014
I3
sS'trials.thisN'
p3015
I3
sg2836
g55
(g79
S'\t\x00\x00\x00\x00\x00\x00\x00'
p3016
tp3017
Rp3018
sg24
g11
sS'trials.thisTrialN'
p3019
I0
sS'block.thisIndex'
p3020
g1648
sg2842
g55
(g79
S'\x08\x00\x00\x00\x00\x00\x00\x00'
p3021
tp3022
Rp3023
sa(dp3024
S'block.thisTrialN'
p3025
I0
sS'stim.thisTrialN'
p3026
I9
sS'block.thisRepN'
p3027
I1
sg2816
g2817
sS'stim.thisIndex'
p3028
g55
(g59
S'\t\x00\x00\x00'
p3029
tp3030
Rp3031
sg31
NsS'block.thisN'
p3032
I1
sS'stim.thisN'
p3033
I9
sg2824
g2825
sg2826
g2827
sg21
g22
sg23
I2
sS'trials.thisIndex'
p3034
g2831
sS'stim.thisRepN'
p3035
I0
sg25
g30
sg2833
g674
sS'trials.thisRepN'
p3036
I3
sS'trials.thisN'
p3037
I3
sg2836
g55
(g79
S'\n\x00\x00\x00\x00\x00\x00\x00'
p3038
tp3039
Rp3040
sg24
g11
sS'trials.thisTrialN'
p3041
I0
sS'block.thisIndex'
p3042
g1648
sg2842
g55
(g79
S'\x08\x00\x00\x00\x00\x00\x00\x00'
p3043
tp3044
Rp3045
sa(dp3046
S'block.thisTrialN'
p3047
I0
sS'stim.thisTrialN'
p3048
I10
sS'block.thisRepN'
p3049
I1
sg2816
g2817
sS'stim.thisIndex'
p3050
g55
(g59
S'\n\x00\x00\x00'
p3051
tp3052
Rp3053
sg31
NsS'block.thisN'
p3054
I1
sS'stim.thisN'
p3055
I10
sg2824
g2825
sg2826
g2827
sg21
g22
sg23
I2
sS'trials.thisIndex'
p3056
g2831
sS'stim.thisRepN'
p3057
I0
sg25
g30
sg2833
g607
sS'trials.thisRepN'
p3058
I3
sS'trials.thisN'
p3059
I3
sg2836
g55
(g79
S'\x0b\x00\x00\x00\x00\x00\x00\x00'
p3060
tp3061
Rp3062
sg24
g11
sS'trials.thisTrialN'
p3063
I0
sS'block.thisIndex'
p3064
g1648
sg2842
g55
(g79
S'\x08\x00\x00\x00\x00\x00\x00\x00'
p3065
tp3066
Rp3067
sa(dp3068
S'block.thisTrialN'
p3069
I0
sS'stim.thisTrialN'
p3070
I11
sS'block.thisRepN'
p3071
I1
sg2816
g2817
sS'stim.thisIndex'
p3072
g55
(g59
S'\x0b\x00\x00\x00'
p3073
tp3074
Rp3075
sg31
NsS'block.thisN'
p3076
I1
sS'stim.thisN'
p3077
I11
sg2824
g2825
sg2826
g2827
sg21
g22
sg23
I2
sS'trials.thisIndex'
p3078
g2831
sS'stim.thisRepN'
p3079
I0
sg25
g30
sg2833
g129
sS'trials.thisRepN'
p3080
I3
sS'trials.thisN'
p3081
I3
sg2836
g55
(g79
S'\x0c\x00\x00\x00\x00\x00\x00\x00'
p3082
tp3083
Rp3084
sg24
g11
sS'trials.thisTrialN'
p3085
I0
sS'block.thisIndex'
p3086
g1648
sg2842
g55
(g79
S'\x08\x00\x00\x00\x00\x00\x00\x00'
p3087
tp3088
Rp3089
sa(dp3090
S'block.thisTrialN'
p3091
I0
sS'stim.thisTrialN'
p3092
I12
sS'block.thisRepN'
p3093
I1
sg2816
g2817
sS'stim.thisIndex'
p3094
g55
(g59
S'\x0c\x00\x00\x00'
p3095
tp3096
Rp3097
sg31
NsS'block.thisN'
p3098
I1
sS'stim.thisN'
p3099
I12
sg2824
g2825
sg2826
g2827
sg21
g22
sg23
I2
sS'trials.thisIndex'
p3100
g2831
sS'stim.thisRepN'
p3101
I0
sg25
g30
sg2833
g607
sS'trials.thisRepN'
p3102
I3
sS'trials.thisN'
p3103
I3
sg2836
g55
(g79
S'\r\x00\x00\x00\x00\x00\x00\x00'
p3104
tp3105
Rp3106
sg24
g11
sS'trials.thisTrialN'
p3107
I0
sS'block.thisIndex'
p3108
g1648
sg2842
g55
(g79
S'\x08\x00\x00\x00\x00\x00\x00\x00'
p3109
tp3110
Rp3111
sa(dp3112
S'block.thisTrialN'
p3113
I0
sS'stim.thisTrialN'
p3114
I13
sS'block.thisRepN'
p3115
I1
sg2816
g2817
sS'stim.thisIndex'
p3116
g55
(g59
S'\r\x00\x00\x00'
p3117
tp3118
Rp3119
sg31
NsS'block.thisN'
p3120
I1
sS'stim.thisN'
p3121
I13
sg2824
g2825
sg2826
g2922
sg21
g22
sg23
I2
sS'trials.thisIndex'
p3122
g2831
sS'stim.thisRepN'
p3123
I0
sg25
g30
sg2833
g1842
sS'trials.thisRepN'
p3124
I3
sS'trials.thisN'
p3125
I3
sg2836
g55
(g79
S'\x0e\x00\x00\x00\x00\x00\x00\x00'
p3126
tp3127
Rp3128
sg24
g11
sS'trials.thisTrialN'
p3129
I0
sS'block.thisIndex'
p3130
g1648
sg2842
g55
(g79
S'\x08\x00\x00\x00\x00\x00\x00\x00'
p3131
tp3132
Rp3133
sa(dp3134
S'block.thisTrialN'
p3135
I0
sS'stim.thisTrialN'
p3136
I14
sS'block.thisRepN'
p3137
I1
sg2816
g2817
sS'stim.thisIndex'
p3138
g55
(g59
S'\x0e\x00\x00\x00'
p3139
tp3140
Rp3141
sg31
NsS'block.thisN'
p3142
I1
sS'stim.thisN'
p3143
I14
sg2824
g2825
sg2826
g2827
sg21
g22
sg23
I2
sS'trials.thisIndex'
p3144
g2831
sS'stim.thisRepN'
p3145
I0
sg25
g30
sg2833
g426
sS'trials.thisRepN'
p3146
I3
sS'trials.thisN'
p3147
I3
sg2836
g55
(g79
S'\x0f\x00\x00\x00\x00\x00\x00\x00'
p3148
tp3149
Rp3150
sg24
g11
sS'trials.thisTrialN'
p3151
I0
sS'block.thisIndex'
p3152
g1648
sg2842
g55
(g79
S'\x08\x00\x00\x00\x00\x00\x00\x00'
p3153
tp3154
Rp3155
sa(dp3156
S'block.thisTrialN'
p3157
I0
sS'stim.thisTrialN'
p3158
I15
sS'block.thisRepN'
p3159
I1
sg2816
g2817
sS'stim.thisIndex'
p3160
g55
(g59
S'\x0f\x00\x00\x00'
p3161
tp3162
Rp3163
sg31
NsS'block.thisN'
p3164
I1
sS'stim.thisN'
p3165
I15
sg2824
g2825
sg2826
g2827
sg21
g22
sg23
I2
sS'trials.thisIndex'
p3166
g2831
sS'stim.thisRepN'
p3167
I0
sg25
g30
sg2833
g335
sS'trials.thisRepN'
p3168
I3
sS'trials.thisN'
p3169
I3
sg2836
g55
(g79
S'\x10\x00\x00\x00\x00\x00\x00\x00'
p3170
tp3171
Rp3172
sg24
g11
sS'trials.thisTrialN'
p3173
I0
sS'block.thisIndex'
p3174
g1648
sg2842
g55
(g79
S'\x08\x00\x00\x00\x00\x00\x00\x00'
p3175
tp3176
Rp3177
sa(dp3178
S'block.thisTrialN'
p3179
I0
sS'stim.thisTrialN'
p3180
I16
sS'block.thisRepN'
p3181
I1
sg2816
g2817
sS'stim.thisIndex'
p3182
g55
(g59
S'\x10\x00\x00\x00'
p3183
tp3184
Rp3185
sg31
NsS'block.thisN'
p3186
I1
sS'stim.thisN'
p3187
I16
sg2824
g2825
sg2826
g2827
sg21
g22
sg23
I2
sS'trials.thisIndex'
p3188
g2831
sS'stim.thisRepN'
p3189
I0
sg25
g30
sg2833
g129
sS'trials.thisRepN'
p3190
I3
sS'trials.thisN'
p3191
I3
sg2836
g55
(g79
S'\x11\x00\x00\x00\x00\x00\x00\x00'
p3192
tp3193
Rp3194
sg24
g11
sS'trials.thisTrialN'
p3195
I0
sS'block.thisIndex'
p3196
g1648
sg2842
g55
(g79
S'\x08\x00\x00\x00\x00\x00\x00\x00'
p3197
tp3198
Rp3199
sa(dp3200
S'block.thisTrialN'
p3201
I0
sS'stim.thisTrialN'
p3202
I17
sS'block.thisRepN'
p3203
I1
sg2816
g2817
sS'stim.thisIndex'
p3204
g55
(g59
S'\x11\x00\x00\x00'
p3205
tp3206
Rp3207
sg31
NsS'block.thisN'
p3208
I1
sS'stim.thisN'
p3209
I17
sg2824
g2825
sg2826
g2827
sg21
g22
sg23
I2
sS'trials.thisIndex'
p3210
g2831
sS'stim.thisRepN'
p3211
I0
sg25
g30
sg2833
g403
sS'trials.thisRepN'
p3212
I3
sS'trials.thisN'
p3213
I3
sg2836
g55
(g79
S'\x12\x00\x00\x00\x00\x00\x00\x00'
p3214
tp3215
Rp3216
sg24
g11
sS'trials.thisTrialN'
p3217
I0
sS'block.thisIndex'
p3218
g1648
sg2842
g55
(g79
S'\x08\x00\x00\x00\x00\x00\x00\x00'
p3219
tp3220
Rp3221
sa(dp3222
S'block.thisTrialN'
p3223
I0
sS'block.thisRepN'
p3224
I1
sg16
g2805
sS'trials.thisRepN'
p3225
I3
sg15
F0.06834680000611115
sg25
g30
sS'block.thisN'
p3226
I1
sg31
NsS'trials.thisN'
p3227
I3
sg14
g2805
sg24
g11
sS'trials.thisTrialN'
p3228
I0
sS'trials.thisIndex'
p3229
g2831
sg21
g22
sg23
I2
sS'block.thisIndex'
p3230
g1648
sg17
F0.24154129999806173
sa(dp3231
S'block.thisTrialN'
p3232
I0
sS'block.thisRepN'
p3233
I1
sg31
Nsg25
g30
sS'block.thisN'
p3234
I1
sg24
g11
sg21
g22
sg23
I2
sS'block.thisIndex'
p3235
g1648
sa(dp3236
g21
g22
sg25
g30
sg24
g11
sg23
I2
sg31
NsasS'loops'
p3237
(lp3238
g0
(cpsychopy.data.trial
TrialHandler
p3239
g2
Ntp3240
Rp3241
(dp3242
S'origin'
p3243
NsS'thisTrial'
p3244
(lp3245
sS'_exp'
p3246
I528436528
sg10
S'block'
p3247
sg6
I-1
sS'thisRepN'
p3248
I2
sg18
I01
sg19
g20
sS'data'
p3249
g0
(cpsychopy.data.base
DataHandler
p3250
c__builtin__
dict
p3251
(dp3252
S'ran'
p3253
cnumpy.ma.core
_mareconstruct
p3254
(cnumpy.ma.core
MaskedArray
p3255
cnumpy
ndarray
p3256
(I0
tp3257
S'b'
p3258
tp3259
Rp3260
(I1
(I1
I2
tp3261
g56
(S'f4'
p3262
I0
I1
tp3263
Rp3264
(I3
S'<'
p3265
NNNI-1
I-1
I0
tp3266
bI00
S'\x00\x00\x80?\x00\x00\x80?'
p3267
S'\x00\x00'
p3268
Ntp3269
bsS'order'
p3270
g3254
(g3255
g3256
g3257
g3258
tp3271
Rp3272
(I1
(I1
I2
tp3273
g3264
I00
S'\x00\x00\x00\x00\x00\x00\x80?'
p3274
S'\x00\x00'
p3275
Ntp3276
bstp3277
Rp3278
(dp3279
S'isNumeric'
p3280
(dp3281
g3253
I01
sg3270
I01
ssS'trials'
p3282
g3241
sS'dataTypes'
p3283
(lp3284
g3253
ag3270
asS'dataShape'
p3285
(lp3286
I1
aI2
asbsS'method'
p3287
S'random'
p3288
sS'sequenceIndices'
p3289
cnumpy.core.multiarray
_reconstruct
p3290
(g3256
(I0
tp3291
g3258
tp3292
Rp3293
(I1
(I1
I2
tp3294
g59
I00
S'\x00\x00\x00\x00\x00\x00\x00\x00'
p3295
tp3296
bsS'finished'
p3297
I01
sS'nReps'
p3298
I2
sS'nRemaining'
p3299
I-1
sS'trialList'
p3300
(lp3301
NasS'seed'
p3302
NsS'thisIndex'
p3303
g1648
sS'thisN'
p3304
I2
sS'thisTrialN'
p3305
I0
sS'nTotal'
p3306
I2
sbag0
(g3239
g2
Ntp3307
Rp3308
(dp3309
g3243
Nsg3244
(lp3310
sg3246
I528436528
sg10
g3282
sg6
I-1
sg3248
I4
sg18
I01
sg19
g20
sg3249
g0
(g3250
g3251
(dp3311
g14
g3290
(g3256
(I0
tp3312
g3258
tp3313
Rp3314
(I1
(I1
I4
tp3315
g56
(S'O4'
p3316
I0
I1
tp3317
Rp3318
(I3
S'|'
p3319
NNNI-1
I-1
I63
tp3320
bI00
(lp3321
g462
ag462
ag1248
ag1248
atp3322
bsg16
g3290
(g3256
(I0
tp3323
g3258
tp3324
Rp3325
(I1
(I1
I4
tp3326
g3318
I00
(lp3327
g462
ag462
ag1248
ag1248
atp3328
bsg3253
g3254
(g3255
g3256
g3257
g3258
tp3329
Rp3330
(I1
(I1
I4
tp3331
g3264
I00
S'\x00\x00\x80?\x00\x00\x80?\x00\x00\x80?\x00\x00\x80?'
p3332
S'\x00\x00\x00\x00'
p3333
Ntp3334
bsg15
g3254
(g3255
g3256
g3257
g3258
tp3335
Rp3336
(I1
(I1
I4
tp3337
g3264
I00
S'\x8dc:?{:\x13?xp\xa3?cG7?'
p3338
S'\x00\x00\x00\x00'
p3339
Ntp3340
bsg3270
g3254
(g3255
g3256
g3257
g3258
tp3341
Rp3342
(I1
(I1
I4
tp3343
g3264
I00
S'\x00\x00\x00\x00\x00\x00\x80?\x00\x00\x00@\x00\x00@@'
p3344
S'\x00\x00\x00\x00'
p3345
Ntp3346
bsg17
g3254
(g3255
g3256
g3257
g3258
tp3347
Rp3348
(I1
(I1
I4
tp3349
g3264
I00
S'c\x1d\x9c>\xb8:%>o\x8a\x1d>\xac^\x1c>'
p3350
S'\x00\x00\x00\x00'
p3351
Ntp3352
bstp3353
Rp3354
(dp3355
g3280
(dp3356
g16
I00
sg3253
I01
sg15
I01
sg14
I00
sg3270
I01
sg17
I01
ssg3282
g3308
sg3283
(lp3357
g3253
ag3270
ag14
ag15
ag16
ag17
asg3285
(lp3358
I1
aI4
asbsg3287
S'sequential'
p3359
sg3289
g3290
(g3256
(I0
tp3360
g3258
tp3361
Rp3362
(I1
(I1
I4
tp3363
g59
I00
S'\x00\x00\x00\x00\x00\x00\x00\x00\x00\x00\x00\x00\x00\x00\x00\x00'
p3364
tp3365
bsg3297
I01
sg3298
I4
sg3299
I-1
sg3300
(lp3366
Nasg3302
Nsg3303
g1274
sg3304
I4
sg3305
I0
sg3306
I4
sbag0
(g3239
g2
Ntp3367
Rp3368
(dp3369
g3243
Nsg3244
(lp3370
sg3246
I528436528
sg10
S'stim'
p3371
sg6
I-1
sg3248
I1
sg18
I01
sg19
g20
sg3249
g0
(g3250
g3251
(dp3372
g3253
g3254
(g3255
g3256
g3257
g3258
tp3373
Rp3374
(I1
(I17
I1
tp3375
g3264
I00
S'\x00\x00\x80?\x00\x00\x80?\x00\x00\x80?\x00\x00\x80?\x00\x00\x80?\x00\x00\x80?\x00\x00\x80?\x00\x00\x80?\x00\x00\x80?\x00\x00\x80?\x00\x00\x80?\x00\x00\x80?\x00\x00\x80?\x00\x00\x80?\x00\x00\x80?\x00\x00\x80?\x00\x00\x80?'
p3376
S'\x00\x00\x00\x00\x00\x00\x00\x00\x00\x00\x00\x00\x00\x00\x00\x00\x00'
p3377
Ntp3378
bsg3270
g3254
(g3255
g3256
g3257
g3258
tp3379
Rp3380
(I1
(I17
I1
tp3381
g3264
I00
S'\x00\x00\x00\x00\x00\x00\x80?\x00\x00\x00@\x00\x00@@\x00\x00\x80@\x00\x00\xa0@\x00\x00\xc0@\x00\x00\xe0@\x00\x00\x00A\x00\x00\x10A\x00\x00 A\x00\x000A\x00\x00@A\x00\x00PA\x00\x00`A\x00\x00pA\x00\x00\x80A'
p3382
S'\x00\x00\x00\x00\x00\x00\x00\x00\x00\x00\x00\x00\x00\x00\x00\x00\x00'
p3383
Ntp3384
bstp3385
Rp3386
(dp3387
g3280
(dp3388
g3253
I01
sg3270
I01
ssg3282
g3368
sg3283
(lp3389
g3253
ag3270
asg3285
(lp3390
I17
aI1
asbsg3287
g3359
sg3289
g3290
(g3256
(I0
tp3391
g3258
tp3392
Rp3393
(I1
(I17
I1
tp3394
g59
I00
S'\x00\x00\x00\x00\x01\x00\x00\x00\x02\x00\x00\x00\x03\x00\x00\x00\x04\x00\x00\x00\x05\x00\x00\x00\x06\x00\x00\x00\x07\x00\x00\x00\x08\x00\x00\x00\t\x00\x00\x00\n\x00\x00\x00\x0b\x00\x00\x00\x0c\x00\x00\x00\r\x00\x00\x00\x0e\x00\x00\x00\x0f\x00\x00\x00\x10\x00\x00\x00'
p3395
tp3396
bsg3297
I01
sg3298
I1
sg3299
I-1
sg3300
(lp3397
ccollections
OrderedDict
p3398
((lp3399
(lp3400
g41
ag92
aa(lp3401
g42
ag67
aa(lp3402
g43
ag53
aa(lp3403
g44
ag84
aa(lp3404
g45
ag74
aa(lp3405
g46
ag68
aatp3406
Rp3407
ag3398
((lp3408
(lp3409
g41
ag116
aa(lp3410
g42
ag67
aa(lp3411
g43
ag53
aa(lp3412
g44
ag111
aa(lp3413
g45
ag106
aa(lp3414
g46
ag103
aatp3415
Rp3416
ag3398
((lp3417
(lp3418
g41
ag139
aa(lp3419
g42
ag67
aa(lp3420
g43
ag53
aa(lp3421
g44
ag134
aa(lp3422
g45
ag129
aa(lp3423
g46
ag68
aatp3424
Rp3425
ag3398
((lp3426
(lp3427
g41
ag162
aa(lp3428
g42
ag67
aa(lp3429
g43
ag53
aa(lp3430
g44
ag157
aa(lp3431
g45
ag152
aa(lp3432
g46
ag68
aatp3433
Rp3434
ag3398
((lp3435
(lp3436
g41
ag185
aa(lp3437
g42
ag67
aa(lp3438
g43
ag53
aa(lp3439
g44
ag180
aa(lp3440
g45
ag175
aa(lp3441
g46
ag68
aatp3442
Rp3443
ag3398
((lp3444
(lp3445
g41
ag208
aa(lp3446
g42
ag67
aa(lp3447
g43
ag53
aa(lp3448
g44
ag203
aa(lp3449
g45
ag198
aa(lp3450
g46
ag68
aatp3451
Rp3452
ag3398
((lp3453
(lp3454
g41
ag230
aa(lp3455
g42
ag67
aa(lp3456
g43
ag53
aa(lp3457
g44
ag225
aa(lp3458
g45
ag198
aa(lp3459
g46
ag68
aatp3460
Rp3461
ag3398
((lp3462
(lp3463
g41
ag253
aa(lp3464
g42
ag67
aa(lp3465
g43
ag53
aa(lp3466
g44
ag248
aa(lp3467
g45
ag243
aa(lp3468
g46
ag68
aatp3469
Rp3470
ag3398
((lp3471
(lp3472
g41
ag276
aa(lp3473
g42
ag67
aa(lp3474
g43
ag53
aa(lp3475
g44
ag271
aa(lp3476
g45
ag266
aa(lp3477
g46
ag68
aatp3478
Rp3479
ag3398
((lp3480
(lp3481
g41
ag299
aa(lp3482
g42
ag67
aa(lp3483
g43
ag53
aa(lp3484
g44
ag294
aa(lp3485
g45
ag289
aa(lp3486
g46
ag68
aatp3487
Rp3488
ag3398
((lp3489
(lp3490
g41
ag322
aa(lp3491
g42
ag67
aa(lp3492
g43
ag53
aa(lp3493
g44
ag317
aa(lp3494
g45
ag312
aa(lp3495
g46
ag103
aatp3496
Rp3497
ag3398
((lp3498
(lp3499
g41
ag345
aa(lp3500
g42
ag67
aa(lp3501
g43
ag53
aa(lp3502
g44
ag340
aa(lp3503
g45
ag335
aa(lp3504
g46
ag68
aatp3505
Rp3506
ag3398
((lp3507
(lp3508
g41
ag368
aa(lp3509
g42
ag67
aa(lp3510
g43
ag53
aa(lp3511
g44
ag363
aa(lp3512
g45
ag358
aa(lp3513
g46
ag68
aatp3514
Rp3515
ag3398
((lp3516
(lp3517
g41
ag390
aa(lp3518
g42
ag67
aa(lp3519
g43
ag53
aa(lp3520
g44
ag385
aa(lp3521
g45
ag335
aa(lp3522
g46
ag68
aatp3523
Rp3524
ag3398
((lp3525
(lp3526
g41
ag413
aa(lp3527
g42
ag67
aa(lp3528
g43
ag53
aa(lp3529
g44
ag408
aa(lp3530
g45
ag403
aa(lp3531
g46
ag68
aatp3532
Rp3533
ag3398
((lp3534
(lp3535
g41
ag436
aa(lp3536
g42
ag67
aa(lp3537
g43
ag53
aa(lp3538
g44
ag431
aa(lp3539
g45
ag426
aa(lp3540
g46
ag68
aatp3541
Rp3542
ag3398
((lp3543
(lp3544
g41
ag458
aa(lp3545
g42
ag67
aa(lp3546
g43
ag53
aa(lp3547
g44
ag453
aa(lp3548
g45
ag426
aa(lp3549
g46
ag68
aatp3550
Rp3551
asg3302
Nsg3303
g444
sg3304
I17
sg3305
I0
sg3306
I17
sbag0
(g3239
g2
Ntp3552
Rp3553
(dp3554
g3243
Nsg3244
(lp3555
sg3246
I528436528
sg10
g3371
sg6
I-1
sg3248
I1
sg18
I01
sg19
g20
sg3249
g0
(g3250
g3251
(dp3556
g3253
g3254
(g3255
g3256
g3257
g3258
tp3557
Rp3558
(I1
(I17
I1
tp3559
g3264
I00
S'\x00\x00\x80?\x00\x00\x80?\x00\x00\x80?\x00\x00\x80?\x00\x00\x80?\x00\x00\x80?\x00\x00\x80?\x00\x00\x80?\x00\x00\x80?\x00\x00\x80?\x00\x00\x80?\x00\x00\x80?\x00\x00\x80?\x00\x00\x80?\x00\x00\x80?\x00\x00\x80?\x00\x00\x80?'
p3560
S'\x00\x00\x00\x00\x00\x00\x00\x00\x00\x00\x00\x00\x00\x00\x00\x00\x00'
p3561
Ntp3562
bsg3270
g3254
(g3255
g3256
g3257
g3258
tp3563
Rp3564
(I1
(I17
I1
tp3565
g3264
I00
S'\x00\x00\x00\x00\x00\x00\x80?\x00\x00\x00@\x00\x00@@\x00\x00\x80@\x00\x00\xa0@\x00\x00\xc0@\x00\x00\xe0@\x00\x00\x00A\x00\x00\x10A\x00\x00 A\x00\x000A\x00\x00@A\x00\x00PA\x00\x00`A\x00\x00pA\x00\x00\x80A'
p3566
S'\x00\x00\x00\x00\x00\x00\x00\x00\x00\x00\x00\x00\x00\x00\x00\x00\x00'
p3567
Ntp3568
bstp3569
Rp3570
(dp3571
g3280
(dp3572
g3253
I01
sg3270
I01
ssg3282
g3553
sg3283
(lp3573
g3253
ag3270
asg3285
(lp3574
I17
aI1
asbsg3287
g3359
sg3289
g3290
(g3256
(I0
tp3575
g3258
tp3576
Rp3577
(I1
(I17
I1
tp3578
g59
I00
S'\x00\x00\x00\x00\x01\x00\x00\x00\x02\x00\x00\x00\x03\x00\x00\x00\x04\x00\x00\x00\x05\x00\x00\x00\x06\x00\x00\x00\x07\x00\x00\x00\x08\x00\x00\x00\t\x00\x00\x00\n\x00\x00\x00\x0b\x00\x00\x00\x0c\x00\x00\x00\r\x00\x00\x00\x0e\x00\x00\x00\x0f\x00\x00\x00\x10\x00\x00\x00'
p3579
tp3580
bsg3297
I01
sg3298
I1
sg3299
I-1
sg3300
(lp3581
g3398
((lp3582
(lp3583
g499
ag502
aa(lp3584
g481
ag482
aa(lp3585
g473
ag474
aa(lp3586
g493
ag496
aa(lp3587
g490
ag74
aa(lp3588
g483
ag484
aatp3589
Rp3590
ag3398
((lp3591
(lp3592
g499
ag525
aa(lp3593
g481
ag482
aa(lp3594
g473
ag474
aa(lp3595
g493
ag520
aa(lp3596
g490
ag515
aa(lp3597
g483
ag484
aatp3598
Rp3599
ag3398
((lp3600
(lp3601
g499
ag548
aa(lp3602
g481
ag482
aa(lp3603
g473
ag474
aa(lp3604
g493
ag543
aa(lp3605
g490
ag538
aa(lp3606
g483
ag484
aatp3607
Rp3608
ag3398
((lp3609
(lp3610
g499
ag571
aa(lp3611
g481
ag482
aa(lp3612
g473
ag474
aa(lp3613
g493
ag566
aa(lp3614
g490
ag561
aa(lp3615
g483
ag484
aatp3616
Rp3617
ag3398
((lp3618
(lp3619
g499
ag594
aa(lp3620
g481
ag482
aa(lp3621
g473
ag474
aa(lp3622
g493
ag589
aa(lp3623
g490
ag584
aa(lp3624
g483
ag484
aatp3625
Rp3626
ag3398
((lp3627
(lp3628
g499
ag617
aa(lp3629
g481
ag482
aa(lp3630
g473
ag474
aa(lp3631
g493
ag612
aa(lp3632
g490
ag607
aa(lp3633
g483
ag484
aatp3634
Rp3635
ag3398
((lp3636
(lp3637
g499
ag639
aa(lp3638
g481
ag482
aa(lp3639
g473
ag474
aa(lp3640
g493
ag634
aa(lp3641
g490
ag198
aa(lp3642
g483
ag484
aatp3643
Rp3644
ag3398
((lp3645
(lp3646
g499
ag661
aa(lp3647
g481
ag482
aa(lp3648
g473
ag474
aa(lp3649
g493
ag656
aa(lp3650
g490
ag538
aa(lp3651
g483
ag484
aatp3652
Rp3653
ag3398
((lp3654
(lp3655
g499
ag684
aa(lp3656
g481
ag482
aa(lp3657
g473
ag474
aa(lp3658
g493
ag679
aa(lp3659
g490
ag674
aa(lp3660
g483
ag484
aatp3661
Rp3662
ag3398
((lp3663
(lp3664
g499
ag706
aa(lp3665
g481
ag482
aa(lp3666
g473
ag474
aa(lp3667
g493
ag701
aa(lp3668
g490
ag152
aa(lp3669
g483
ag484
aatp3670
Rp3671
ag3398
((lp3672
(lp3673
g499
ag730
aa(lp3674
g481
ag482
aa(lp3675
g473
ag474
aa(lp3676
g493
ag725
aa(lp3677
g490
ag720
aa(lp3678
g483
ag717
aatp3679
Rp3680
ag3398
((lp3681
(lp3682
g499
ag753
aa(lp3683
g481
ag482
aa(lp3684
g473
ag474
aa(lp3685
g493
ag748
aa(lp3686
g490
ag743
aa(lp3687
g483
ag484
aatp3688
Rp3689
ag3398
((lp3690
(lp3691
g499
ag776
aa(lp3692
g481
ag482
aa(lp3693
g473
ag474
aa(lp3694
g493
ag771
aa(lp3695
g490
ag766
aa(lp3696
g483
ag484
aatp3697
Rp3698
ag3398
((lp3699
(lp3700
g499
ag798
aa(lp3701
g481
ag482
aa(lp3702
g473
ag474
aa(lp3703
g493
ag793
aa(lp3704
g490
ag584
aa(lp3705
g483
ag484
aatp3706
Rp3707
ag3398
((lp3708
(lp3709
g499
ag820
aa(lp3710
g481
ag482
aa(lp3711
g473
ag474
aa(lp3712
g493
ag815
aa(lp3713
g490
ag129
aa(lp3714
g483
ag484
aatp3715
Rp3716
ag3398
((lp3717
(lp3718
g499
ag844
aa(lp3719
g481
ag482
aa(lp3720
g473
ag474
aa(lp3721
g493
ag839
aa(lp3722
g490
ag834
aa(lp3723
g483
ag831
aatp3724
Rp3725
ag3398
((lp3726
(lp3727
g499
ag867
aa(lp3728
g481
ag482
aa(lp3729
g473
ag474
aa(lp3730
g493
ag862
aa(lp3731
g490
ag857
aa(lp3732
g483
ag484
aatp3733
Rp3734
asg3302
Nsg3303
g852
sg3304
I17
sg3305
I0
sg3306
I17
sbag0
(g3239
g2
Ntp3735
Rp3736
(dp3737
g3243
Nsg3244
(lp3738
sg3246
I528436528
sg10
g3371
sg6
I-1
sg3248
I1
sg18
I01
sg19
g20
sg3249
g0
(g3250
g3251
(dp3739
g3253
g3254
(g3255
g3256
g3257
g3258
tp3740
Rp3741
(I1
(I16
I1
tp3742
g3264
I00
S'\x00\x00\x80?\x00\x00\x80?\x00\x00\x80?\x00\x00\x80?\x00\x00\x80?\x00\x00\x80?\x00\x00\x80?\x00\x00\x80?\x00\x00\x80?\x00\x00\x80?\x00\x00\x80?\x00\x00\x80?\x00\x00\x80?\x00\x00\x80?\x00\x00\x80?\x00\x00\x80?'
p3743
S'\x00\x00\x00\x00\x00\x00\x00\x00\x00\x00\x00\x00\x00\x00\x00\x00'
p3744
Ntp3745
bsg3270
g3254
(g3255
g3256
g3257
g3258
tp3746
Rp3747
(I1
(I16
I1
tp3748
g3264
I00
S'\x00\x00\x00\x00\x00\x00\x80?\x00\x00\x00@\x00\x00@@\x00\x00\x80@\x00\x00\xa0@\x00\x00\xc0@\x00\x00\xe0@\x00\x00\x00A\x00\x00\x10A\x00\x00 A\x00\x000A\x00\x00@A\x00\x00PA\x00\x00`A\x00\x00pA'
p3749
S'\x00\x00\x00\x00\x00\x00\x00\x00\x00\x00\x00\x00\x00\x00\x00\x00'
p3750
Ntp3751
bstp3752
Rp3753
(dp3754
g3280
(dp3755
g3253
I01
sg3270
I01
ssg3282
g3736
sg3283
(lp3756
g3253
ag3270
asg3285
(lp3757
I16
aI1
asbsg3287
g3359
sg3289
g3290
(g3256
(I0
tp3758
g3258
tp3759
Rp3760
(I1
(I16
I1
tp3761
g59
I00
S'\x00\x00\x00\x00\x01\x00\x00\x00\x02\x00\x00\x00\x03\x00\x00\x00\x04\x00\x00\x00\x05\x00\x00\x00\x06\x00\x00\x00\x07\x00\x00\x00\x08\x00\x00\x00\t\x00\x00\x00\n\x00\x00\x00\x0b\x00\x00\x00\x0c\x00\x00\x00\r\x00\x00\x00\x0e\x00\x00\x00\x0f\x00\x00\x00'
p3762
tp3763
bsg3297
I01
sg3298
I1
sg3299
I-1
sg3300
(lp3764
g3398
((lp3765
(lp3766
g907
ag910
aa(lp3767
g889
ag890
aa(lp3768
g881
ag882
aa(lp3769
g901
ag904
aa(lp3770
g898
ag515
aa(lp3771
g891
ag892
aatp3772
Rp3773
ag3398
((lp3774
(lp3775
g907
ag932
aa(lp3776
g889
ag890
aa(lp3777
g881
ag882
aa(lp3778
g901
ag927
aa(lp3779
g898
ag152
aa(lp3780
g891
ag892
aatp3781
Rp3782
ag3398
((lp3783
(lp3784
g907
ag954
aa(lp3785
g889
ag890
aa(lp3786
g881
ag882
aa(lp3787
g901
ag949
aa(lp3788
g898
ag515
aa(lp3789
g891
ag892
aatp3790
Rp3791
ag3398
((lp3792
(lp3793
g907
ag977
aa(lp3794
g889
ag890
aa(lp3795
g881
ag882
aa(lp3796
g901
ag972
aa(lp3797
g898
ag967
aa(lp3798
g891
ag892
aatp3799
Rp3800
ag3398
((lp3801
(lp3802
g907
ag999
aa(lp3803
g889
ag890
aa(lp3804
g881
ag882
aa(lp3805
g901
ag994
aa(lp3806
g898
ag266
aa(lp3807
g891
ag892
aatp3808
Rp3809
ag3398
((lp3810
(lp3811
g907
ag1021
aa(lp3812
g889
ag890
aa(lp3813
g881
ag882
aa(lp3814
g901
ag1016
aa(lp3815
g898
ag289
aa(lp3816
g891
ag892
aatp3817
Rp3818
ag3398
((lp3819
(lp3820
g907
ag1045
aa(lp3821
g889
ag890
aa(lp3822
g881
ag882
aa(lp3823
g901
ag1040
aa(lp3824
g898
ag1035
aa(lp3825
g891
ag1032
aatp3826
Rp3827
ag3398
((lp3828
(lp3829
g907
ag1067
aa(lp3830
g889
ag890
aa(lp3831
g881
ag882
aa(lp3832
g901
ag1062
aa(lp3833
g898
ag766
aa(lp3834
g891
ag892
aatp3835
Rp3836
ag3398
((lp3837
(lp3838
g907
ag1089
aa(lp3839
g889
ag890
aa(lp3840
g881
ag882
aa(lp3841
g901
ag1084
aa(lp3842
g898
ag857
aa(lp3843
g891
ag892
aatp3844
Rp3845
ag3398
((lp3846
(lp3847
g907
ag1111
aa(lp3848
g889
ag890
aa(lp3849
g881
ag882
aa(lp3850
g901
ag1106
aa(lp3851
g898
ag403
aa(lp3852
g891
ag892
aatp3853
Rp3854
ag3398
((lp3855
(lp3856
g907
ag1133
aa(lp3857
g889
ag890
aa(lp3858
g881
ag882
aa(lp3859
g901
ag1128
aa(lp3860
g898
ag175
aa(lp3861
g891
ag892
aatp3862
Rp3863
ag3398
((lp3864
(lp3865
g907
ag1156
aa(lp3866
g889
ag890
aa(lp3867
g881
ag882
aa(lp3868
g901
ag1151
aa(lp3869
g898
ag834
aa(lp3870
g891
ag1144
aatp3871
Rp3872
ag3398
((lp3873
(lp3874
g907
ag1178
aa(lp3875
g889
ag890
aa(lp3876
g881
ag882
aa(lp3877
g901
ag1173
aa(lp3878
g898
ag538
aa(lp3879
g891
ag892
aatp3880
Rp3881
ag3398
((lp3882
(lp3883
g907
ag1200
aa(lp3884
g889
ag890
aa(lp3885
g881
ag882
aa(lp3886
g901
ag1195
aa(lp3887
g898
ag967
aa(lp3888
g891
ag892
aatp3889
Rp3890
ag3398
((lp3891
(lp3892
g907
ag1222
aa(lp3893
g889
ag890
aa(lp3894
g881
ag882
aa(lp3895
g901
ag1217
aa(lp3896
g898
ag129
aa(lp3897
g891
ag892
aatp3898
Rp3899
ag3398
((lp3900
(lp3901
g907
ag1244
aa(lp3902
g889
ag890
aa(lp3903
g881
ag882
aa(lp3904
g901
ag1239
aa(lp3905
g898
ag766
aa(lp3906
g891
ag892
aatp3907
Rp3908
asg3302
Nsg3303
g1230
sg3304
I16
sg3305
I0
sg3306
I16
sbag0
(g3239
g2
Ntp3909
Rp3910
(dp3911
g3243
Nsg3244
(lp3912
sg3246
I528436528
sg10
g3371
sg6
I-1
sg3248
I1
sg18
I01
sg19
g20
sg3249
g0
(g3250
g3251
(dp3913
g3253
g3254
(g3255
g3256
g3257
g3258
tp3914
Rp3915
(I1
(I15
I1
tp3916
g3264
I00
S'\x00\x00\x80?\x00\x00\x80?\x00\x00\x80?\x00\x00\x80?\x00\x00\x80?\x00\x00\x80?\x00\x00\x80?\x00\x00\x80?\x00\x00\x80?\x00\x00\x80?\x00\x00\x80?\x00\x00\x80?\x00\x00\x80?\x00\x00\x80?\x00\x00\x80?'
p3917
S'\x00\x00\x00\x00\x00\x00\x00\x00\x00\x00\x00\x00\x00\x00\x00'
p3918
Ntp3919
bsg3270
g3254
(g3255
g3256
g3257
g3258
tp3920
Rp3921
(I1
(I15
I1
tp3922
g3264
I00
S'\x00\x00\x00\x00\x00\x00\x80?\x00\x00\x00@\x00\x00@@\x00\x00\x80@\x00\x00\xa0@\x00\x00\xc0@\x00\x00\xe0@\x00\x00\x00A\x00\x00\x10A\x00\x00 A\x00\x000A\x00\x00@A\x00\x00PA\x00\x00`A'
p3923
S'\x00\x00\x00\x00\x00\x00\x00\x00\x00\x00\x00\x00\x00\x00\x00'
p3924
Ntp3925
bstp3926
Rp3927
(dp3928
g3280
(dp3929
g3253
I01
sg3270
I01
ssg3282
g3910
sg3283
(lp3930
g3253
ag3270
asg3285
(lp3931
I15
aI1
asbsg3287
g3359
sg3289
g3290
(g3256
(I0
tp3932
g3258
tp3933
Rp3934
(I1
(I15
I1
tp3935
g59
I00
S'\x00\x00\x00\x00\x01\x00\x00\x00\x02\x00\x00\x00\x03\x00\x00\x00\x04\x00\x00\x00\x05\x00\x00\x00\x06\x00\x00\x00\x07\x00\x00\x00\x08\x00\x00\x00\t\x00\x00\x00\n\x00\x00\x00\x0b\x00\x00\x00\x0c\x00\x00\x00\r\x00\x00\x00\x0e\x00\x00\x00'
p3936
tp3937
bsg3297
I01
sg3298
I1
sg3299
I-1
sg3300
(lp3938
g3398
((lp3939
(lp3940
g1285
ag1288
aa(lp3941
g1267
ag1268
aa(lp3942
g1259
ag1260
aa(lp3943
g1279
ag1282
aa(lp3944
g1276
ag289
aa(lp3945
g1269
ag1270
aatp3946
Rp3947
ag3398
((lp3948
(lp3949
g1285
ag1310
aa(lp3950
g1267
ag1268
aa(lp3951
g1259
ag1260
aa(lp3952
g1279
ag1305
aa(lp3953
g1276
ag561
aa(lp3954
g1269
ag1270
aatp3955
Rp3956
ag3398
((lp3957
(lp3958
g1285
ag1332
aa(lp3959
g1267
ag1268
aa(lp3960
g1259
ag1260
aa(lp3961
g1279
ag1327
aa(lp3962
g1276
ag335
aa(lp3963
g1269
ag1270
aatp3964
Rp3965
ag3398
((lp3966
(lp3967
g1285
ag1355
aa(lp3968
g1267
ag1268
aa(lp3969
g1259
ag1260
aa(lp3970
g1279
ag1350
aa(lp3971
g1276
ag1345
aa(lp3972
g1269
ag1270
aatp3973
Rp3974
ag3398
((lp3975
(lp3976
g1285
ag1377
aa(lp3977
g1267
ag1268
aa(lp3978
g1259
ag1260
aa(lp3979
g1279
ag1372
aa(lp3980
g1276
ag967
aa(lp3981
g1269
ag1270
aatp3982
Rp3983
ag3398
((lp3984
(lp3985
g1285
ag1401
aa(lp3986
g1267
ag1268
aa(lp3987
g1259
ag1260
aa(lp3988
g1279
ag1396
aa(lp3989
g1276
ag1391
aa(lp3990
g1269
ag1388
aatp3991
Rp3992
ag3398
((lp3993
(lp3994
g1285
ag1423
aa(lp3995
g1267
ag1268
aa(lp3996
g1259
ag1260
aa(lp3997
g1279
ag1418
aa(lp3998
g1276
ag426
aa(lp3999
g1269
ag1270
aatp4000
Rp4001
ag3398
((lp4002
(lp4003
g1285
ag1445
aa(lp4004
g1267
ag1268
aa(lp4005
g1259
ag1260
aa(lp4006
g1279
ag1440
aa(lp4007
g1276
ag607
aa(lp4008
g1269
ag1270
aatp4009
Rp4010
ag3398
((lp4011
(lp4012
g1285
ag1468
aa(lp4013
g1267
ag1268
aa(lp4014
g1259
ag1260
aa(lp4015
g1279
ag1463
aa(lp4016
g1276
ag1458
aa(lp4017
g1269
ag1270
aatp4018
Rp4019
ag3398
((lp4020
(lp4021
g1285
ag1490
aa(lp4022
g1267
ag1268
aa(lp4023
g1259
ag1260
aa(lp4024
g1279
ag1485
aa(lp4025
g1276
ag426
aa(lp4026
g1269
ag1270
aatp4027
Rp4028
ag3398
((lp4029
(lp4030
g1285
ag1513
aa(lp4031
g1267
ag1268
aa(lp4032
g1259
ag1260
aa(lp4033
g1279
ag1508
aa(lp4034
g1276
ag1503
aa(lp4035
g1269
ag1270
aatp4036
Rp4037
ag3398
((lp4038
(lp4039
g1285
ag1535
aa(lp4040
g1267
ag1268
aa(lp4041
g1259
ag1260
aa(lp4042
g1279
ag1530
aa(lp4043
g1276
ag1345
aa(lp4044
g1269
ag1270
aatp4045
Rp4046
ag3398
((lp4047
(lp4048
g1285
ag1557
aa(lp4049
g1267
ag1268
aa(lp4050
g1259
ag1260
aa(lp4051
g1279
ag1552
aa(lp4052
g1276
ag1345
aa(lp4053
g1269
ag1270
aatp4054
Rp4055
ag3398
((lp4056
(lp4057
g1285
ag1579
aa(lp4058
g1267
ag1268
aa(lp4059
g1259
ag1260
aa(lp4060
g1279
ag1574
aa(lp4061
g1276
ag538
aa(lp4062
g1269
ag1270
aatp4063
Rp4064
ag3398
((lp4065
(lp4066
g1285
ag1601
aa(lp4067
g1267
ag1268
aa(lp4068
g1259
ag1260
aa(lp4069
g1279
ag1596
aa(lp4070
g1276
ag106
aa(lp4071
g1269
ag1388
aatp4072
Rp4073
asg3302
Nsg3303
g1587
sg3304
I15
sg3305
I0
sg3306
I15
sbag0
(g3239
g2
Ntp4074
Rp4075
(dp4076
g3243
Nsg3244
(lp4077
sg3246
I528436528
sg10
g3282
sg6
I-1
sg3248
I4
sg18
I01
sg19
g20
sg3249
g0
(g3250
g3251
(dp4078
g14
g3290
(g3256
(I0
tp4079
g3258
tp4080
Rp4081
(I1
(I1
I4
tp4082
g3318
I00
(lp4083
g1248
ag2389
ag2805
ag2805
atp4084
bsg16
g3290
(g3256
(I0
tp4085
g3258
tp4086
Rp4087
(I1
(I1
I4
tp4088
g3318
I00
(lp4089
g1248
ag462
ag2805
ag2805
atp4090
bsg3253
g3254
(g3255
g3256
g3257
g3258
tp4091
Rp4092
(I1
(I1
I4
tp4093
g3264
I00
S'\x00\x00\x80?\x00\x00\x80?\x00\x00\x80?\x00\x00\x80?'
p4094
S'\x00\x00\x00\x00'
p4095
Ntp4096
bsg15
g3254
(g3255
g3256
g3257
g3258
tp4097
Rp4098
(I1
(I1
I4
tp4099
g3264
I00
S'\xe1g\xff>\xcc\x86\xc7>\xc6&\xd3=h\xf9\x8b='
p4100
S'\x00\x00\x00\x00'
p4101
Ntp4102
bsg3270
g3254
(g3255
g3256
g3257
g3258
tp4103
Rp4104
(I1
(I1
I4
tp4105
g3264
I00
S'\x00\x00\x00\x00\x00\x00\x80?\x00\x00\x00@\x00\x00@@'
p4106
S'\x00\x00\x00\x00'
p4107
Ntp4108
bsg17
g3254
(g3255
g3256
g3257
g3258
tp4109
Rp4110
(I1
(I1
I4
tp4111
g3264
I00
S'\xcb\xc4\x03>n\x90\xb4=\xd2\xd7E>\x9aVw>'
p4112
S'\x00\x00\x00\x00'
p4113
Ntp4114
bstp4115
Rp4116
(dp4117
g3280
(dp4118
g16
I00
sg3253
I01
sg15
I01
sg14
I00
sg3270
I01
sg17
I01
ssg3282
g4075
sg3283
(lp4119
g3253
ag3270
ag14
ag15
ag16
ag17
asg3285
(lp4120
I1
aI4
asbsg3287
g3359
sg3289
g3290
(g3256
(I0
tp4121
g3258
tp4122
Rp4123
(I1
(I1
I4
tp4124
g59
I00
S'\x00\x00\x00\x00\x00\x00\x00\x00\x00\x00\x00\x00\x00\x00\x00\x00'
p4125
tp4126
bsg3297
I01
sg3298
I4
sg3299
I-1
sg3300
(lp4127
Nasg3302
Nsg3303
g2831
sg3304
I4
sg3305
I0
sg3306
I4
sbag0
(g3239
g2
Ntp4128
Rp4129
(dp4130
g3243
Nsg3244
(lp4131
sg3246
I528436528
sg10
g3371
sg6
I-1
sg3248
I1
sg18
I01
sg19
g20
sg3249
g0
(g3250
g3251
(dp4132
g3253
g3254
(g3255
g3256
g3257
g3258
tp4133
Rp4134
(I1
(I17
I1
tp4135
g3264
I00
S'\x00\x00\x80?\x00\x00\x80?\x00\x00\x80?\x00\x00\x80?\x00\x00\x80?\x00\x00\x80?\x00\x00\x80?\x00\x00\x80?\x00\x00\x80?\x00\x00\x80?\x00\x00\x80?\x00\x00\x80?\x00\x00\x80?\x00\x00\x80?\x00\x00\x80?\x00\x00\x80?\x00\x00\x80?'
p4136
S'\x00\x00\x00\x00\x00\x00\x00\x00\x00\x00\x00\x00\x00\x00\x00\x00\x00'
p4137
Ntp4138
bsg3270
g3254
(g3255
g3256
g3257
g3258
tp4139
Rp4140
(I1
(I17
I1
tp4141
g3264
I00
S'\x00\x00\x00\x00\x00\x00\x80?\x00\x00\x00@\x00\x00@@\x00\x00\x80@\x00\x00\xa0@\x00\x00\xc0@\x00\x00\xe0@\x00\x00\x00A\x00\x00\x10A\x00\x00 A\x00\x000A\x00\x00@A\x00\x00PA\x00\x00`A\x00\x00pA\x00\x00\x80A'
p4142
S'\x00\x00\x00\x00\x00\x00\x00\x00\x00\x00\x00\x00\x00\x00\x00\x00\x00'
p4143
Ntp4144
bstp4145
Rp4146
(dp4147
g3280
(dp4148
g3253
I01
sg3270
I01
ssg3282
g4129
sg3283
(lp4149
g3253
ag3270
asg3285
(lp4150
I17
aI1
asbsg3287
g3359
sg3289
g3290
(g3256
(I0
tp4151
g3258
tp4152
Rp4153
(I1
(I17
I1
tp4154
g59
I00
S'\x00\x00\x00\x00\x01\x00\x00\x00\x02\x00\x00\x00\x03\x00\x00\x00\x04\x00\x00\x00\x05\x00\x00\x00\x06\x00\x00\x00\x07\x00\x00\x00\x08\x00\x00\x00\t\x00\x00\x00\n\x00\x00\x00\x0b\x00\x00\x00\x0c\x00\x00\x00\r\x00\x00\x00\x0e\x00\x00\x00\x0f\x00\x00\x00\x10\x00\x00\x00'
p4155
tp4156
bsg3297
I01
sg3298
I1
sg3299
I-1
sg3300
(lp4157
g3398
((lp4158
(lp4159
g1649
ag1652
aa(lp4160
g1628
ag1629
aa(lp4161
g1620
ag1621
aa(lp4162
g1640
ag1643
aa(lp4163
g1637
ag74
aa(lp4164
g1630
ag1631
aatp4165
Rp4166
ag3398
((lp4167
(lp4168
g1649
ag1674
aa(lp4169
g1628
ag1629
aa(lp4170
g1620
ag1621
aa(lp4171
g1640
ag1669
aa(lp4172
g1637
ag584
aa(lp4173
g1630
ag1631
aatp4174
Rp4175
ag3398
((lp4176
(lp4177
g1649
ag1696
aa(lp4178
g1628
ag1629
aa(lp4179
g1620
ag1621
aa(lp4180
g1640
ag1691
aa(lp4181
g1637
ag403
aa(lp4182
g1630
ag1631
aatp4183
Rp4184
ag3398
((lp4185
(lp4186
g1649
ag1718
aa(lp4187
g1628
ag1629
aa(lp4188
g1620
ag1621
aa(lp4189
g1640
ag1713
aa(lp4190
g1637
ag1503
aa(lp4191
g1630
ag1631
aatp4192
Rp4193
ag3398
((lp4194
(lp4195
g1649
ag1740
aa(lp4196
g1628
ag1629
aa(lp4197
g1620
ag1621
aa(lp4198
g1640
ag1735
aa(lp4199
g1637
ag198
aa(lp4200
g1630
ag1631
aatp4201
Rp4202
ag3398
((lp4203
(lp4204
g1649
ag1762
aa(lp4205
g1628
ag1629
aa(lp4206
g1620
ag1621
aa(lp4207
g1640
ag1757
aa(lp4208
g1637
ag857
aa(lp4209
g1630
ag1631
aatp4210
Rp4211
ag3398
((lp4212
(lp4213
g1649
ag1784
aa(lp4214
g1628
ag1629
aa(lp4215
g1620
ag1621
aa(lp4216
g1640
ag1779
aa(lp4217
g1637
ag561
aa(lp4218
g1630
ag1631
aatp4219
Rp4220
ag3398
((lp4221
(lp4222
g1649
ag1806
aa(lp4223
g1628
ag1629
aa(lp4224
g1620
ag1621
aa(lp4225
g1640
ag1801
aa(lp4226
g1637
ag152
aa(lp4227
g1630
ag1631
aatp4228
Rp4229
ag3398
((lp4230
(lp4231
g1649
ag1828
aa(lp4232
g1628
ag1629
aa(lp4233
g1620
ag1621
aa(lp4234
g1640
ag1823
aa(lp4235
g1637
ag289
aa(lp4236
g1630
ag1631
aatp4237
Rp4238
ag3398
((lp4239
(lp4240
g1649
ag1852
aa(lp4241
g1628
ag1629
aa(lp4242
g1620
ag1621
aa(lp4243
g1640
ag1847
aa(lp4244
g1637
ag1842
aa(lp4245
g1630
ag1839
aatp4246
Rp4247
ag3398
((lp4248
(lp4249
g1649
ag1875
aa(lp4250
g1628
ag1629
aa(lp4251
g1620
ag1621
aa(lp4252
g1640
ag1870
aa(lp4253
g1637
ag1865
aa(lp4254
g1630
ag1631
aatp4255
Rp4256
ag3398
((lp4257
(lp4258
g1649
ag1897
aa(lp4259
g1628
ag1629
aa(lp4260
g1620
ag1621
aa(lp4261
g1640
ag1892
aa(lp4262
g1637
ag403
aa(lp4263
g1630
ag1631
aatp4264
Rp4265
ag3398
((lp4266
(lp4267
g1649
ag1919
aa(lp4268
g1628
ag1629
aa(lp4269
g1620
ag1621
aa(lp4270
g1640
ag1914
aa(lp4271
g1637
ag538
aa(lp4272
g1630
ag1631
aatp4273
Rp4274
ag3398
((lp4275
(lp4276
g1649
ag1941
aa(lp4277
g1628
ag1629
aa(lp4278
g1620
ag1621
aa(lp4279
g1640
ag1936
aa(lp4280
g1637
ag1458
aa(lp4281
g1630
ag1631
aatp4282
Rp4283
ag3398
((lp4284
(lp4285
g1649
ag1964
aa(lp4286
g1628
ag1629
aa(lp4287
g1620
ag1621
aa(lp4288
g1640
ag1959
aa(lp4289
g1637
ag834
aa(lp4290
g1630
ag1952
aatp4291
Rp4292
ag3398
((lp4293
(lp4294
g1649
ag1986
aa(lp4295
g1628
ag1629
aa(lp4296
g1620
ag1621
aa(lp4297
g1640
ag1981
aa(lp4298
g1637
ag175
aa(lp4299
g1630
ag1631
aatp4300
Rp4301
ag3398
((lp4302
(lp4303
g1649
ag2008
aa(lp4304
g1628
ag1629
aa(lp4305
g1620
ag1621
aa(lp4306
g1640
ag2003
aa(lp4307
g1637
ag74
aa(lp4308
g1630
ag1631
aatp4309
Rp4310
asg3302
Nsg3303
g1994
sg3304
I17
sg3305
I0
sg3306
I17
sbag0
(g3239
g2
Ntp4311
Rp4312
(dp4313
g3243
Nsg3244
(lp4314
sg3246
I528436528
sg10
g3371
sg6
I-1
sg3248
I1
sg18
I01
sg19
g20
sg3249
g0
(g3250
g3251
(dp4315
g3253
g3254
(g3255
g3256
g3257
g3258
tp4316
Rp4317
(I1
(I16
I1
tp4318
g3264
I00
S'\x00\x00\x80?\x00\x00\x80?\x00\x00\x80?\x00\x00\x80?\x00\x00\x80?\x00\x00\x80?\x00\x00\x80?\x00\x00\x80?\x00\x00\x80?\x00\x00\x80?\x00\x00\x80?\x00\x00\x80?\x00\x00\x80?\x00\x00\x80?\x00\x00\x80?\x00\x00\x80?'
p4319
S'\x00\x00\x00\x00\x00\x00\x00\x00\x00\x00\x00\x00\x00\x00\x00\x00'
p4320
Ntp4321
bsg3270
g3254
(g3255
g3256
g3257
g3258
tp4322
Rp4323
(I1
(I16
I1
tp4324
g3264
I00
S'\x00\x00\x00\x00\x00\x00\x80?\x00\x00\x00@\x00\x00@@\x00\x00\x80@\x00\x00\xa0@\x00\x00\xc0@\x00\x00\xe0@\x00\x00\x00A\x00\x00\x10A\x00\x00 A\x00\x000A\x00\x00@A\x00\x00PA\x00\x00`A\x00\x00pA'
p4325
S'\x00\x00\x00\x00\x00\x00\x00\x00\x00\x00\x00\x00\x00\x00\x00\x00'
p4326
Ntp4327
bstp4328
Rp4329
(dp4330
g3280
(dp4331
g3253
I01
sg3270
I01
ssg3282
g4312
sg3283
(lp4332
g3253
ag3270
asg3285
(lp4333
I16
aI1
asbsg3287
g3359
sg3289
g3290
(g3256
(I0
tp4334
g3258
tp4335
Rp4336
(I1
(I16
I1
tp4337
g59
I00
S'\x00\x00\x00\x00\x01\x00\x00\x00\x02\x00\x00\x00\x03\x00\x00\x00\x04\x00\x00\x00\x05\x00\x00\x00\x06\x00\x00\x00\x07\x00\x00\x00\x08\x00\x00\x00\t\x00\x00\x00\n\x00\x00\x00\x0b\x00\x00\x00\x0c\x00\x00\x00\r\x00\x00\x00\x0e\x00\x00\x00\x0f\x00\x00\x00'
p4338
tp4339
bsg3297
I01
sg3298
I1
sg3299
I-1
sg3300
(lp4340
g3398
((lp4341
(lp4342
g2048
ag2051
aa(lp4343
g2030
ag2031
aa(lp4344
g2022
ag2023
aa(lp4345
g2042
ag2045
aa(lp4346
g2039
ag243
aa(lp4347
g2032
ag2033
aatp4348
Rp4349
ag3398
((lp4350
(lp4351
g2048
ag2074
aa(lp4352
g2030
ag2031
aa(lp4353
g2022
ag2023
aa(lp4354
g2042
ag2069
aa(lp4355
g2039
ag1035
aa(lp4356
g2032
ag2062
aatp4357
Rp4358
ag3398
((lp4359
(lp4360
g2048
ag2096
aa(lp4361
g2030
ag2031
aa(lp4362
g2022
ag2023
aa(lp4363
g2042
ag2091
aa(lp4364
g2039
ag561
aa(lp4365
g2032
ag2033
aatp4366
Rp4367
ag3398
((lp4368
(lp4369
g2048
ag2118
aa(lp4370
g2030
ag2031
aa(lp4371
g2022
ag2023
aa(lp4372
g2042
ag2113
aa(lp4373
g2039
ag538
aa(lp4374
g2032
ag2033
aatp4375
Rp4376
ag3398
((lp4377
(lp4378
g2048
ag2140
aa(lp4379
g2030
ag2031
aa(lp4380
g2022
ag2023
aa(lp4381
g2042
ag2135
aa(lp4382
g2039
ag561
aa(lp4383
g2032
ag2033
aatp4384
Rp4385
ag3398
((lp4386
(lp4387
g2048
ag2162
aa(lp4388
g2030
ag2031
aa(lp4389
g2022
ag2023
aa(lp4390
g2042
ag2157
aa(lp4391
g2039
ag584
aa(lp4392
g2032
ag2033
aatp4393
Rp4394
ag3398
((lp4395
(lp4396
g2048
ag2184
aa(lp4397
g2030
ag2031
aa(lp4398
g2022
ag2023
aa(lp4399
g2042
ag2179
aa(lp4400
g2039
ag967
aa(lp4401
g2032
ag2033
aatp4402
Rp4403
ag3398
((lp4404
(lp4405
g2048
ag2206
aa(lp4406
g2030
ag2031
aa(lp4407
g2022
ag2023
aa(lp4408
g2042
ag2201
aa(lp4409
g2039
ag857
aa(lp4410
g2032
ag2033
aatp4411
Rp4412
ag3398
((lp4413
(lp4414
g2048
ag2228
aa(lp4415
g2030
ag2031
aa(lp4416
g2022
ag2023
aa(lp4417
g2042
ag2223
aa(lp4418
g2039
ag1865
aa(lp4419
g2032
ag2033
aatp4420
Rp4421
ag3398
((lp4422
(lp4423
g2048
ag2250
aa(lp4424
g2030
ag2031
aa(lp4425
g2022
ag2023
aa(lp4426
g2042
ag2245
aa(lp4427
g2039
ag561
aa(lp4428
g2032
ag2033
aatp4429
Rp4430
ag3398
((lp4431
(lp4432
g2048
ag2272
aa(lp4433
g2030
ag2031
aa(lp4434
g2022
ag2023
aa(lp4435
g2042
ag2267
aa(lp4436
g2039
ag312
aa(lp4437
g2032
ag2062
aatp4438
Rp4439
ag3398
((lp4440
(lp4441
g2048
ag2294
aa(lp4442
g2030
ag2031
aa(lp4443
g2022
ag2023
aa(lp4444
g2042
ag2289
aa(lp4445
g2039
ag358
aa(lp4446
g2032
ag2033
aatp4447
Rp4448
ag3398
((lp4449
(lp4450
g2048
ag2316
aa(lp4451
g2030
ag2031
aa(lp4452
g2022
ag2023
aa(lp4453
g2042
ag2311
aa(lp4454
g2039
ag857
aa(lp4455
g2032
ag2033
aatp4456
Rp4457
ag3398
((lp4458
(lp4459
g2048
ag2338
aa(lp4460
g2030
ag2031
aa(lp4461
g2022
ag2023
aa(lp4462
g2042
ag2333
aa(lp4463
g2039
ag426
aa(lp4464
g2032
ag2033
aatp4465
Rp4466
ag3398
((lp4467
(lp4468
g2048
ag2360
aa(lp4469
g2030
ag2031
aa(lp4470
g2022
ag2023
aa(lp4471
g2042
ag2355
aa(lp4472
g2039
ag175
aa(lp4473
g2032
ag2033
aatp4474
Rp4475
ag3398
((lp4476
(lp4477
g2048
ag2382
aa(lp4478
g2030
ag2031
aa(lp4479
g2022
ag2023
aa(lp4480
g2042
ag2377
aa(lp4481
g2039
ag266
aa(lp4482
g2032
ag2033
aatp4483
Rp4484
asg3302
Nsg3303
g2368
sg3304
I16
sg3305
I0
sg3306
I16
sbag0
(g3239
g2
Ntp4485
Rp4486
(dp4487
g3243
Nsg3244
(lp4488
sg3246
I528436528
sg10
g3371
sg6
I-1
sg3248
I1
sg18
I01
sg19
g20
sg3249
g0
(g3250
g3251
(dp4489
g3253
g3254
(g3255
g3256
g3257
g3258
tp4490
Rp4491
(I1
(I18
I1
tp4492
g3264
I00
S'\x00\x00\x80?\x00\x00\x80?\x00\x00\x80?\x00\x00\x80?\x00\x00\x80?\x00\x00\x80?\x00\x00\x80?\x00\x00\x80?\x00\x00\x80?\x00\x00\x80?\x00\x00\x80?\x00\x00\x80?\x00\x00\x80?\x00\x00\x80?\x00\x00\x80?\x00\x00\x80?\x00\x00\x80?\x00\x00\x80?'
p4493
S'\x00\x00\x00\x00\x00\x00\x00\x00\x00\x00\x00\x00\x00\x00\x00\x00\x00\x00'
p4494
Ntp4495
bsg3270
g3254
(g3255
g3256
g3257
g3258
tp4496
Rp4497
(I1
(I18
I1
tp4498
g3264
I00
S'\x00\x00\x00\x00\x00\x00\x80?\x00\x00\x00@\x00\x00@@\x00\x00\x80@\x00\x00\xa0@\x00\x00\xc0@\x00\x00\xe0@\x00\x00\x00A\x00\x00\x10A\x00\x00 A\x00\x000A\x00\x00@A\x00\x00PA\x00\x00`A\x00\x00pA\x00\x00\x80A\x00\x00\x88A'
p4499
S'\x00\x00\x00\x00\x00\x00\x00\x00\x00\x00\x00\x00\x00\x00\x00\x00\x00\x00'
p4500
Ntp4501
bstp4502
Rp4503
(dp4504
g3280
(dp4505
g3253
I01
sg3270
I01
ssg3282
g4486
sg3283
(lp4506
g3253
ag3270
asg3285
(lp4507
I18
aI1
asbsg3287
g3359
sg3289
g3290
(g3256
(I0
tp4508
g3258
tp4509
Rp4510
(I1
(I18
I1
tp4511
g59
I00
S'\x00\x00\x00\x00\x01\x00\x00\x00\x02\x00\x00\x00\x03\x00\x00\x00\x04\x00\x00\x00\x05\x00\x00\x00\x06\x00\x00\x00\x07\x00\x00\x00\x08\x00\x00\x00\t\x00\x00\x00\n\x00\x00\x00\x0b\x00\x00\x00\x0c\x00\x00\x00\r\x00\x00\x00\x0e\x00\x00\x00\x0f\x00\x00\x00\x10\x00\x00\x00\x11\x00\x00\x00'
p4512
tp4513
bsg3297
I01
sg3298
I1
sg3299
I-1
sg3300
(lp4514
g3398
((lp4515
(lp4516
g2423
ag2426
aa(lp4517
g2405
ag2406
aa(lp4518
g2397
ag2398
aa(lp4519
g2417
ag2420
aa(lp4520
g2414
ag403
aa(lp4521
g2407
ag2408
aatp4522
Rp4523
ag3398
((lp4524
(lp4525
g2423
ag2449
aa(lp4526
g2405
ag2406
aa(lp4527
g2397
ag2398
aa(lp4528
g2417
ag2444
aa(lp4529
g2414
ag720
aa(lp4530
g2407
ag2437
aatp4531
Rp4532
ag3398
((lp4533
(lp4534
g2423
ag2471
aa(lp4535
g2405
ag2406
aa(lp4536
g2397
ag2398
aa(lp4537
g2417
ag2466
aa(lp4538
g2414
ag74
aa(lp4539
g2407
ag2408
aatp4540
Rp4541
ag3398
((lp4542
(lp4543
g2423
ag2493
aa(lp4544
g2405
ag2406
aa(lp4545
g2397
ag2398
aa(lp4546
g2417
ag2488
aa(lp4547
g2414
ag1503
aa(lp4548
g2407
ag2408
aatp4549
Rp4550
ag3398
((lp4551
(lp4552
g2423
ag2515
aa(lp4553
g2405
ag2406
aa(lp4554
g2397
ag2398
aa(lp4555
g2417
ag2510
aa(lp4556
g2414
ag175
aa(lp4557
g2407
ag2408
aatp4558
Rp4559
ag3398
((lp4560
(lp4561
g2423
ag2537
aa(lp4562
g2405
ag2406
aa(lp4563
g2397
ag2398
aa(lp4564
g2417
ag2532
aa(lp4565
g2414
ag967
aa(lp4566
g2407
ag2408
aatp4567
Rp4568
ag3398
((lp4569
(lp4570
g2423
ag2559
aa(lp4571
g2405
ag2406
aa(lp4572
g2397
ag2398
aa(lp4573
g2417
ag2554
aa(lp4574
g2414
ag243
aa(lp4575
g2407
ag2408
aatp4576
Rp4577
ag3398
((lp4578
(lp4579
g2423
ag2581
aa(lp4580
g2405
ag2406
aa(lp4581
g2397
ag2398
aa(lp4582
g2417
ag2576
aa(lp4583
g2414
ag607
aa(lp4584
g2407
ag2408
aatp4585
Rp4586
ag3398
((lp4587
(lp4588
g2423
ag2603
aa(lp4589
g2405
ag2406
aa(lp4590
g2397
ag2398
aa(lp4591
g2417
ag2598
aa(lp4592
g2414
ag1865
aa(lp4593
g2407
ag2408
aatp4594
Rp4595
ag3398
((lp4596
(lp4597
g2423
ag2625
aa(lp4598
g2405
ag2406
aa(lp4599
g2397
ag2398
aa(lp4600
g2417
ag2620
aa(lp4601
g2414
ag766
aa(lp4602
g2407
ag2408
aatp4603
Rp4604
ag3398
((lp4605
(lp4606
g2423
ag2647
aa(lp4607
g2405
ag2406
aa(lp4608
g2397
ag2398
aa(lp4609
g2417
ag2642
aa(lp4610
g2414
ag312
aa(lp4611
g2407
ag2437
aatp4612
Rp4613
ag3398
((lp4614
(lp4615
g2423
ag2669
aa(lp4616
g2405
ag2406
aa(lp4617
g2397
ag2398
aa(lp4618
g2417
ag2664
aa(lp4619
g2414
ag1345
aa(lp4620
g2407
ag2408
aatp4621
Rp4622
ag3398
((lp4623
(lp4624
g2423
ag2691
aa(lp4625
g2405
ag2406
aa(lp4626
g2397
ag2398
aa(lp4627
g2417
ag2686
aa(lp4628
g2414
ag198
aa(lp4629
g2407
ag2408
aatp4630
Rp4631
ag3398
((lp4632
(lp4633
g2423
ag2713
aa(lp4634
g2405
ag2406
aa(lp4635
g2397
ag2398
aa(lp4636
g2417
ag2708
aa(lp4637
g2414
ag358
aa(lp4638
g2407
ag2408
aatp4639
Rp4640
ag3398
((lp4641
(lp4642
g2423
ag2735
aa(lp4643
g2405
ag2406
aa(lp4644
g2397
ag2398
aa(lp4645
g2417
ag2730
aa(lp4646
g2414
ag74
aa(lp4647
g2407
ag2408
aatp4648
Rp4649
ag3398
((lp4650
(lp4651
g2423
ag2757
aa(lp4652
g2405
ag2406
aa(lp4653
g2397
ag2398
aa(lp4654
g2417
ag2752
aa(lp4655
g2414
ag289
aa(lp4656
g2407
ag2408
aatp4657
Rp4658
ag3398
((lp4659
(lp4660
g2423
ag2779
aa(lp4661
g2405
ag2406
aa(lp4662
g2397
ag2398
aa(lp4663
g2417
ag2774
aa(lp4664
g2414
ag403
aa(lp4665
g2407
ag2408
aatp4666
Rp4667
ag3398
((lp4668
(lp4669
g2423
ag2801
aa(lp4670
g2405
ag2406
aa(lp4671
g2397
ag2398
aa(lp4672
g2417
ag2796
aa(lp4673
g2414
ag358
aa(lp4674
g2407
ag2408
aatp4675
Rp4676
asg3302
Nsg3303
g2787
sg3304
I18
sg3305
I0
sg3306
I18
sbag0
(g3239
g2
Ntp4677
Rp4678
(dp4679
g3243
Nsg3244
(lp4680
sg3246
I528436528
sg10
g3371
sg6
I-1
sg3248
I1
sg18
I01
sg19
g20
sg3249
g0
(g3250
g3251
(dp4681
g3253
g3254
(g3255
g3256
g3257
g3258
tp4682
Rp4683
(I1
(I18
I1
tp4684
g3264
I00
S'\x00\x00\x80?\x00\x00\x80?\x00\x00\x80?\x00\x00\x80?\x00\x00\x80?\x00\x00\x80?\x00\x00\x80?\x00\x00\x80?\x00\x00\x80?\x00\x00\x80?\x00\x00\x80?\x00\x00\x80?\x00\x00\x80?\x00\x00\x80?\x00\x00\x80?\x00\x00\x80?\x00\x00\x80?\x00\x00\x80?'
p4685
S'\x00\x00\x00\x00\x00\x00\x00\x00\x00\x00\x00\x00\x00\x00\x00\x00\x00\x00'
p4686
Ntp4687
bsg3270
g3254
(g3255
g3256
g3257
g3258
tp4688
Rp4689
(I1
(I18
I1
tp4690
g3264
I00
S'\x00\x00\x00\x00\x00\x00\x80?\x00\x00\x00@\x00\x00@@\x00\x00\x80@\x00\x00\xa0@\x00\x00\xc0@\x00\x00\xe0@\x00\x00\x00A\x00\x00\x10A\x00\x00 A\x00\x000A\x00\x00@A\x00\x00PA\x00\x00`A\x00\x00pA\x00\x00\x80A\x00\x00\x88A'
p4691
S'\x00\x00\x00\x00\x00\x00\x00\x00\x00\x00\x00\x00\x00\x00\x00\x00\x00\x00'
p4692
Ntp4693
bstp4694
Rp4695
(dp4696
g3280
(dp4697
g3253
I01
sg3270
I01
ssg3282
g4678
sg3283
(lp4698
g3253
ag3270
asg3285
(lp4699
I18
aI1
asbsg3287
g3359
sg3289
g3290
(g3256
(I0
tp4700
g3258
tp4701
Rp4702
(I1
(I18
I1
tp4703
g59
I00
S'\x00\x00\x00\x00\x01\x00\x00\x00\x02\x00\x00\x00\x03\x00\x00\x00\x04\x00\x00\x00\x05\x00\x00\x00\x06\x00\x00\x00\x07\x00\x00\x00\x08\x00\x00\x00\t\x00\x00\x00\n\x00\x00\x00\x0b\x00\x00\x00\x0c\x00\x00\x00\r\x00\x00\x00\x0e\x00\x00\x00\x0f\x00\x00\x00\x10\x00\x00\x00\x11\x00\x00\x00'
p4704
tp4705
bsg3297
I01
sg3298
I1
sg3299
I-1
sg3300
(lp4706
g3398
((lp4707
(lp4708
g2842
ag2845
aa(lp4709
g2824
ag2825
aa(lp4710
g2816
ag2817
aa(lp4711
g2836
ag2839
aa(lp4712
g2833
ag967
aa(lp4713
g2826
ag2827
aatp4714
Rp4715
ag3398
((lp4716
(lp4717
g2842
ag2867
aa(lp4718
g2824
ag2825
aa(lp4719
g2816
ag2817
aa(lp4720
g2836
ag2862
aa(lp4721
g2833
ag426
aa(lp4722
g2826
ag2827
aatp4723
Rp4724
ag3398
((lp4725
(lp4726
g2842
ag2889
aa(lp4727
g2824
ag2825
aa(lp4728
g2816
ag2817
aa(lp4729
g2836
ag2884
aa(lp4730
g2833
ag358
aa(lp4731
g2826
ag2827
aatp4732
Rp4733
ag3398
((lp4734
(lp4735
g2842
ag2911
aa(lp4736
g2824
ag2825
aa(lp4737
g2816
ag2817
aa(lp4738
g2836
ag2906
aa(lp4739
g2833
ag403
aa(lp4740
g2826
ag2827
aatp4741
Rp4742
ag3398
((lp4743
(lp4744
g2842
ag2935
aa(lp4745
g2824
ag2825
aa(lp4746
g2816
ag2817
aa(lp4747
g2836
ag2930
aa(lp4748
g2833
ag2925
aa(lp4749
g2826
ag2922
aatp4750
Rp4751
ag3398
((lp4752
(lp4753
g2842
ag2957
aa(lp4754
g2824
ag2825
aa(lp4755
g2816
ag2817
aa(lp4756
g2836
ag2952
aa(lp4757
g2833
ag1345
aa(lp4758
g2826
ag2827
aatp4759
Rp4760
ag3398
((lp4761
(lp4762
g2842
ag2979
aa(lp4763
g2824
ag2825
aa(lp4764
g2816
ag2817
aa(lp4765
g2836
ag2974
aa(lp4766
g2833
ag967
aa(lp4767
g2826
ag2827
aatp4768
Rp4769
ag3398
((lp4770
(lp4771
g2842
ag3001
aa(lp4772
g2824
ag2825
aa(lp4773
g2816
ag2817
aa(lp4774
g2836
ag2996
aa(lp4775
g2833
ag243
aa(lp4776
g2826
ag2827
aatp4777
Rp4778
ag3398
((lp4779
(lp4780
g2842
ag3023
aa(lp4781
g2824
ag2825
aa(lp4782
g2816
ag2817
aa(lp4783
g2836
ag3018
aa(lp4784
g2833
ag403
aa(lp4785
g2826
ag2827
aatp4786
Rp4787
ag3398
((lp4788
(lp4789
g2842
ag3045
aa(lp4790
g2824
ag2825
aa(lp4791
g2816
ag2817
aa(lp4792
g2836
ag3040
aa(lp4793
g2833
ag674
aa(lp4794
g2826
ag2827
aatp4795
Rp4796
ag3398
((lp4797
(lp4798
g2842
ag3067
aa(lp4799
g2824
ag2825
aa(lp4800
g2816
ag2817
aa(lp4801
g2836
ag3062
aa(lp4802
g2833
ag607
aa(lp4803
g2826
ag2827
aatp4804
Rp4805
ag3398
((lp4806
(lp4807
g2842
ag3089
aa(lp4808
g2824
ag2825
aa(lp4809
g2816
ag2817
aa(lp4810
g2836
ag3084
aa(lp4811
g2833
ag129
aa(lp4812
g2826
ag2827
aatp4813
Rp4814
ag3398
((lp4815
(lp4816
g2842
ag3111
aa(lp4817
g2824
ag2825
aa(lp4818
g2816
ag2817
aa(lp4819
g2836
ag3106
aa(lp4820
g2833
ag607
aa(lp4821
g2826
ag2827
aatp4822
Rp4823
ag3398
((lp4824
(lp4825
g2842
ag3133
aa(lp4826
g2824
ag2825
aa(lp4827
g2816
ag2817
aa(lp4828
g2836
ag3128
aa(lp4829
g2833
ag1842
aa(lp4830
g2826
ag2922
aatp4831
Rp4832
ag3398
((lp4833
(lp4834
g2842
ag3155
aa(lp4835
g2824
ag2825
aa(lp4836
g2816
ag2817
aa(lp4837
g2836
ag3150
aa(lp4838
g2833
ag426
aa(lp4839
g2826
ag2827
aatp4840
Rp4841
ag3398
((lp4842
(lp4843
g2842
ag3177
aa(lp4844
g2824
ag2825
aa(lp4845
g2816
ag2817
aa(lp4846
g2836
ag3172
aa(lp4847
g2833
ag335
aa(lp4848
g2826
ag2827
aatp4849
Rp4850
ag3398
((lp4851
(lp4852
g2842
ag3199
aa(lp4853
g2824
ag2825
aa(lp4854
g2816
ag2817
aa(lp4855
g2836
ag3194
aa(lp4856
g2833
ag129
aa(lp4857
g2826
ag2827
aatp4858
Rp4859
ag3398
((lp4860
(lp4861
g2842
ag3221
aa(lp4862
g2824
ag2825
aa(lp4863
g2816
ag2817
aa(lp4864
g2836
ag3216
aa(lp4865
g2833
ag403
aa(lp4866
g2826
ag2827
aatp4867
Rp4868
asg3302
Nsg3303
g3207
sg3304
I18
sg3305
I0
sg3306
I18
sbasS'savePickle'
p4869
I00
sb.