ccopy_reg
_reconstructor
p0
(cpsychopy.data.experiment
ExperimentHandler
p1
c__builtin__
object
p2
Ntp3
Rp4
(dp5
S'originPath'
p6
NsS'dataFileName'
p7
VC:\u005cUsers\u005center\u005cOneDrive - University of Toronto\u005cLabs\u005cInzlicht Lab\u005coutside_project\u005cexperiment\u005cpsychoPy_scripts\u005cFULL_EXPERIMENT\u005c__TASKS__\u005cwrapper_beta\u005cdata/John_rsvp_1005_2
p8
sS'runtimeInfo'
p9
NsS'name'
p10
Vrsvp
p11
sS'dataNames'
p12
(lp13
S'usr_input_t1.keys'
p14
aS'usr_input_t1.rt'
p15
aS'usr_input_t2.keys'
p16
aS'usr_input_t2.rt'
p17
asS'autoLog'
p18
I01
sS'extraInfo'
p19
(dp20
S'date'
p21
V2018_Nov_04_1715
p22
sS'run'
p23
I2
sS'expName'
p24
g11
sVparticipant
p25
g0
(cfuture.types.newstr
newstr
p26
c__builtin__
unicode
p27
V1005
p28
tp29
Rp30
sS'frameRate'
p31
cnumpy.core.multiarray
scalar
p32
(cnumpy
dtype
p33
(S'f8'
p34
I0
I1
tp35
Rp36
(I3
S'<'
p37
NNNI-1
I-1
I0
tp38
bS'\xde\xcd\x1a\xd0\xcd%H@'
p39
tp40
Rp41
ssS'loopsUnfinished'
p42
(lp43
sS'saveWideText'
p44
I00
sS'thisEntry'
p45
(dp46
sS'version'
p47
S''
p48
sS'_paramNamesSoFar'
p49
(lp50
S'block'
p51
aS'sep_dur'
p52
aS'Tx'
p53
aS'trial'
p54
aS'stimulus'
p55
aS'cond'
p56
asS'entries'
p57
(lp58
(dp59
S'block.thisTrialN'
p60
I0
sS'stim.thisTrialN'
p61
I0
sS'block.thisRepN'
p62
I0
sg53
Vt1
p63
sS'stim.thisIndex'
p64
g32
(g33
(S'i4'
p65
I0
I1
tp66
Rp67
(I3
S'<'
p68
NNNI-1
I-1
I0
tp69
bS'\x00\x00\x00\x00'
p70
tp71
Rp72
sg31
g41
sS'block.thisN'
p73
I0
sS'stim.thisN'
p74
I0
sg52
Vshort
p75
sg56
Vtarget
p76
sg21
g22
sg23
I2
sS'trials.thisIndex'
p77
g32
(g67
S'\x00\x00\x00\x00'
p78
tp79
Rp80
sS'stim.thisRepN'
p81
I0
sg25
g30
sg55
V3
p82
sS'trials.thisRepN'
p83
I0
sS'trials.thisN'
p84
I0
sg54
g32
(g33
(S'i8'
p85
I0
I1
tp86
Rp87
(I3
S'<'
p88
NNNI-1
I-1
I0
tp89
bS'\x01\x00\x00\x00\x00\x00\x00\x00'
p90
tp91
Rp92
sg24
g11
sS'trials.thisTrialN'
p93
I0
sS'block.thisIndex'
p94
g32
(g67
S'\x00\x00\x00\x00'
p95
tp96
Rp97
sg51
g32
(g87
S'\x01\x00\x00\x00\x00\x00\x00\x00'
p98
tp99
Rp100
sa(dp101
S'block.thisTrialN'
p102
I0
sS'stim.thisTrialN'
p103
I1
sS'block.thisRepN'
p104
I0
sg53
g63
sS'stim.thisIndex'
p105
g32
(g67
S'\x01\x00\x00\x00'
p106
tp107
Rp108
sg31
g41
sS'block.thisN'
p109
I0
sS'stim.thisN'
p110
I1
sg52
g75
sg56
Vdistractor
p111
sg21
g22
sg23
I2
sS'trials.thisIndex'
p112
g80
sS'stim.thisRepN'
p113
I0
sg25
g30
sg55
VP
p114
sS'trials.thisRepN'
p115
I0
sS'trials.thisN'
p116
I0
sg54
g32
(g87
S'\x02\x00\x00\x00\x00\x00\x00\x00'
p117
tp118
Rp119
sg24
g11
sS'trials.thisTrialN'
p120
I0
sS'block.thisIndex'
p121
g97
sg51
g32
(g87
S'\x01\x00\x00\x00\x00\x00\x00\x00'
p122
tp123
Rp124
sa(dp125
S'block.thisTrialN'
p126
I0
sS'stim.thisTrialN'
p127
I2
sS'block.thisRepN'
p128
I0
sg53
g63
sS'stim.thisIndex'
p129
g32
(g67
S'\x02\x00\x00\x00'
p130
tp131
Rp132
sg31
g41
sS'block.thisN'
p133
I0
sS'stim.thisN'
p134
I2
sg52
g75
sg56
g111
sg21
g22
sg23
I2
sS'trials.thisIndex'
p135
g80
sS'stim.thisRepN'
p136
I0
sg25
g30
sg55
VR
p137
sS'trials.thisRepN'
p138
I0
sS'trials.thisN'
p139
I0
sg54
g32
(g87
S'\x03\x00\x00\x00\x00\x00\x00\x00'
p140
tp141
Rp142
sg24
g11
sS'trials.thisTrialN'
p143
I0
sS'block.thisIndex'
p144
g97
sg51
g32
(g87
S'\x01\x00\x00\x00\x00\x00\x00\x00'
p145
tp146
Rp147
sa(dp148
S'block.thisTrialN'
p149
I0
sS'stim.thisTrialN'
p150
I3
sS'block.thisRepN'
p151
I0
sg53
g63
sS'stim.thisIndex'
p152
g32
(g67
S'\x03\x00\x00\x00'
p153
tp154
Rp155
sg31
g41
sS'block.thisN'
p156
I0
sS'stim.thisN'
p157
I3
sg52
g75
sg56
g111
sg21
g22
sg23
I2
sS'trials.thisIndex'
p158
g80
sS'stim.thisRepN'
p159
I0
sg25
g30
sg55
VK
p160
sS'trials.thisRepN'
p161
I0
sS'trials.thisN'
p162
I0
sg54
g32
(g87
S'\x04\x00\x00\x00\x00\x00\x00\x00'
p163
tp164
Rp165
sg24
g11
sS'trials.thisTrialN'
p166
I0
sS'block.thisIndex'
p167
g97
sg51
g32
(g87
S'\x01\x00\x00\x00\x00\x00\x00\x00'
p168
tp169
Rp170
sa(dp171
S'block.thisTrialN'
p172
I0
sS'stim.thisTrialN'
p173
I4
sS'block.thisRepN'
p174
I0
sg53
g63
sS'stim.thisIndex'
p175
g32
(g67
S'\x04\x00\x00\x00'
p176
tp177
Rp178
sg31
g41
sS'block.thisN'
p179
I0
sS'stim.thisN'
p180
I4
sg52
g75
sg56
g111
sg21
g22
sg23
I2
sS'trials.thisIndex'
p181
g80
sS'stim.thisRepN'
p182
I0
sg25
g30
sg55
VL
p183
sS'trials.thisRepN'
p184
I0
sS'trials.thisN'
p185
I0
sg54
g32
(g87
S'\x05\x00\x00\x00\x00\x00\x00\x00'
p186
tp187
Rp188
sg24
g11
sS'trials.thisTrialN'
p189
I0
sS'block.thisIndex'
p190
g97
sg51
g32
(g87
S'\x01\x00\x00\x00\x00\x00\x00\x00'
p191
tp192
Rp193
sa(dp194
S'block.thisTrialN'
p195
I0
sS'stim.thisTrialN'
p196
I5
sS'block.thisRepN'
p197
I0
sg53
g63
sS'stim.thisIndex'
p198
g32
(g67
S'\x05\x00\x00\x00'
p199
tp200
Rp201
sg31
g41
sS'block.thisN'
p202
I0
sS'stim.thisN'
p203
I5
sg52
g75
sg56
Vmask
p204
sg21
g22
sg23
I2
sS'trials.thisIndex'
p205
g80
sS'stim.thisRepN'
p206
I0
sg25
g30
sg55
V 
p207
sS'trials.thisRepN'
p208
I0
sS'trials.thisN'
p209
I0
sg54
g32
(g87
S'\x06\x00\x00\x00\x00\x00\x00\x00'
p210
tp211
Rp212
sg24
g11
sS'trials.thisTrialN'
p213
I0
sS'block.thisIndex'
p214
g97
sg51
g32
(g87
S'\x01\x00\x00\x00\x00\x00\x00\x00'
p215
tp216
Rp217
sa(dp218
S'block.thisTrialN'
p219
I0
sS'stim.thisTrialN'
p220
I6
sS'block.thisRepN'
p221
I0
sg53
g63
sS'stim.thisIndex'
p222
g32
(g67
S'\x06\x00\x00\x00'
p223
tp224
Rp225
sg31
g41
sS'block.thisN'
p226
I0
sS'stim.thisN'
p227
I6
sg52
g75
sg56
g111
sg21
g22
sg23
I2
sS'trials.thisIndex'
p228
g80
sS'stim.thisRepN'
p229
I0
sg25
g30
sg55
VG
p230
sS'trials.thisRepN'
p231
I0
sS'trials.thisN'
p232
I0
sg54
g32
(g87
S'\x07\x00\x00\x00\x00\x00\x00\x00'
p233
tp234
Rp235
sg24
g11
sS'trials.thisTrialN'
p236
I0
sS'block.thisIndex'
p237
g97
sg51
g32
(g87
S'\x01\x00\x00\x00\x00\x00\x00\x00'
p238
tp239
Rp240
sa(dp241
S'block.thisTrialN'
p242
I0
sS'stim.thisTrialN'
p243
I7
sS'block.thisRepN'
p244
I0
sg53
g63
sS'stim.thisIndex'
p245
g32
(g67
S'\x07\x00\x00\x00'
p246
tp247
Rp248
sg31
g41
sS'block.thisN'
p249
I0
sS'stim.thisN'
p250
I7
sg52
g75
sg56
g111
sg21
g22
sg23
I2
sS'trials.thisIndex'
p251
g80
sS'stim.thisRepN'
p252
I0
sg25
g30
sg55
VD
p253
sS'trials.thisRepN'
p254
I0
sS'trials.thisN'
p255
I0
sg54
g32
(g87
S'\x08\x00\x00\x00\x00\x00\x00\x00'
p256
tp257
Rp258
sg24
g11
sS'trials.thisTrialN'
p259
I0
sS'block.thisIndex'
p260
g97
sg51
g32
(g87
S'\x01\x00\x00\x00\x00\x00\x00\x00'
p261
tp262
Rp263
sa(dp264
S'block.thisTrialN'
p265
I0
sS'stim.thisTrialN'
p266
I8
sS'block.thisRepN'
p267
I0
sg53
g63
sS'stim.thisIndex'
p268
g32
(g67
S'\x08\x00\x00\x00'
p269
tp270
Rp271
sg31
g41
sS'block.thisN'
p272
I0
sS'stim.thisN'
p273
I8
sg52
g75
sg56
g111
sg21
g22
sg23
I2
sS'trials.thisIndex'
p274
g80
sS'stim.thisRepN'
p275
I0
sg25
g30
sg55
g230
sS'trials.thisRepN'
p276
I0
sS'trials.thisN'
p277
I0
sg54
g32
(g87
S'\t\x00\x00\x00\x00\x00\x00\x00'
p278
tp279
Rp280
sg24
g11
sS'trials.thisTrialN'
p281
I0
sS'block.thisIndex'
p282
g97
sg51
g32
(g87
S'\x01\x00\x00\x00\x00\x00\x00\x00'
p283
tp284
Rp285
sa(dp286
S'block.thisTrialN'
p287
I0
sS'stim.thisTrialN'
p288
I9
sS'block.thisRepN'
p289
I0
sg53
g63
sS'stim.thisIndex'
p290
g32
(g67
S'\t\x00\x00\x00'
p291
tp292
Rp293
sg31
g41
sS'block.thisN'
p294
I0
sS'stim.thisN'
p295
I9
sg52
g75
sg56
g111
sg21
g22
sg23
I2
sS'trials.thisIndex'
p296
g80
sS'stim.thisRepN'
p297
I0
sg25
g30
sg55
VE
p298
sS'trials.thisRepN'
p299
I0
sS'trials.thisN'
p300
I0
sg54
g32
(g87
S'\n\x00\x00\x00\x00\x00\x00\x00'
p301
tp302
Rp303
sg24
g11
sS'trials.thisTrialN'
p304
I0
sS'block.thisIndex'
p305
g97
sg51
g32
(g87
S'\x01\x00\x00\x00\x00\x00\x00\x00'
p306
tp307
Rp308
sa(dp309
S'block.thisTrialN'
p310
I0
sS'stim.thisTrialN'
p311
I10
sS'block.thisRepN'
p312
I0
sg53
g63
sS'stim.thisIndex'
p313
g32
(g67
S'\n\x00\x00\x00'
p314
tp315
Rp316
sg31
g41
sS'block.thisN'
p317
I0
sS'stim.thisN'
p318
I10
sg52
g75
sg56
g111
sg21
g22
sg23
I2
sS'trials.thisIndex'
p319
g80
sS'stim.thisRepN'
p320
I0
sg25
g30
sg55
g298
sS'trials.thisRepN'
p321
I0
sS'trials.thisN'
p322
I0
sg54
g32
(g87
S'\x0b\x00\x00\x00\x00\x00\x00\x00'
p323
tp324
Rp325
sg24
g11
sS'trials.thisTrialN'
p326
I0
sS'block.thisIndex'
p327
g97
sg51
g32
(g87
S'\x01\x00\x00\x00\x00\x00\x00\x00'
p328
tp329
Rp330
sa(dp331
S'block.thisTrialN'
p332
I0
sS'stim.thisTrialN'
p333
I11
sS'block.thisRepN'
p334
I0
sg53
g63
sS'stim.thisIndex'
p335
g32
(g67
S'\x0b\x00\x00\x00'
p336
tp337
Rp338
sg31
g41
sS'block.thisN'
p339
I0
sS'stim.thisN'
p340
I11
sg52
g75
sg56
g111
sg21
g22
sg23
I2
sS'trials.thisIndex'
p341
g80
sS'stim.thisRepN'
p342
I0
sg25
g30
sg55
VU
p343
sS'trials.thisRepN'
p344
I0
sS'trials.thisN'
p345
I0
sg54
g32
(g87
S'\x0c\x00\x00\x00\x00\x00\x00\x00'
p346
tp347
Rp348
sg24
g11
sS'trials.thisTrialN'
p349
I0
sS'block.thisIndex'
p350
g97
sg51
g32
(g87
S'\x01\x00\x00\x00\x00\x00\x00\x00'
p351
tp352
Rp353
sa(dp354
S'block.thisTrialN'
p355
I0
sS'stim.thisTrialN'
p356
I12
sS'block.thisRepN'
p357
I0
sg53
g63
sS'stim.thisIndex'
p358
g32
(g67
S'\x0c\x00\x00\x00'
p359
tp360
Rp361
sg31
g41
sS'block.thisN'
p362
I0
sS'stim.thisN'
p363
I12
sg52
g75
sg56
g111
sg21
g22
sg23
I2
sS'trials.thisIndex'
p364
g80
sS'stim.thisRepN'
p365
I0
sg25
g30
sg55
VH
p366
sS'trials.thisRepN'
p367
I0
sS'trials.thisN'
p368
I0
sg54
g32
(g87
S'\r\x00\x00\x00\x00\x00\x00\x00'
p369
tp370
Rp371
sg24
g11
sS'trials.thisTrialN'
p372
I0
sS'block.thisIndex'
p373
g97
sg51
g32
(g87
S'\x01\x00\x00\x00\x00\x00\x00\x00'
p374
tp375
Rp376
sa(dp377
S'block.thisTrialN'
p378
I0
sS'stim.thisTrialN'
p379
I13
sS'block.thisRepN'
p380
I0
sg53
g63
sS'stim.thisIndex'
p381
g32
(g67
S'\r\x00\x00\x00'
p382
tp383
Rp384
sg31
g41
sS'block.thisN'
p385
I0
sS'stim.thisN'
p386
I13
sg52
g75
sg56
g111
sg21
g22
sg23
I2
sS'trials.thisIndex'
p387
g80
sS'stim.thisRepN'
p388
I0
sg25
g30
sg55
VB
p389
sS'trials.thisRepN'
p390
I0
sS'trials.thisN'
p391
I0
sg54
g32
(g87
S'\x0e\x00\x00\x00\x00\x00\x00\x00'
p392
tp393
Rp394
sg24
g11
sS'trials.thisTrialN'
p395
I0
sS'block.thisIndex'
p396
g97
sg51
g32
(g87
S'\x01\x00\x00\x00\x00\x00\x00\x00'
p397
tp398
Rp399
sa(dp400
S'block.thisTrialN'
p401
I0
sS'stim.thisTrialN'
p402
I14
sS'block.thisRepN'
p403
I0
sg53
g63
sS'stim.thisIndex'
p404
g32
(g67
S'\x0e\x00\x00\x00'
p405
tp406
Rp407
sg31
g41
sS'block.thisN'
p408
I0
sS'stim.thisN'
p409
I14
sg52
g75
sg56
g111
sg21
g22
sg23
I2
sS'trials.thisIndex'
p410
g80
sS'stim.thisRepN'
p411
I0
sg25
g30
sg55
VX
p412
sS'trials.thisRepN'
p413
I0
sS'trials.thisN'
p414
I0
sg54
g32
(g87
S'\x0f\x00\x00\x00\x00\x00\x00\x00'
p415
tp416
Rp417
sg24
g11
sS'trials.thisTrialN'
p418
I0
sS'block.thisIndex'
p419
g97
sg51
g32
(g87
S'\x01\x00\x00\x00\x00\x00\x00\x00'
p420
tp421
Rp422
sa(dp423
S'block.thisTrialN'
p424
I0
sS'stim.thisTrialN'
p425
I15
sS'block.thisRepN'
p426
I0
sg53
g63
sS'stim.thisIndex'
p427
g32
(g67
S'\x0f\x00\x00\x00'
p428
tp429
Rp430
sg31
g41
sS'block.thisN'
p431
I0
sS'stim.thisN'
p432
I15
sg52
g75
sg56
g111
sg21
g22
sg23
I2
sS'trials.thisIndex'
p433
g80
sS'stim.thisRepN'
p434
I0
sg25
g30
sg55
VZ
p435
sS'trials.thisRepN'
p436
I0
sS'trials.thisN'
p437
I0
sg54
g32
(g87
S'\x10\x00\x00\x00\x00\x00\x00\x00'
p438
tp439
Rp440
sg24
g11
sS'trials.thisTrialN'
p441
I0
sS'block.thisIndex'
p442
g97
sg51
g32
(g87
S'\x01\x00\x00\x00\x00\x00\x00\x00'
p443
tp444
Rp445
sa(dp446
S'block.thisTrialN'
p447
I0
sS'block.thisRepN'
p448
I0
sg16
S'6'
p449
sS'trials.thisRepN'
p450
I0
sg15
F1.1201645000001008
sg25
g30
sS'block.thisN'
p451
I0
sg31
g41
sS'trials.thisN'
p452
I0
sg14
g449
sg24
g11
sS'trials.thisTrialN'
p453
I0
sS'trials.thisIndex'
p454
g80
sg21
g22
sg23
I2
sS'block.thisIndex'
p455
g97
sg17
F0.2850951999989775
sa(dp456
S'block.thisTrialN'
p457
I0
sS'stim.thisTrialN'
p458
I0
sS'block.thisRepN'
p459
I0
sS'Tx'
p460
Vt1
p461
sS'stim.thisIndex'
p462
g32
(g67
S'\x00\x00\x00\x00'
p463
tp464
Rp465
sg31
g41
sS'block.thisN'
p466
I0
sS'stim.thisN'
p467
I0
sS'sep_dur'
p468
Vshort
p469
sS'cond'
p470
Vdistractor
p471
sg21
g22
sg23
I2
sS'trials.thisIndex'
p472
g32
(g67
S'\x00\x00\x00\x00'
p473
tp474
Rp475
sS'stim.thisRepN'
p476
I0
sg25
g30
sS'stimulus'
p477
VN
p478
sS'trials.thisRepN'
p479
I1
sS'trials.thisN'
p480
I1
sS'trial'
p481
g32
(g87
S'\x01\x00\x00\x00\x00\x00\x00\x00'
p482
tp483
Rp484
sg24
g11
sS'trials.thisTrialN'
p485
I0
sS'block.thisIndex'
p486
g97
sS'block'
p487
g32
(g87
S'\x02\x00\x00\x00\x00\x00\x00\x00'
p488
tp489
Rp490
sa(dp491
S'block.thisTrialN'
p492
I0
sS'stim.thisTrialN'
p493
I1
sS'block.thisRepN'
p494
I0
sg460
g461
sS'stim.thisIndex'
p495
g32
(g67
S'\x01\x00\x00\x00'
p496
tp497
Rp498
sg31
g41
sS'block.thisN'
p499
I0
sS'stim.thisN'
p500
I1
sg468
g469
sg470
g471
sg21
g22
sg23
I2
sS'trials.thisIndex'
p501
g475
sS'stim.thisRepN'
p502
I0
sg25
g30
sg477
g230
sS'trials.thisRepN'
p503
I1
sS'trials.thisN'
p504
I1
sg481
g32
(g87
S'\x02\x00\x00\x00\x00\x00\x00\x00'
p505
tp506
Rp507
sg24
g11
sS'trials.thisTrialN'
p508
I0
sS'block.thisIndex'
p509
g97
sg487
g32
(g87
S'\x02\x00\x00\x00\x00\x00\x00\x00'
p510
tp511
Rp512
sa(dp513
S'block.thisTrialN'
p514
I0
sS'stim.thisTrialN'
p515
I2
sS'block.thisRepN'
p516
I0
sg460
g461
sS'stim.thisIndex'
p517
g32
(g67
S'\x02\x00\x00\x00'
p518
tp519
Rp520
sg31
g41
sS'block.thisN'
p521
I0
sS'stim.thisN'
p522
I2
sg468
g469
sg470
g471
sg21
g22
sg23
I2
sS'trials.thisIndex'
p523
g475
sS'stim.thisRepN'
p524
I0
sg25
g30
sg477
VV
p525
sS'trials.thisRepN'
p526
I1
sS'trials.thisN'
p527
I1
sg481
g32
(g87
S'\x03\x00\x00\x00\x00\x00\x00\x00'
p528
tp529
Rp530
sg24
g11
sS'trials.thisTrialN'
p531
I0
sS'block.thisIndex'
p532
g97
sg487
g32
(g87
S'\x02\x00\x00\x00\x00\x00\x00\x00'
p533
tp534
Rp535
sa(dp536
S'block.thisTrialN'
p537
I0
sS'stim.thisTrialN'
p538
I3
sS'block.thisRepN'
p539
I0
sg460
g461
sS'stim.thisIndex'
p540
g32
(g67
S'\x03\x00\x00\x00'
p541
tp542
Rp543
sg31
g41
sS'block.thisN'
p544
I0
sS'stim.thisN'
p545
I3
sg468
g469
sg470
g471
sg21
g22
sg23
I2
sS'trials.thisIndex'
p546
g475
sS'stim.thisRepN'
p547
I0
sg25
g30
sg477
VT
p548
sS'trials.thisRepN'
p549
I1
sS'trials.thisN'
p550
I1
sg481
g32
(g87
S'\x04\x00\x00\x00\x00\x00\x00\x00'
p551
tp552
Rp553
sg24
g11
sS'trials.thisTrialN'
p554
I0
sS'block.thisIndex'
p555
g97
sg487
g32
(g87
S'\x02\x00\x00\x00\x00\x00\x00\x00'
p556
tp557
Rp558
sa(dp559
S'block.thisTrialN'
p560
I0
sS'stim.thisTrialN'
p561
I4
sS'block.thisRepN'
p562
I0
sg460
g461
sS'stim.thisIndex'
p563
g32
(g67
S'\x04\x00\x00\x00'
p564
tp565
Rp566
sg31
g41
sS'block.thisN'
p567
I0
sS'stim.thisN'
p568
I4
sg468
g469
sg470
g471
sg21
g22
sg23
I2
sS'trials.thisIndex'
p569
g475
sS'stim.thisRepN'
p570
I0
sg25
g30
sg477
g298
sS'trials.thisRepN'
p571
I1
sS'trials.thisN'
p572
I1
sg481
g32
(g87
S'\x05\x00\x00\x00\x00\x00\x00\x00'
p573
tp574
Rp575
sg24
g11
sS'trials.thisTrialN'
p576
I0
sS'block.thisIndex'
p577
g97
sg487
g32
(g87
S'\x02\x00\x00\x00\x00\x00\x00\x00'
p578
tp579
Rp580
sa(dp581
S'block.thisTrialN'
p582
I0
sS'stim.thisTrialN'
p583
I5
sS'block.thisRepN'
p584
I0
sg460
g461
sS'stim.thisIndex'
p585
g32
(g67
S'\x05\x00\x00\x00'
p586
tp587
Rp588
sg31
g41
sS'block.thisN'
p589
I0
sS'stim.thisN'
p590
I5
sg468
g469
sg470
Vtarget
p591
sg21
g22
sg23
I2
sS'trials.thisIndex'
p592
g475
sS'stim.thisRepN'
p593
I0
sg25
g30
sg477
g82
sS'trials.thisRepN'
p594
I1
sS'trials.thisN'
p595
I1
sg481
g32
(g87
S'\x06\x00\x00\x00\x00\x00\x00\x00'
p596
tp597
Rp598
sg24
g11
sS'trials.thisTrialN'
p599
I0
sS'block.thisIndex'
p600
g97
sg487
g32
(g87
S'\x02\x00\x00\x00\x00\x00\x00\x00'
p601
tp602
Rp603
sa(dp604
S'block.thisTrialN'
p605
I0
sS'stim.thisTrialN'
p606
I6
sS'block.thisRepN'
p607
I0
sg460
g461
sS'stim.thisIndex'
p608
g32
(g67
S'\x06\x00\x00\x00'
p609
tp610
Rp611
sg31
g41
sS'block.thisN'
p612
I0
sS'stim.thisN'
p613
I6
sg468
g469
sg470
g471
sg21
g22
sg23
I2
sS'trials.thisIndex'
p614
g475
sS'stim.thisRepN'
p615
I0
sg25
g30
sg477
g435
sS'trials.thisRepN'
p616
I1
sS'trials.thisN'
p617
I1
sg481
g32
(g87
S'\x07\x00\x00\x00\x00\x00\x00\x00'
p618
tp619
Rp620
sg24
g11
sS'trials.thisTrialN'
p621
I0
sS'block.thisIndex'
p622
g97
sg487
g32
(g87
S'\x02\x00\x00\x00\x00\x00\x00\x00'
p623
tp624
Rp625
sa(dp626
S'block.thisTrialN'
p627
I0
sS'stim.thisTrialN'
p628
I7
sS'block.thisRepN'
p629
I0
sg460
g461
sS'stim.thisIndex'
p630
g32
(g67
S'\x07\x00\x00\x00'
p631
tp632
Rp633
sg31
g41
sS'block.thisN'
p634
I0
sS'stim.thisN'
p635
I7
sg468
g469
sg470
g471
sg21
g22
sg23
I2
sS'trials.thisIndex'
p636
g475
sS'stim.thisRepN'
p637
I0
sg25
g30
sg477
g298
sS'trials.thisRepN'
p638
I1
sS'trials.thisN'
p639
I1
sg481
g32
(g87
S'\x08\x00\x00\x00\x00\x00\x00\x00'
p640
tp641
Rp642
sg24
g11
sS'trials.thisTrialN'
p643
I0
sS'block.thisIndex'
p644
g97
sg487
g32
(g87
S'\x02\x00\x00\x00\x00\x00\x00\x00'
p645
tp646
Rp647
sa(dp648
S'block.thisTrialN'
p649
I0
sS'stim.thisTrialN'
p650
I8
sS'block.thisRepN'
p651
I0
sg460
g461
sS'stim.thisIndex'
p652
g32
(g67
S'\x08\x00\x00\x00'
p653
tp654
Rp655
sg31
g41
sS'block.thisN'
p656
I0
sS'stim.thisN'
p657
I8
sg468
g469
sg470
g471
sg21
g22
sg23
I2
sS'trials.thisIndex'
p658
g475
sS'stim.thisRepN'
p659
I0
sg25
g30
sg477
VM
p660
sS'trials.thisRepN'
p661
I1
sS'trials.thisN'
p662
I1
sg481
g32
(g87
S'\t\x00\x00\x00\x00\x00\x00\x00'
p663
tp664
Rp665
sg24
g11
sS'trials.thisTrialN'
p666
I0
sS'block.thisIndex'
p667
g97
sg487
g32
(g87
S'\x02\x00\x00\x00\x00\x00\x00\x00'
p668
tp669
Rp670
sa(dp671
S'block.thisTrialN'
p672
I0
sS'stim.thisTrialN'
p673
I9
sS'block.thisRepN'
p674
I0
sg460
g461
sS'stim.thisIndex'
p675
g32
(g67
S'\t\x00\x00\x00'
p676
tp677
Rp678
sg31
g41
sS'block.thisN'
p679
I0
sS'stim.thisN'
p680
I9
sg468
g469
sg470
g471
sg21
g22
sg23
I2
sS'trials.thisIndex'
p681
g475
sS'stim.thisRepN'
p682
I0
sg25
g30
sg477
VQ
p683
sS'trials.thisRepN'
p684
I1
sS'trials.thisN'
p685
I1
sg481
g32
(g87
S'\n\x00\x00\x00\x00\x00\x00\x00'
p686
tp687
Rp688
sg24
g11
sS'trials.thisTrialN'
p689
I0
sS'block.thisIndex'
p690
g97
sg487
g32
(g87
S'\x02\x00\x00\x00\x00\x00\x00\x00'
p691
tp692
Rp693
sa(dp694
S'block.thisTrialN'
p695
I0
sS'stim.thisTrialN'
p696
I10
sS'block.thisRepN'
p697
I0
sg460
g461
sS'stim.thisIndex'
p698
g32
(g67
S'\n\x00\x00\x00'
p699
tp700
Rp701
sg31
g41
sS'block.thisN'
p702
I0
sS'stim.thisN'
p703
I10
sg468
g469
sg470
Vmask
p704
sg21
g22
sg23
I2
sS'trials.thisIndex'
p705
g475
sS'stim.thisRepN'
p706
I0
sg25
g30
sg477
g207
sS'trials.thisRepN'
p707
I1
sS'trials.thisN'
p708
I1
sg481
g32
(g87
S'\x0b\x00\x00\x00\x00\x00\x00\x00'
p709
tp710
Rp711
sg24
g11
sS'trials.thisTrialN'
p712
I0
sS'block.thisIndex'
p713
g97
sg487
g32
(g87
S'\x02\x00\x00\x00\x00\x00\x00\x00'
p714
tp715
Rp716
sa(dp717
S'block.thisTrialN'
p718
I0
sS'stim.thisTrialN'
p719
I11
sS'block.thisRepN'
p720
I0
sg460
g461
sS'stim.thisIndex'
p721
g32
(g67
S'\x0b\x00\x00\x00'
p722
tp723
Rp724
sg31
g41
sS'block.thisN'
p725
I0
sS'stim.thisN'
p726
I11
sg468
g469
sg470
g471
sg21
g22
sg23
I2
sS'trials.thisIndex'
p727
g475
sS'stim.thisRepN'
p728
I0
sg25
g30
sg477
VW
p729
sS'trials.thisRepN'
p730
I1
sS'trials.thisN'
p731
I1
sg481
g32
(g87
S'\x0c\x00\x00\x00\x00\x00\x00\x00'
p732
tp733
Rp734
sg24
g11
sS'trials.thisTrialN'
p735
I0
sS'block.thisIndex'
p736
g97
sg487
g32
(g87
S'\x02\x00\x00\x00\x00\x00\x00\x00'
p737
tp738
Rp739
sa(dp740
S'block.thisTrialN'
p741
I0
sS'stim.thisTrialN'
p742
I12
sS'block.thisRepN'
p743
I0
sg460
g461
sS'stim.thisIndex'
p744
g32
(g67
S'\x0c\x00\x00\x00'
p745
tp746
Rp747
sg31
g41
sS'block.thisN'
p748
I0
sS'stim.thisN'
p749
I12
sg468
g469
sg470
g471
sg21
g22
sg23
I2
sS'trials.thisIndex'
p750
g475
sS'stim.thisRepN'
p751
I0
sg25
g30
sg477
g343
sS'trials.thisRepN'
p752
I1
sS'trials.thisN'
p753
I1
sg481
g32
(g87
S'\r\x00\x00\x00\x00\x00\x00\x00'
p754
tp755
Rp756
sg24
g11
sS'trials.thisTrialN'
p757
I0
sS'block.thisIndex'
p758
g97
sg487
g32
(g87
S'\x02\x00\x00\x00\x00\x00\x00\x00'
p759
tp760
Rp761
sa(dp762
S'block.thisTrialN'
p763
I0
sS'stim.thisTrialN'
p764
I13
sS'block.thisRepN'
p765
I0
sg460
g461
sS'stim.thisIndex'
p766
g32
(g67
S'\r\x00\x00\x00'
p767
tp768
Rp769
sg31
g41
sS'block.thisN'
p770
I0
sS'stim.thisN'
p771
I13
sg468
g469
sg470
g471
sg21
g22
sg23
I2
sS'trials.thisIndex'
p772
g475
sS'stim.thisRepN'
p773
I0
sg25
g30
sg477
VJ
p774
sS'trials.thisRepN'
p775
I1
sS'trials.thisN'
p776
I1
sg481
g32
(g87
S'\x0e\x00\x00\x00\x00\x00\x00\x00'
p777
tp778
Rp779
sg24
g11
sS'trials.thisTrialN'
p780
I0
sS'block.thisIndex'
p781
g97
sg487
g32
(g87
S'\x02\x00\x00\x00\x00\x00\x00\x00'
p782
tp783
Rp784
sa(dp785
S'block.thisTrialN'
p786
I0
sS'stim.thisTrialN'
p787
I14
sS'block.thisRepN'
p788
I0
sg460
g461
sS'stim.thisIndex'
p789
g32
(g67
S'\x0e\x00\x00\x00'
p790
tp791
Rp792
sg31
g41
sS'block.thisN'
p793
I0
sS'stim.thisN'
p794
I14
sg468
g469
sg470
g471
sg21
g22
sg23
I2
sS'trials.thisIndex'
p795
g475
sS'stim.thisRepN'
p796
I0
sg25
g30
sg477
g389
sS'trials.thisRepN'
p797
I1
sS'trials.thisN'
p798
I1
sg481
g32
(g87
S'\x0f\x00\x00\x00\x00\x00\x00\x00'
p799
tp800
Rp801
sg24
g11
sS'trials.thisTrialN'
p802
I0
sS'block.thisIndex'
p803
g97
sg487
g32
(g87
S'\x02\x00\x00\x00\x00\x00\x00\x00'
p804
tp805
Rp806
sa(dp807
S'block.thisTrialN'
p808
I0
sS'stim.thisTrialN'
p809
I15
sS'block.thisRepN'
p810
I0
sg460
g461
sS'stim.thisIndex'
p811
g32
(g67
S'\x0f\x00\x00\x00'
p812
tp813
Rp814
sg31
g41
sS'block.thisN'
p815
I0
sS'stim.thisN'
p816
I15
sg468
g469
sg470
g471
sg21
g22
sg23
I2
sS'trials.thisIndex'
p817
g475
sS'stim.thisRepN'
p818
I0
sg25
g30
sg477
g298
sS'trials.thisRepN'
p819
I1
sS'trials.thisN'
p820
I1
sg481
g32
(g87
S'\x10\x00\x00\x00\x00\x00\x00\x00'
p821
tp822
Rp823
sg24
g11
sS'trials.thisTrialN'
p824
I0
sS'block.thisIndex'
p825
g97
sg487
g32
(g87
S'\x02\x00\x00\x00\x00\x00\x00\x00'
p826
tp827
Rp828
sa(dp829
S'block.thisTrialN'
p830
I0
sS'stim.thisTrialN'
p831
I16
sS'block.thisRepN'
p832
I0
sg460
g461
sS'stim.thisIndex'
p833
g32
(g67
S'\x10\x00\x00\x00'
p834
tp835
Rp836
sg31
g41
sS'block.thisN'
p837
I0
sS'stim.thisN'
p838
I16
sg468
g469
sg470
g471
sg21
g22
sg23
I2
sS'trials.thisIndex'
p839
g475
sS'stim.thisRepN'
p840
I0
sg25
g30
sg477
g435
sS'trials.thisRepN'
p841
I1
sS'trials.thisN'
p842
I1
sg481
g32
(g87
S'\x11\x00\x00\x00\x00\x00\x00\x00'
p843
tp844
Rp845
sg24
g11
sS'trials.thisTrialN'
p846
I0
sS'block.thisIndex'
p847
g97
sg487
g32
(g87
S'\x02\x00\x00\x00\x00\x00\x00\x00'
p848
tp849
Rp850
sa(dp851
S'block.thisTrialN'
p852
I0
sS'block.thisRepN'
p853
I0
sg16
S'3'
p854
sS'trials.thisRepN'
p855
I1
sg15
F0.45692179999969085
sg25
g30
sS'block.thisN'
p856
I0
sg31
g41
sS'trials.thisN'
p857
I1
sg14
g854
sg24
g11
sS'trials.thisTrialN'
p858
I0
sS'trials.thisIndex'
p859
g475
sg21
g22
sg23
I2
sS'block.thisIndex'
p860
g97
sg17
F0.3952134000010119
sa(dp861
S'block.thisTrialN'
p862
I0
sS'stim.thisTrialN'
p863
I0
sS'block.thisRepN'
p864
I0
sS'Tx'
p865
Vt2
p866
sS'stim.thisIndex'
p867
g32
(g67
S'\x00\x00\x00\x00'
p868
tp869
Rp870
sg31
g41
sS'block.thisN'
p871
I0
sS'stim.thisN'
p872
I0
sS'sep_dur'
p873
Vlong
p874
sS'cond'
p875
Vdistractor
p876
sg21
g22
sg23
I2
sS'trials.thisIndex'
p877
g32
(g67
S'\x00\x00\x00\x00'
p878
tp879
Rp880
sS'stim.thisRepN'
p881
I0
sg25
g30
sS'stimulus'
p882
g660
sS'trials.thisRepN'
p883
I2
sS'trials.thisN'
p884
I2
sS'trial'
p885
g32
(g87
S'\x01\x00\x00\x00\x00\x00\x00\x00'
p886
tp887
Rp888
sg24
g11
sS'trials.thisTrialN'
p889
I0
sS'block.thisIndex'
p890
g97
sS'block'
p891
g32
(g87
S'\x03\x00\x00\x00\x00\x00\x00\x00'
p892
tp893
Rp894
sa(dp895
S'block.thisTrialN'
p896
I0
sS'stim.thisTrialN'
p897
I1
sS'block.thisRepN'
p898
I0
sg865
g866
sS'stim.thisIndex'
p899
g32
(g67
S'\x01\x00\x00\x00'
p900
tp901
Rp902
sg31
g41
sS'block.thisN'
p903
I0
sS'stim.thisN'
p904
I1
sg873
g874
sg875
g876
sg21
g22
sg23
I2
sS'trials.thisIndex'
p905
g880
sS'stim.thisRepN'
p906
I0
sg25
g30
sg882
g660
sS'trials.thisRepN'
p907
I2
sS'trials.thisN'
p908
I2
sg885
g32
(g87
S'\x02\x00\x00\x00\x00\x00\x00\x00'
p909
tp910
Rp911
sg24
g11
sS'trials.thisTrialN'
p912
I0
sS'block.thisIndex'
p913
g97
sg891
g32
(g87
S'\x03\x00\x00\x00\x00\x00\x00\x00'
p914
tp915
Rp916
sa(dp917
S'block.thisTrialN'
p918
I0
sS'stim.thisTrialN'
p919
I2
sS'block.thisRepN'
p920
I0
sg865
g866
sS'stim.thisIndex'
p921
g32
(g67
S'\x02\x00\x00\x00'
p922
tp923
Rp924
sg31
g41
sS'block.thisN'
p925
I0
sS'stim.thisN'
p926
I2
sg873
g874
sg875
g876
sg21
g22
sg23
I2
sS'trials.thisIndex'
p927
g880
sS'stim.thisRepN'
p928
I0
sg25
g30
sg882
VO
p929
sS'trials.thisRepN'
p930
I2
sS'trials.thisN'
p931
I2
sg885
g32
(g87
S'\x03\x00\x00\x00\x00\x00\x00\x00'
p932
tp933
Rp934
sg24
g11
sS'trials.thisTrialN'
p935
I0
sS'block.thisIndex'
p936
g97
sg891
g32
(g87
S'\x03\x00\x00\x00\x00\x00\x00\x00'
p937
tp938
Rp939
sa(dp940
S'block.thisTrialN'
p941
I0
sS'stim.thisTrialN'
p942
I3
sS'block.thisRepN'
p943
I0
sg865
g866
sS'stim.thisIndex'
p944
g32
(g67
S'\x03\x00\x00\x00'
p945
tp946
Rp947
sg31
g41
sS'block.thisN'
p948
I0
sS'stim.thisN'
p949
I3
sg873
g874
sg875
g876
sg21
g22
sg23
I2
sS'trials.thisIndex'
p950
g880
sS'stim.thisRepN'
p951
I0
sg25
g30
sg882
g660
sS'trials.thisRepN'
p952
I2
sS'trials.thisN'
p953
I2
sg885
g32
(g87
S'\x04\x00\x00\x00\x00\x00\x00\x00'
p954
tp955
Rp956
sg24
g11
sS'trials.thisTrialN'
p957
I0
sS'block.thisIndex'
p958
g97
sg891
g32
(g87
S'\x03\x00\x00\x00\x00\x00\x00\x00'
p959
tp960
Rp961
sa(dp962
S'block.thisTrialN'
p963
I0
sS'stim.thisTrialN'
p964
I4
sS'block.thisRepN'
p965
I0
sg865
g866
sS'stim.thisIndex'
p966
g32
(g67
S'\x04\x00\x00\x00'
p967
tp968
Rp969
sg31
g41
sS'block.thisN'
p970
I0
sS'stim.thisN'
p971
I4
sg873
g874
sg875
g876
sg21
g22
sg23
I2
sS'trials.thisIndex'
p972
g880
sS'stim.thisRepN'
p973
I0
sg25
g30
sg882
VF
p974
sS'trials.thisRepN'
p975
I2
sS'trials.thisN'
p976
I2
sg885
g32
(g87
S'\x05\x00\x00\x00\x00\x00\x00\x00'
p977
tp978
Rp979
sg24
g11
sS'trials.thisTrialN'
p980
I0
sS'block.thisIndex'
p981
g97
sg891
g32
(g87
S'\x03\x00\x00\x00\x00\x00\x00\x00'
p982
tp983
Rp984
sa(dp985
S'block.thisTrialN'
p986
I0
sS'stim.thisTrialN'
p987
I5
sS'block.thisRepN'
p988
I0
sg865
g866
sS'stim.thisIndex'
p989
g32
(g67
S'\x05\x00\x00\x00'
p990
tp991
Rp992
sg31
g41
sS'block.thisN'
p993
I0
sS'stim.thisN'
p994
I5
sg873
g874
sg875
Vtarget
p995
sg21
g22
sg23
I2
sS'trials.thisIndex'
p996
g880
sS'stim.thisRepN'
p997
I0
sg25
g30
sg882
V7
p998
sS'trials.thisRepN'
p999
I2
sS'trials.thisN'
p1000
I2
sg885
g32
(g87
S'\x06\x00\x00\x00\x00\x00\x00\x00'
p1001
tp1002
Rp1003
sg24
g11
sS'trials.thisTrialN'
p1004
I0
sS'block.thisIndex'
p1005
g97
sg891
g32
(g87
S'\x03\x00\x00\x00\x00\x00\x00\x00'
p1006
tp1007
Rp1008
sa(dp1009
S'block.thisTrialN'
p1010
I0
sS'stim.thisTrialN'
p1011
I6
sS'block.thisRepN'
p1012
I0
sg865
g866
sS'stim.thisIndex'
p1013
g32
(g67
S'\x06\x00\x00\x00'
p1014
tp1015
Rp1016
sg31
g41
sS'block.thisN'
p1017
I0
sS'stim.thisN'
p1018
I6
sg873
g874
sg875
g876
sg21
g22
sg23
I2
sS'trials.thisIndex'
p1019
g880
sS'stim.thisRepN'
p1020
I0
sg25
g30
sg882
VS
p1021
sS'trials.thisRepN'
p1022
I2
sS'trials.thisN'
p1023
I2
sg885
g32
(g87
S'\x07\x00\x00\x00\x00\x00\x00\x00'
p1024
tp1025
Rp1026
sg24
g11
sS'trials.thisTrialN'
p1027
I0
sS'block.thisIndex'
p1028
g97
sg891
g32
(g87
S'\x03\x00\x00\x00\x00\x00\x00\x00'
p1029
tp1030
Rp1031
sa(dp1032
S'block.thisTrialN'
p1033
I0
sS'stim.thisTrialN'
p1034
I7
sS'block.thisRepN'
p1035
I0
sg865
g866
sS'stim.thisIndex'
p1036
g32
(g67
S'\x07\x00\x00\x00'
p1037
tp1038
Rp1039
sg31
g41
sS'block.thisN'
p1040
I0
sS'stim.thisN'
p1041
I7
sg873
g874
sg875
g876
sg21
g22
sg23
I2
sS'trials.thisIndex'
p1042
g880
sS'stim.thisRepN'
p1043
I0
sg25
g30
sg882
g160
sS'trials.thisRepN'
p1044
I2
sS'trials.thisN'
p1045
I2
sg885
g32
(g87
S'\x08\x00\x00\x00\x00\x00\x00\x00'
p1046
tp1047
Rp1048
sg24
g11
sS'trials.thisTrialN'
p1049
I0
sS'block.thisIndex'
p1050
g97
sg891
g32
(g87
S'\x03\x00\x00\x00\x00\x00\x00\x00'
p1051
tp1052
Rp1053
sa(dp1054
S'block.thisTrialN'
p1055
I0
sS'stim.thisTrialN'
p1056
I8
sS'block.thisRepN'
p1057
I0
sg865
g866
sS'stim.thisIndex'
p1058
g32
(g67
S'\x08\x00\x00\x00'
p1059
tp1060
Rp1061
sg31
g41
sS'block.thisN'
p1062
I0
sS'stim.thisN'
p1063
I8
sg873
g874
sg875
g876
sg21
g22
sg23
I2
sS'trials.thisIndex'
p1064
g880
sS'stim.thisRepN'
p1065
I0
sg25
g30
sg882
g230
sS'trials.thisRepN'
p1066
I2
sS'trials.thisN'
p1067
I2
sg885
g32
(g87
S'\t\x00\x00\x00\x00\x00\x00\x00'
p1068
tp1069
Rp1070
sg24
g11
sS'trials.thisTrialN'
p1071
I0
sS'block.thisIndex'
p1072
g97
sg891
g32
(g87
S'\x03\x00\x00\x00\x00\x00\x00\x00'
p1073
tp1074
Rp1075
sa(dp1076
S'block.thisTrialN'
p1077
I0
sS'stim.thisTrialN'
p1078
I9
sS'block.thisRepN'
p1079
I0
sg865
g866
sS'stim.thisIndex'
p1080
g32
(g67
S'\t\x00\x00\x00'
p1081
tp1082
Rp1083
sg31
g41
sS'block.thisN'
p1084
I0
sS'stim.thisN'
p1085
I9
sg873
g874
sg875
g876
sg21
g22
sg23
I2
sS'trials.thisIndex'
p1086
g880
sS'stim.thisRepN'
p1087
I0
sg25
g30
sg882
g114
sS'trials.thisRepN'
p1088
I2
sS'trials.thisN'
p1089
I2
sg885
g32
(g87
S'\n\x00\x00\x00\x00\x00\x00\x00'
p1090
tp1091
Rp1092
sg24
g11
sS'trials.thisTrialN'
p1093
I0
sS'block.thisIndex'
p1094
g97
sg891
g32
(g87
S'\x03\x00\x00\x00\x00\x00\x00\x00'
p1095
tp1096
Rp1097
sa(dp1098
S'block.thisTrialN'
p1099
I0
sS'stim.thisTrialN'
p1100
I10
sS'block.thisRepN'
p1101
I0
sg865
g866
sS'stim.thisIndex'
p1102
g32
(g67
S'\n\x00\x00\x00'
p1103
tp1104
Rp1105
sg31
g41
sS'block.thisN'
p1106
I0
sS'stim.thisN'
p1107
I10
sg873
g874
sg875
g876
sg21
g22
sg23
I2
sS'trials.thisIndex'
p1108
g880
sS'stim.thisRepN'
p1109
I0
sg25
g30
sg882
g160
sS'trials.thisRepN'
p1110
I2
sS'trials.thisN'
p1111
I2
sg885
g32
(g87
S'\x0b\x00\x00\x00\x00\x00\x00\x00'
p1112
tp1113
Rp1114
sg24
g11
sS'trials.thisTrialN'
p1115
I0
sS'block.thisIndex'
p1116
g97
sg891
g32
(g87
S'\x03\x00\x00\x00\x00\x00\x00\x00'
p1117
tp1118
Rp1119
sa(dp1120
S'block.thisTrialN'
p1121
I0
sS'stim.thisTrialN'
p1122
I11
sS'block.thisRepN'
p1123
I0
sg865
g866
sS'stim.thisIndex'
p1124
g32
(g67
S'\x0b\x00\x00\x00'
p1125
tp1126
Rp1127
sg31
g41
sS'block.thisN'
p1128
I0
sS'stim.thisN'
p1129
I11
sg873
g874
sg875
g876
sg21
g22
sg23
I2
sS'trials.thisIndex'
p1130
g880
sS'stim.thisRepN'
p1131
I0
sg25
g30
sg882
g525
sS'trials.thisRepN'
p1132
I2
sS'trials.thisN'
p1133
I2
sg885
g32
(g87
S'\x0c\x00\x00\x00\x00\x00\x00\x00'
p1134
tp1135
Rp1136
sg24
g11
sS'trials.thisTrialN'
p1137
I0
sS'block.thisIndex'
p1138
g97
sg891
g32
(g87
S'\x03\x00\x00\x00\x00\x00\x00\x00'
p1139
tp1140
Rp1141
sa(dp1142
S'block.thisTrialN'
p1143
I0
sS'stim.thisTrialN'
p1144
I12
sS'block.thisRepN'
p1145
I0
sg865
g866
sS'stim.thisIndex'
p1146
g32
(g67
S'\x0c\x00\x00\x00'
p1147
tp1148
Rp1149
sg31
g41
sS'block.thisN'
p1150
I0
sS'stim.thisN'
p1151
I12
sg873
g874
sg875
g876
sg21
g22
sg23
I2
sS'trials.thisIndex'
p1152
g880
sS'stim.thisRepN'
p1153
I0
sg25
g30
sg882
g974
sS'trials.thisRepN'
p1154
I2
sS'trials.thisN'
p1155
I2
sg885
g32
(g87
S'\r\x00\x00\x00\x00\x00\x00\x00'
p1156
tp1157
Rp1158
sg24
g11
sS'trials.thisTrialN'
p1159
I0
sS'block.thisIndex'
p1160
g97
sg891
g32
(g87
S'\x03\x00\x00\x00\x00\x00\x00\x00'
p1161
tp1162
Rp1163
sa(dp1164
S'block.thisTrialN'
p1165
I0
sS'stim.thisTrialN'
p1166
I13
sS'block.thisRepN'
p1167
I0
sg865
g866
sS'stim.thisIndex'
p1168
g32
(g67
S'\r\x00\x00\x00'
p1169
tp1170
Rp1171
sg31
g41
sS'block.thisN'
p1172
I0
sS'stim.thisN'
p1173
I13
sg873
g874
sg875
g876
sg21
g22
sg23
I2
sS'trials.thisIndex'
p1174
g880
sS'stim.thisRepN'
p1175
I0
sg25
g30
sg882
g435
sS'trials.thisRepN'
p1176
I2
sS'trials.thisN'
p1177
I2
sg885
g32
(g87
S'\x0e\x00\x00\x00\x00\x00\x00\x00'
p1178
tp1179
Rp1180
sg24
g11
sS'trials.thisTrialN'
p1181
I0
sS'block.thisIndex'
p1182
g97
sg891
g32
(g87
S'\x03\x00\x00\x00\x00\x00\x00\x00'
p1183
tp1184
Rp1185
sa(dp1186
S'block.thisTrialN'
p1187
I0
sS'stim.thisTrialN'
p1188
I14
sS'block.thisRepN'
p1189
I0
sg865
g866
sS'stim.thisIndex'
p1190
g32
(g67
S'\x0e\x00\x00\x00'
p1191
tp1192
Rp1193
sg31
g41
sS'block.thisN'
p1194
I0
sS'stim.thisN'
p1195
I14
sg873
g874
sg875
g995
sg21
g22
sg23
I2
sS'trials.thisIndex'
p1196
g880
sS'stim.thisRepN'
p1197
I0
sg25
g30
sg882
V4
p1198
sS'trials.thisRepN'
p1199
I2
sS'trials.thisN'
p1200
I2
sg885
g32
(g87
S'\x0f\x00\x00\x00\x00\x00\x00\x00'
p1201
tp1202
Rp1203
sg24
g11
sS'trials.thisTrialN'
p1204
I0
sS'block.thisIndex'
p1205
g97
sg891
g32
(g87
S'\x03\x00\x00\x00\x00\x00\x00\x00'
p1206
tp1207
Rp1208
sa(dp1209
S'block.thisTrialN'
p1210
I0
sS'stim.thisTrialN'
p1211
I15
sS'block.thisRepN'
p1212
I0
sg865
g866
sS'stim.thisIndex'
p1213
g32
(g67
S'\x0f\x00\x00\x00'
p1214
tp1215
Rp1216
sg31
g41
sS'block.thisN'
p1217
I0
sS'stim.thisN'
p1218
I15
sg873
g874
sg875
g876
sg21
g22
sg23
I2
sS'trials.thisIndex'
p1219
g880
sS'stim.thisRepN'
p1220
I0
sg25
g30
sg882
g114
sS'trials.thisRepN'
p1221
I2
sS'trials.thisN'
p1222
I2
sg885
g32
(g87
S'\x10\x00\x00\x00\x00\x00\x00\x00'
p1223
tp1224
Rp1225
sg24
g11
sS'trials.thisTrialN'
p1226
I0
sS'block.thisIndex'
p1227
g97
sg891
g32
(g87
S'\x03\x00\x00\x00\x00\x00\x00\x00'
p1228
tp1229
Rp1230
sa(dp1231
S'block.thisTrialN'
p1232
I0
sS'stim.thisTrialN'
p1233
I16
sS'block.thisRepN'
p1234
I0
sg865
g866
sS'stim.thisIndex'
p1235
g32
(g67
S'\x10\x00\x00\x00'
p1236
tp1237
Rp1238
sg31
g41
sS'block.thisN'
p1239
I0
sS'stim.thisN'
p1240
I16
sg873
g874
sg875
g876
sg21
g22
sg23
I2
sS'trials.thisIndex'
p1241
g880
sS'stim.thisRepN'
p1242
I0
sg25
g30
sg882
VA
p1243
sS'trials.thisRepN'
p1244
I2
sS'trials.thisN'
p1245
I2
sg885
g32
(g87
S'\x11\x00\x00\x00\x00\x00\x00\x00'
p1246
tp1247
Rp1248
sg24
g11
sS'trials.thisTrialN'
p1249
I0
sS'block.thisIndex'
p1250
g97
sg891
g32
(g87
S'\x03\x00\x00\x00\x00\x00\x00\x00'
p1251
tp1252
Rp1253
sa(dp1254
S'block.thisTrialN'
p1255
I0
sS'stim.thisTrialN'
p1256
I17
sS'block.thisRepN'
p1257
I0
sg865
g866
sS'stim.thisIndex'
p1258
g32
(g67
S'\x11\x00\x00\x00'
p1259
tp1260
Rp1261
sg31
g41
sS'block.thisN'
p1262
I0
sS'stim.thisN'
p1263
I17
sg873
g874
sg875
g876
sg21
g22
sg23
I2
sS'trials.thisIndex'
p1264
g880
sS'stim.thisRepN'
p1265
I0
sg25
g30
sg882
g478
sS'trials.thisRepN'
p1266
I2
sS'trials.thisN'
p1267
I2
sg885
g32
(g87
S'\x12\x00\x00\x00\x00\x00\x00\x00'
p1268
tp1269
Rp1270
sg24
g11
sS'trials.thisTrialN'
p1271
I0
sS'block.thisIndex'
p1272
g97
sg891
g32
(g87
S'\x03\x00\x00\x00\x00\x00\x00\x00'
p1273
tp1274
Rp1275
sa(dp1276
S'block.thisTrialN'
p1277
I0
sS'block.thisRepN'
p1278
I0
sg16
S'5'
p1279
sS'trials.thisRepN'
p1280
I2
sg15
F0.5011276999994152
sg25
g30
sS'block.thisN'
p1281
I0
sg31
g41
sS'trials.thisN'
p1282
I2
sg14
g1279
sg24
g11
sS'trials.thisTrialN'
p1283
I0
sS'trials.thisIndex'
p1284
g880
sg21
g22
sg23
I2
sS'block.thisIndex'
p1285
g97
sg17
F0.16907889999856707
sa(dp1286
S'block.thisTrialN'
p1287
I0
sS'stim.thisTrialN'
p1288
I0
sS'block.thisRepN'
p1289
I0
sS'Tx'
p1290
Vt1
p1291
sS'stim.thisIndex'
p1292
g32
(g67
S'\x00\x00\x00\x00'
p1293
tp1294
Rp1295
sg31
g41
sS'block.thisN'
p1296
I0
sS'stim.thisN'
p1297
I0
sS'sep_dur'
p1298
Vshort
p1299
sS'cond'
p1300
Vdistractor
p1301
sg21
g22
sg23
I2
sS'trials.thisIndex'
p1302
g32
(g67
S'\x00\x00\x00\x00'
p1303
tp1304
Rp1305
sS'stim.thisRepN'
p1306
I0
sg25
g30
sS'stimulus'
p1307
g183
sS'trials.thisRepN'
p1308
I3
sS'trials.thisN'
p1309
I3
sS'trial'
p1310
g32
(g87
S'\x01\x00\x00\x00\x00\x00\x00\x00'
p1311
tp1312
Rp1313
sg24
g11
sS'trials.thisTrialN'
p1314
I0
sS'block.thisIndex'
p1315
g97
sS'block'
p1316
g32
(g87
S'\x04\x00\x00\x00\x00\x00\x00\x00'
p1317
tp1318
Rp1319
sa(dp1320
S'block.thisTrialN'
p1321
I0
sS'stim.thisTrialN'
p1322
I1
sS'block.thisRepN'
p1323
I0
sg1290
g1291
sS'stim.thisIndex'
p1324
g32
(g67
S'\x01\x00\x00\x00'
p1325
tp1326
Rp1327
sg31
g41
sS'block.thisN'
p1328
I0
sS'stim.thisN'
p1329
I1
sg1298
g1299
sg1300
g1301
sg21
g22
sg23
I2
sS'trials.thisIndex'
p1330
g1305
sS'stim.thisRepN'
p1331
I0
sg25
g30
sg1307
g929
sS'trials.thisRepN'
p1332
I3
sS'trials.thisN'
p1333
I3
sg1310
g32
(g87
S'\x02\x00\x00\x00\x00\x00\x00\x00'
p1334
tp1335
Rp1336
sg24
g11
sS'trials.thisTrialN'
p1337
I0
sS'block.thisIndex'
p1338
g97
sg1316
g32
(g87
S'\x04\x00\x00\x00\x00\x00\x00\x00'
p1339
tp1340
Rp1341
sa(dp1342
S'block.thisTrialN'
p1343
I0
sS'stim.thisTrialN'
p1344
I2
sS'block.thisRepN'
p1345
I0
sg1290
g1291
sS'stim.thisIndex'
p1346
g32
(g67
S'\x02\x00\x00\x00'
p1347
tp1348
Rp1349
sg31
g41
sS'block.thisN'
p1350
I0
sS'stim.thisN'
p1351
I2
sg1298
g1299
sg1300
g1301
sg21
g22
sg23
I2
sS'trials.thisIndex'
p1352
g1305
sS'stim.thisRepN'
p1353
I0
sg25
g30
sg1307
g435
sS'trials.thisRepN'
p1354
I3
sS'trials.thisN'
p1355
I3
sg1310
g32
(g87
S'\x03\x00\x00\x00\x00\x00\x00\x00'
p1356
tp1357
Rp1358
sg24
g11
sS'trials.thisTrialN'
p1359
I0
sS'block.thisIndex'
p1360
g97
sg1316
g32
(g87
S'\x04\x00\x00\x00\x00\x00\x00\x00'
p1361
tp1362
Rp1363
sa(dp1364
S'block.thisTrialN'
p1365
I0
sS'stim.thisTrialN'
p1366
I3
sS'block.thisRepN'
p1367
I0
sg1290
g1291
sS'stim.thisIndex'
p1368
g32
(g67
S'\x03\x00\x00\x00'
p1369
tp1370
Rp1371
sg31
g41
sS'block.thisN'
p1372
I0
sS'stim.thisN'
p1373
I3
sg1298
g1299
sg1300
g1301
sg21
g22
sg23
I2
sS'trials.thisIndex'
p1374
g1305
sS'stim.thisRepN'
p1375
I0
sg25
g30
sg1307
g137
sS'trials.thisRepN'
p1376
I3
sS'trials.thisN'
p1377
I3
sg1310
g32
(g87
S'\x04\x00\x00\x00\x00\x00\x00\x00'
p1378
tp1379
Rp1380
sg24
g11
sS'trials.thisTrialN'
p1381
I0
sS'block.thisIndex'
p1382
g97
sg1316
g32
(g87
S'\x04\x00\x00\x00\x00\x00\x00\x00'
p1383
tp1384
Rp1385
sa(dp1386
S'block.thisTrialN'
p1387
I0
sS'stim.thisTrialN'
p1388
I4
sS'block.thisRepN'
p1389
I0
sg1290
g1291
sS'stim.thisIndex'
p1390
g32
(g67
S'\x04\x00\x00\x00'
p1391
tp1392
Rp1393
sg31
g41
sS'block.thisN'
p1394
I0
sS'stim.thisN'
p1395
I4
sg1298
g1299
sg1300
g1301
sg21
g22
sg23
I2
sS'trials.thisIndex'
p1396
g1305
sS'stim.thisRepN'
p1397
I0
sg25
g30
sg1307
VI
p1398
sS'trials.thisRepN'
p1399
I3
sS'trials.thisN'
p1400
I3
sg1310
g32
(g87
S'\x05\x00\x00\x00\x00\x00\x00\x00'
p1401
tp1402
Rp1403
sg24
g11
sS'trials.thisTrialN'
p1404
I0
sS'block.thisIndex'
p1405
g97
sg1316
g32
(g87
S'\x04\x00\x00\x00\x00\x00\x00\x00'
p1406
tp1407
Rp1408
sa(dp1409
S'block.thisTrialN'
p1410
I0
sS'stim.thisTrialN'
p1411
I5
sS'block.thisRepN'
p1412
I0
sg1290
g1291
sS'stim.thisIndex'
p1413
g32
(g67
S'\x05\x00\x00\x00'
p1414
tp1415
Rp1416
sg31
g41
sS'block.thisN'
p1417
I0
sS'stim.thisN'
p1418
I5
sg1298
g1299
sg1300
Vtarget
p1419
sg21
g22
sg23
I2
sS'trials.thisIndex'
p1420
g1305
sS'stim.thisRepN'
p1421
I0
sg25
g30
sg1307
g82
sS'trials.thisRepN'
p1422
I3
sS'trials.thisN'
p1423
I3
sg1310
g32
(g87
S'\x06\x00\x00\x00\x00\x00\x00\x00'
p1424
tp1425
Rp1426
sg24
g11
sS'trials.thisTrialN'
p1427
I0
sS'block.thisIndex'
p1428
g97
sg1316
g32
(g87
S'\x04\x00\x00\x00\x00\x00\x00\x00'
p1429
tp1430
Rp1431
sa(dp1432
S'block.thisTrialN'
p1433
I0
sS'stim.thisTrialN'
p1434
I6
sS'block.thisRepN'
p1435
I0
sg1290
g1291
sS'stim.thisIndex'
p1436
g32
(g67
S'\x06\x00\x00\x00'
p1437
tp1438
Rp1439
sg31
g41
sS'block.thisN'
p1440
I0
sS'stim.thisN'
p1441
I6
sg1298
g1299
sg1300
g1301
sg21
g22
sg23
I2
sS'trials.thisIndex'
p1442
g1305
sS'stim.thisRepN'
p1443
I0
sg25
g30
sg1307
g683
sS'trials.thisRepN'
p1444
I3
sS'trials.thisN'
p1445
I3
sg1310
g32
(g87
S'\x07\x00\x00\x00\x00\x00\x00\x00'
p1446
tp1447
Rp1448
sg24
g11
sS'trials.thisTrialN'
p1449
I0
sS'block.thisIndex'
p1450
g97
sg1316
g32
(g87
S'\x04\x00\x00\x00\x00\x00\x00\x00'
p1451
tp1452
Rp1453
sa(dp1454
S'block.thisTrialN'
p1455
I0
sS'stim.thisTrialN'
p1456
I7
sS'block.thisRepN'
p1457
I0
sg1290
g1291
sS'stim.thisIndex'
p1458
g32
(g67
S'\x07\x00\x00\x00'
p1459
tp1460
Rp1461
sg31
g41
sS'block.thisN'
p1462
I0
sS'stim.thisN'
p1463
I7
sg1298
g1299
sg1300
g1301
sg21
g22
sg23
I2
sS'trials.thisIndex'
p1464
g1305
sS'stim.thisRepN'
p1465
I0
sg25
g30
sg1307
g729
sS'trials.thisRepN'
p1466
I3
sS'trials.thisN'
p1467
I3
sg1310
g32
(g87
S'\x08\x00\x00\x00\x00\x00\x00\x00'
p1468
tp1469
Rp1470
sg24
g11
sS'trials.thisTrialN'
p1471
I0
sS'block.thisIndex'
p1472
g97
sg1316
g32
(g87
S'\x04\x00\x00\x00\x00\x00\x00\x00'
p1473
tp1474
Rp1475
sa(dp1476
S'block.thisTrialN'
p1477
I0
sS'stim.thisTrialN'
p1478
I8
sS'block.thisRepN'
p1479
I0
sg1290
g1291
sS'stim.thisIndex'
p1480
g32
(g67
S'\x08\x00\x00\x00'
p1481
tp1482
Rp1483
sg31
g41
sS'block.thisN'
p1484
I0
sS'stim.thisN'
p1485
I8
sg1298
g1299
sg1300
g1301
sg21
g22
sg23
I2
sS'trials.thisIndex'
p1486
g1305
sS'stim.thisRepN'
p1487
I0
sg25
g30
sg1307
g160
sS'trials.thisRepN'
p1488
I3
sS'trials.thisN'
p1489
I3
sg1310
g32
(g87
S'\t\x00\x00\x00\x00\x00\x00\x00'
p1490
tp1491
Rp1492
sg24
g11
sS'trials.thisTrialN'
p1493
I0
sS'block.thisIndex'
p1494
g97
sg1316
g32
(g87
S'\x04\x00\x00\x00\x00\x00\x00\x00'
p1495
tp1496
Rp1497
sa(dp1498
S'block.thisTrialN'
p1499
I0
sS'stim.thisTrialN'
p1500
I9
sS'block.thisRepN'
p1501
I0
sg1290
g1291
sS'stim.thisIndex'
p1502
g32
(g67
S'\t\x00\x00\x00'
p1503
tp1504
Rp1505
sg31
g41
sS'block.thisN'
p1506
I0
sS'stim.thisN'
p1507
I9
sg1298
g1299
sg1300
g1301
sg21
g22
sg23
I2
sS'trials.thisIndex'
p1508
g1305
sS'stim.thisRepN'
p1509
I0
sg25
g30
sg1307
g183
sS'trials.thisRepN'
p1510
I3
sS'trials.thisN'
p1511
I3
sg1310
g32
(g87
S'\n\x00\x00\x00\x00\x00\x00\x00'
p1512
tp1513
Rp1514
sg24
g11
sS'trials.thisTrialN'
p1515
I0
sS'block.thisIndex'
p1516
g97
sg1316
g32
(g87
S'\x04\x00\x00\x00\x00\x00\x00\x00'
p1517
tp1518
Rp1519
sa(dp1520
S'block.thisTrialN'
p1521
I0
sS'stim.thisTrialN'
p1522
I10
sS'block.thisRepN'
p1523
I0
sg1290
g1291
sS'stim.thisIndex'
p1524
g32
(g67
S'\n\x00\x00\x00'
p1525
tp1526
Rp1527
sg31
g41
sS'block.thisN'
p1528
I0
sS'stim.thisN'
p1529
I10
sg1298
g1299
sg1300
Vmask
p1530
sg21
g22
sg23
I2
sS'trials.thisIndex'
p1531
g1305
sS'stim.thisRepN'
p1532
I0
sg25
g30
sg1307
g207
sS'trials.thisRepN'
p1533
I3
sS'trials.thisN'
p1534
I3
sg1310
g32
(g87
S'\x0b\x00\x00\x00\x00\x00\x00\x00'
p1535
tp1536
Rp1537
sg24
g11
sS'trials.thisTrialN'
p1538
I0
sS'block.thisIndex'
p1539
g97
sg1316
g32
(g87
S'\x04\x00\x00\x00\x00\x00\x00\x00'
p1540
tp1541
Rp1542
sa(dp1543
S'block.thisTrialN'
p1544
I0
sS'stim.thisTrialN'
p1545
I11
sS'block.thisRepN'
p1546
I0
sg1290
g1291
sS'stim.thisIndex'
p1547
g32
(g67
S'\x0b\x00\x00\x00'
p1548
tp1549
Rp1550
sg31
g41
sS'block.thisN'
p1551
I0
sS'stim.thisN'
p1552
I11
sg1298
g1299
sg1300
g1301
sg21
g22
sg23
I2
sS'trials.thisIndex'
p1553
g1305
sS'stim.thisRepN'
p1554
I0
sg25
g30
sg1307
g366
sS'trials.thisRepN'
p1555
I3
sS'trials.thisN'
p1556
I3
sg1310
g32
(g87
S'\x0c\x00\x00\x00\x00\x00\x00\x00'
p1557
tp1558
Rp1559
sg24
g11
sS'trials.thisTrialN'
p1560
I0
sS'block.thisIndex'
p1561
g97
sg1316
g32
(g87
S'\x04\x00\x00\x00\x00\x00\x00\x00'
p1562
tp1563
Rp1564
sa(dp1565
S'block.thisTrialN'
p1566
I0
sS'stim.thisTrialN'
p1567
I12
sS'block.thisRepN'
p1568
I0
sg1290
g1291
sS'stim.thisIndex'
p1569
g32
(g67
S'\x0c\x00\x00\x00'
p1570
tp1571
Rp1572
sg31
g41
sS'block.thisN'
p1573
I0
sS'stim.thisN'
p1574
I12
sg1298
g1299
sg1300
g1301
sg21
g22
sg23
I2
sS'trials.thisIndex'
p1575
g1305
sS'stim.thisRepN'
p1576
I0
sg25
g30
sg1307
g253
sS'trials.thisRepN'
p1577
I3
sS'trials.thisN'
p1578
I3
sg1310
g32
(g87
S'\r\x00\x00\x00\x00\x00\x00\x00'
p1579
tp1580
Rp1581
sg24
g11
sS'trials.thisTrialN'
p1582
I0
sS'block.thisIndex'
p1583
g97
sg1316
g32
(g87
S'\x04\x00\x00\x00\x00\x00\x00\x00'
p1584
tp1585
Rp1586
sa(dp1587
S'block.thisTrialN'
p1588
I0
sS'stim.thisTrialN'
p1589
I13
sS'block.thisRepN'
p1590
I0
sg1290
g1291
sS'stim.thisIndex'
p1591
g32
(g67
S'\r\x00\x00\x00'
p1592
tp1593
Rp1594
sg31
g41
sS'block.thisN'
p1595
I0
sS'stim.thisN'
p1596
I13
sg1298
g1299
sg1300
g1301
sg21
g22
sg23
I2
sS'trials.thisIndex'
p1597
g1305
sS'stim.thisRepN'
p1598
I0
sg25
g30
sg1307
g974
sS'trials.thisRepN'
p1599
I3
sS'trials.thisN'
p1600
I3
sg1310
g32
(g87
S'\x0e\x00\x00\x00\x00\x00\x00\x00'
p1601
tp1602
Rp1603
sg24
g11
sS'trials.thisTrialN'
p1604
I0
sS'block.thisIndex'
p1605
g97
sg1316
g32
(g87
S'\x04\x00\x00\x00\x00\x00\x00\x00'
p1606
tp1607
Rp1608
sa(dp1609
S'block.thisTrialN'
p1610
I0
sS'stim.thisTrialN'
p1611
I14
sS'block.thisRepN'
p1612
I0
sg1290
g1291
sS'stim.thisIndex'
p1613
g32
(g67
S'\x0e\x00\x00\x00'
p1614
tp1615
Rp1616
sg31
g41
sS'block.thisN'
p1617
I0
sS'stim.thisN'
p1618
I14
sg1298
g1299
sg1300
g1301
sg21
g22
sg23
I2
sS'trials.thisIndex'
p1619
g1305
sS'stim.thisRepN'
p1620
I0
sg25
g30
sg1307
g389
sS'trials.thisRepN'
p1621
I3
sS'trials.thisN'
p1622
I3
sg1310
g32
(g87
S'\x0f\x00\x00\x00\x00\x00\x00\x00'
p1623
tp1624
Rp1625
sg24
g11
sS'trials.thisTrialN'
p1626
I0
sS'block.thisIndex'
p1627
g97
sg1316
g32
(g87
S'\x04\x00\x00\x00\x00\x00\x00\x00'
p1628
tp1629
Rp1630
sa(dp1631
S'block.thisTrialN'
p1632
I0
sS'stim.thisTrialN'
p1633
I15
sS'block.thisRepN'
p1634
I0
sg1290
g1291
sS'stim.thisIndex'
p1635
g32
(g67
S'\x0f\x00\x00\x00'
p1636
tp1637
Rp1638
sg31
g41
sS'block.thisN'
p1639
I0
sS'stim.thisN'
p1640
I15
sg1298
g1299
sg1300
g1301
sg21
g22
sg23
I2
sS'trials.thisIndex'
p1641
g1305
sS'stim.thisRepN'
p1642
I0
sg25
g30
sg1307
g298
sS'trials.thisRepN'
p1643
I3
sS'trials.thisN'
p1644
I3
sg1310
g32
(g87
S'\x10\x00\x00\x00\x00\x00\x00\x00'
p1645
tp1646
Rp1647
sg24
g11
sS'trials.thisTrialN'
p1648
I0
sS'block.thisIndex'
p1649
g97
sg1316
g32
(g87
S'\x04\x00\x00\x00\x00\x00\x00\x00'
p1650
tp1651
Rp1652
sa(dp1653
S'block.thisTrialN'
p1654
I0
sS'block.thisRepN'
p1655
I0
sg16
g854
sS'trials.thisRepN'
p1656
I3
sg15
F0.34973100000024715
sg25
g30
sS'block.thisN'
p1657
I0
sg31
g41
sS'trials.thisN'
p1658
I3
sg14
g854
sg24
g11
sS'trials.thisTrialN'
p1659
I0
sS'trials.thisIndex'
p1660
g1305
sg21
g22
sg23
I2
sS'block.thisIndex'
p1661
g97
sg17
F0.18517350000001898
sa(dp1662
S'block.thisTrialN'
p1663
I0
sS'block.thisRepN'
p1664
I0
sg31
g41
sg25
g30
sS'block.thisN'
p1665
I0
sg24
g11
sg21
g22
sg23
I2
sS'block.thisIndex'
p1666
g97
sa(dp1667
S'block.thisTrialN'
p1668
I0
sS'stim.thisTrialN'
p1669
I0
sS'block.thisRepN'
p1670
I1
sS'Tx'
p1671
Vt1
p1672
sS'stim.thisIndex'
p1673
g32
(g67
S'\x00\x00\x00\x00'
p1674
tp1675
Rp1676
sg31
g41
sS'block.thisN'
p1677
I1
sS'stim.thisN'
p1678
I0
sS'sep_dur'
p1679
Vshort
p1680
sS'cond'
p1681
Vdistractor
p1682
sg21
g22
sg23
I2
sS'trials.thisIndex'
p1683
g32
(g67
S'\x00\x00\x00\x00'
p1684
tp1685
Rp1686
sS'stim.thisRepN'
p1687
I0
sg25
g30
sS'stimulus'
p1688
g548
sS'trials.thisRepN'
p1689
I0
sS'trials.thisN'
p1690
I0
sS'trial'
p1691
g32
(g87
S'\x01\x00\x00\x00\x00\x00\x00\x00'
p1692
tp1693
Rp1694
sg24
g11
sS'trials.thisTrialN'
p1695
I0
sS'block.thisIndex'
p1696
g32
(g67
S'\x00\x00\x00\x00'
p1697
tp1698
Rp1699
sS'block'
p1700
g32
(g87
S'\x05\x00\x00\x00\x00\x00\x00\x00'
p1701
tp1702
Rp1703
sa(dp1704
S'block.thisTrialN'
p1705
I0
sS'stim.thisTrialN'
p1706
I1
sS'block.thisRepN'
p1707
I1
sg1671
g1672
sS'stim.thisIndex'
p1708
g32
(g67
S'\x01\x00\x00\x00'
p1709
tp1710
Rp1711
sg31
g41
sS'block.thisN'
p1712
I1
sS'stim.thisN'
p1713
I1
sg1679
g1680
sg1681
g1682
sg21
g22
sg23
I2
sS'trials.thisIndex'
p1714
g1686
sS'stim.thisRepN'
p1715
I0
sg25
g30
sg1688
g683
sS'trials.thisRepN'
p1716
I0
sS'trials.thisN'
p1717
I0
sg1691
g32
(g87
S'\x02\x00\x00\x00\x00\x00\x00\x00'
p1718
tp1719
Rp1720
sg24
g11
sS'trials.thisTrialN'
p1721
I0
sS'block.thisIndex'
p1722
g1699
sg1700
g32
(g87
S'\x05\x00\x00\x00\x00\x00\x00\x00'
p1723
tp1724
Rp1725
sa(dp1726
S'block.thisTrialN'
p1727
I0
sS'stim.thisTrialN'
p1728
I2
sS'block.thisRepN'
p1729
I1
sg1671
g1672
sS'stim.thisIndex'
p1730
g32
(g67
S'\x02\x00\x00\x00'
p1731
tp1732
Rp1733
sg31
g41
sS'block.thisN'
p1734
I1
sS'stim.thisN'
p1735
I2
sg1679
g1680
sg1681
g1682
sg21
g22
sg23
I2
sS'trials.thisIndex'
p1736
g1686
sS'stim.thisRepN'
p1737
I0
sg25
g30
sg1688
g1021
sS'trials.thisRepN'
p1738
I0
sS'trials.thisN'
p1739
I0
sg1691
g32
(g87
S'\x03\x00\x00\x00\x00\x00\x00\x00'
p1740
tp1741
Rp1742
sg24
g11
sS'trials.thisTrialN'
p1743
I0
sS'block.thisIndex'
p1744
g1699
sg1700
g32
(g87
S'\x05\x00\x00\x00\x00\x00\x00\x00'
p1745
tp1746
Rp1747
sa(dp1748
S'block.thisTrialN'
p1749
I0
sS'stim.thisTrialN'
p1750
I3
sS'block.thisRepN'
p1751
I1
sg1671
g1672
sS'stim.thisIndex'
p1752
g32
(g67
S'\x03\x00\x00\x00'
p1753
tp1754
Rp1755
sg31
g41
sS'block.thisN'
p1756
I1
sS'stim.thisN'
p1757
I3
sg1679
g1680
sg1681
g1682
sg21
g22
sg23
I2
sS'trials.thisIndex'
p1758
g1686
sS'stim.thisRepN'
p1759
I0
sg25
g30
sg1688
g1398
sS'trials.thisRepN'
p1760
I0
sS'trials.thisN'
p1761
I0
sg1691
g32
(g87
S'\x04\x00\x00\x00\x00\x00\x00\x00'
p1762
tp1763
Rp1764
sg24
g11
sS'trials.thisTrialN'
p1765
I0
sS'block.thisIndex'
p1766
g1699
sg1700
g32
(g87
S'\x05\x00\x00\x00\x00\x00\x00\x00'
p1767
tp1768
Rp1769
sa(dp1770
S'block.thisTrialN'
p1771
I0
sS'stim.thisTrialN'
p1772
I4
sS'block.thisRepN'
p1773
I1
sg1671
g1672
sS'stim.thisIndex'
p1774
g32
(g67
S'\x04\x00\x00\x00'
p1775
tp1776
Rp1777
sg31
g41
sS'block.thisN'
p1778
I1
sS'stim.thisN'
p1779
I4
sg1679
g1680
sg1681
g1682
sg21
g22
sg23
I2
sS'trials.thisIndex'
p1780
g1686
sS'stim.thisRepN'
p1781
I0
sg25
g30
sg1688
VC
p1782
sS'trials.thisRepN'
p1783
I0
sS'trials.thisN'
p1784
I0
sg1691
g32
(g87
S'\x05\x00\x00\x00\x00\x00\x00\x00'
p1785
tp1786
Rp1787
sg24
g11
sS'trials.thisTrialN'
p1788
I0
sS'block.thisIndex'
p1789
g1699
sg1700
g32
(g87
S'\x05\x00\x00\x00\x00\x00\x00\x00'
p1790
tp1791
Rp1792
sa(dp1793
S'block.thisTrialN'
p1794
I0
sS'stim.thisTrialN'
p1795
I5
sS'block.thisRepN'
p1796
I1
sg1671
g1672
sS'stim.thisIndex'
p1797
g32
(g67
S'\x05\x00\x00\x00'
p1798
tp1799
Rp1800
sg31
g41
sS'block.thisN'
p1801
I1
sS'stim.thisN'
p1802
I5
sg1679
g1680
sg1681
g1682
sg21
g22
sg23
I2
sS'trials.thisIndex'
p1803
g1686
sS'stim.thisRepN'
p1804
I0
sg25
g30
sg1688
g183
sS'trials.thisRepN'
p1805
I0
sS'trials.thisN'
p1806
I0
sg1691
g32
(g87
S'\x06\x00\x00\x00\x00\x00\x00\x00'
p1807
tp1808
Rp1809
sg24
g11
sS'trials.thisTrialN'
p1810
I0
sS'block.thisIndex'
p1811
g1699
sg1700
g32
(g87
S'\x05\x00\x00\x00\x00\x00\x00\x00'
p1812
tp1813
Rp1814
sa(dp1815
S'block.thisTrialN'
p1816
I0
sS'stim.thisTrialN'
p1817
I6
sS'block.thisRepN'
p1818
I1
sg1671
g1672
sS'stim.thisIndex'
p1819
g32
(g67
S'\x06\x00\x00\x00'
p1820
tp1821
Rp1822
sg31
g41
sS'block.thisN'
p1823
I1
sS'stim.thisN'
p1824
I6
sg1679
g1680
sg1681
g1682
sg21
g22
sg23
I2
sS'trials.thisIndex'
p1825
g1686
sS'stim.thisRepN'
p1826
I0
sg25
g30
sg1688
g366
sS'trials.thisRepN'
p1827
I0
sS'trials.thisN'
p1828
I0
sg1691
g32
(g87
S'\x07\x00\x00\x00\x00\x00\x00\x00'
p1829
tp1830
Rp1831
sg24
g11
sS'trials.thisTrialN'
p1832
I0
sS'block.thisIndex'
p1833
g1699
sg1700
g32
(g87
S'\x05\x00\x00\x00\x00\x00\x00\x00'
p1834
tp1835
Rp1836
sa(dp1837
S'block.thisTrialN'
p1838
I0
sS'stim.thisTrialN'
p1839
I7
sS'block.thisRepN'
p1840
I1
sg1671
g1672
sS'stim.thisIndex'
p1841
g32
(g67
S'\x07\x00\x00\x00'
p1842
tp1843
Rp1844
sg31
g41
sS'block.thisN'
p1845
I1
sS'stim.thisN'
p1846
I7
sg1679
g1680
sg1681
g1682
sg21
g22
sg23
I2
sS'trials.thisIndex'
p1847
g1686
sS'stim.thisRepN'
p1848
I0
sg25
g30
sg1688
g389
sS'trials.thisRepN'
p1849
I0
sS'trials.thisN'
p1850
I0
sg1691
g32
(g87
S'\x08\x00\x00\x00\x00\x00\x00\x00'
p1851
tp1852
Rp1853
sg24
g11
sS'trials.thisTrialN'
p1854
I0
sS'block.thisIndex'
p1855
g1699
sg1700
g32
(g87
S'\x05\x00\x00\x00\x00\x00\x00\x00'
p1856
tp1857
Rp1858
sa(dp1859
S'block.thisTrialN'
p1860
I0
sS'stim.thisTrialN'
p1861
I8
sS'block.thisRepN'
p1862
I1
sg1671
g1672
sS'stim.thisIndex'
p1863
g32
(g67
S'\x08\x00\x00\x00'
p1864
tp1865
Rp1866
sg31
g41
sS'block.thisN'
p1867
I1
sS'stim.thisN'
p1868
I8
sg1679
g1680
sg1681
g1682
sg21
g22
sg23
I2
sS'trials.thisIndex'
p1869
g1686
sS'stim.thisRepN'
p1870
I0
sg25
g30
sg1688
g183
sS'trials.thisRepN'
p1871
I0
sS'trials.thisN'
p1872
I0
sg1691
g32
(g87
S'\t\x00\x00\x00\x00\x00\x00\x00'
p1873
tp1874
Rp1875
sg24
g11
sS'trials.thisTrialN'
p1876
I0
sS'block.thisIndex'
p1877
g1699
sg1700
g32
(g87
S'\x05\x00\x00\x00\x00\x00\x00\x00'
p1878
tp1879
Rp1880
sa(dp1881
S'block.thisTrialN'
p1882
I0
sS'stim.thisTrialN'
p1883
I9
sS'block.thisRepN'
p1884
I1
sg1671
g1672
sS'stim.thisIndex'
p1885
g32
(g67
S'\t\x00\x00\x00'
p1886
tp1887
Rp1888
sg31
g41
sS'block.thisN'
p1889
I1
sS'stim.thisN'
p1890
I9
sg1679
g1680
sg1681
Vtarget
p1891
sg21
g22
sg23
I2
sS'trials.thisIndex'
p1892
g1686
sS'stim.thisRepN'
p1893
I0
sg25
g30
sg1688
V1
p1894
sS'trials.thisRepN'
p1895
I0
sS'trials.thisN'
p1896
I0
sg1691
g32
(g87
S'\n\x00\x00\x00\x00\x00\x00\x00'
p1897
tp1898
Rp1899
sg24
g11
sS'trials.thisTrialN'
p1900
I0
sS'block.thisIndex'
p1901
g1699
sg1700
g32
(g87
S'\x05\x00\x00\x00\x00\x00\x00\x00'
p1902
tp1903
Rp1904
sa(dp1905
S'block.thisTrialN'
p1906
I0
sS'stim.thisTrialN'
p1907
I10
sS'block.thisRepN'
p1908
I1
sg1671
g1672
sS'stim.thisIndex'
p1909
g32
(g67
S'\n\x00\x00\x00'
p1910
tp1911
Rp1912
sg31
g41
sS'block.thisN'
p1913
I1
sS'stim.thisN'
p1914
I10
sg1679
g1680
sg1681
g1682
sg21
g22
sg23
I2
sS'trials.thisIndex'
p1915
g1686
sS'stim.thisRepN'
p1916
I0
sg25
g30
sg1688
g683
sS'trials.thisRepN'
p1917
I0
sS'trials.thisN'
p1918
I0
sg1691
g32
(g87
S'\x0b\x00\x00\x00\x00\x00\x00\x00'
p1919
tp1920
Rp1921
sg24
g11
sS'trials.thisTrialN'
p1922
I0
sS'block.thisIndex'
p1923
g1699
sg1700
g32
(g87
S'\x05\x00\x00\x00\x00\x00\x00\x00'
p1924
tp1925
Rp1926
sa(dp1927
S'block.thisTrialN'
p1928
I0
sS'stim.thisTrialN'
p1929
I11
sS'block.thisRepN'
p1930
I1
sg1671
g1672
sS'stim.thisIndex'
p1931
g32
(g67
S'\x0b\x00\x00\x00'
p1932
tp1933
Rp1934
sg31
g41
sS'block.thisN'
p1935
I1
sS'stim.thisN'
p1936
I11
sg1679
g1680
sg1681
g1682
sg21
g22
sg23
I2
sS'trials.thisIndex'
p1937
g1686
sS'stim.thisRepN'
p1938
I0
sg25
g30
sg1688
g525
sS'trials.thisRepN'
p1939
I0
sS'trials.thisN'
p1940
I0
sg1691
g32
(g87
S'\x0c\x00\x00\x00\x00\x00\x00\x00'
p1941
tp1942
Rp1943
sg24
g11
sS'trials.thisTrialN'
p1944
I0
sS'block.thisIndex'
p1945
g1699
sg1700
g32
(g87
S'\x05\x00\x00\x00\x00\x00\x00\x00'
p1946
tp1947
Rp1948
sa(dp1949
S'block.thisTrialN'
p1950
I0
sS'stim.thisTrialN'
p1951
I12
sS'block.thisRepN'
p1952
I1
sg1671
g1672
sS'stim.thisIndex'
p1953
g32
(g67
S'\x0c\x00\x00\x00'
p1954
tp1955
Rp1956
sg31
g41
sS'block.thisN'
p1957
I1
sS'stim.thisN'
p1958
I12
sg1679
g1680
sg1681
g1682
sg21
g22
sg23
I2
sS'trials.thisIndex'
p1959
g1686
sS'stim.thisRepN'
p1960
I0
sg25
g30
sg1688
g1021
sS'trials.thisRepN'
p1961
I0
sS'trials.thisN'
p1962
I0
sg1691
g32
(g87
S'\r\x00\x00\x00\x00\x00\x00\x00'
p1963
tp1964
Rp1965
sg24
g11
sS'trials.thisTrialN'
p1966
I0
sS'block.thisIndex'
p1967
g1699
sg1700
g32
(g87
S'\x05\x00\x00\x00\x00\x00\x00\x00'
p1968
tp1969
Rp1970
sa(dp1971
S'block.thisTrialN'
p1972
I0
sS'stim.thisTrialN'
p1973
I13
sS'block.thisRepN'
p1974
I1
sg1671
g1672
sS'stim.thisIndex'
p1975
g32
(g67
S'\r\x00\x00\x00'
p1976
tp1977
Rp1978
sg31
g41
sS'block.thisN'
p1979
I1
sS'stim.thisN'
p1980
I13
sg1679
g1680
sg1681
g1682
sg21
g22
sg23
I2
sS'trials.thisIndex'
p1981
g1686
sS'stim.thisRepN'
p1982
I0
sg25
g30
sg1688
g183
sS'trials.thisRepN'
p1983
I0
sS'trials.thisN'
p1984
I0
sg1691
g32
(g87
S'\x0e\x00\x00\x00\x00\x00\x00\x00'
p1985
tp1986
Rp1987
sg24
g11
sS'trials.thisTrialN'
p1988
I0
sS'block.thisIndex'
p1989
g1699
sg1700
g32
(g87
S'\x05\x00\x00\x00\x00\x00\x00\x00'
p1990
tp1991
Rp1992
sa(dp1993
S'block.thisTrialN'
p1994
I0
sS'stim.thisTrialN'
p1995
I14
sS'block.thisRepN'
p1996
I1
sg1671
g1672
sS'stim.thisIndex'
p1997
g32
(g67
S'\x0e\x00\x00\x00'
p1998
tp1999
Rp2000
sg31
g41
sS'block.thisN'
p2001
I1
sS'stim.thisN'
p2002
I14
sg1679
g1680
sg1681
Vmask
p2003
sg21
g22
sg23
I2
sS'trials.thisIndex'
p2004
g1686
sS'stim.thisRepN'
p2005
I0
sg25
g30
sg1688
g207
sS'trials.thisRepN'
p2006
I0
sS'trials.thisN'
p2007
I0
sg1691
g32
(g87
S'\x0f\x00\x00\x00\x00\x00\x00\x00'
p2008
tp2009
Rp2010
sg24
g11
sS'trials.thisTrialN'
p2011
I0
sS'block.thisIndex'
p2012
g1699
sg1700
g32
(g87
S'\x05\x00\x00\x00\x00\x00\x00\x00'
p2013
tp2014
Rp2015
sa(dp2016
S'block.thisTrialN'
p2017
I0
sS'stim.thisTrialN'
p2018
I15
sS'block.thisRepN'
p2019
I1
sg1671
g1672
sS'stim.thisIndex'
p2020
g32
(g67
S'\x0f\x00\x00\x00'
p2021
tp2022
Rp2023
sg31
g41
sS'block.thisN'
p2024
I1
sS'stim.thisN'
p2025
I15
sg1679
g1680
sg1681
g1682
sg21
g22
sg23
I2
sS'trials.thisIndex'
p2026
g1686
sS'stim.thisRepN'
p2027
I0
sg25
g30
sg1688
g729
sS'trials.thisRepN'
p2028
I0
sS'trials.thisN'
p2029
I0
sg1691
g32
(g87
S'\x10\x00\x00\x00\x00\x00\x00\x00'
p2030
tp2031
Rp2032
sg24
g11
sS'trials.thisTrialN'
p2033
I0
sS'block.thisIndex'
p2034
g1699
sg1700
g32
(g87
S'\x05\x00\x00\x00\x00\x00\x00\x00'
p2035
tp2036
Rp2037
sa(dp2038
S'block.thisTrialN'
p2039
I0
sS'stim.thisTrialN'
p2040
I16
sS'block.thisRepN'
p2041
I1
sg1671
g1672
sS'stim.thisIndex'
p2042
g32
(g67
S'\x10\x00\x00\x00'
p2043
tp2044
Rp2045
sg31
g41
sS'block.thisN'
p2046
I1
sS'stim.thisN'
p2047
I16
sg1679
g1680
sg1681
g1682
sg21
g22
sg23
I2
sS'trials.thisIndex'
p2048
g1686
sS'stim.thisRepN'
p2049
I0
sg25
g30
sg1688
g548
sS'trials.thisRepN'
p2050
I0
sS'trials.thisN'
p2051
I0
sg1691
g32
(g87
S'\x11\x00\x00\x00\x00\x00\x00\x00'
p2052
tp2053
Rp2054
sg24
g11
sS'trials.thisTrialN'
p2055
I0
sS'block.thisIndex'
p2056
g1699
sg1700
g32
(g87
S'\x05\x00\x00\x00\x00\x00\x00\x00'
p2057
tp2058
Rp2059
sa(dp2060
S'block.thisTrialN'
p2061
I0
sS'stim.thisTrialN'
p2062
I17
sS'block.thisRepN'
p2063
I1
sg1671
g1672
sS'stim.thisIndex'
p2064
g32
(g67
S'\x11\x00\x00\x00'
p2065
tp2066
Rp2067
sg31
g41
sS'block.thisN'
p2068
I1
sS'stim.thisN'
p2069
I17
sg1679
g1680
sg1681
g1682
sg21
g22
sg23
I2
sS'trials.thisIndex'
p2070
g1686
sS'stim.thisRepN'
p2071
I0
sg25
g30
sg1688
g974
sS'trials.thisRepN'
p2072
I0
sS'trials.thisN'
p2073
I0
sg1691
g32
(g87
S'\x12\x00\x00\x00\x00\x00\x00\x00'
p2074
tp2075
Rp2076
sg24
g11
sS'trials.thisTrialN'
p2077
I0
sS'block.thisIndex'
p2078
g1699
sg1700
g32
(g87
S'\x05\x00\x00\x00\x00\x00\x00\x00'
p2079
tp2080
Rp2081
sa(dp2082
S'block.thisTrialN'
p2083
I0
sS'block.thisRepN'
p2084
I1
sg16
g1279
sS'trials.thisRepN'
p2085
I0
sg15
F1.1065582999999606
sg25
g30
sS'block.thisN'
p2086
I1
sg31
g41
sS'trials.thisN'
p2087
I0
sg14
g1279
sg24
g11
sS'trials.thisTrialN'
p2088
I0
sS'trials.thisIndex'
p2089
g1686
sg21
g22
sg23
I2
sS'block.thisIndex'
p2090
g1699
sg17
F0.2066835000005085
sa(dp2091
S'block.thisTrialN'
p2092
I0
sS'stim.thisTrialN'
p2093
I0
sS'block.thisRepN'
p2094
I1
sS'Tx'
p2095
Vt1
p2096
sS'stim.thisIndex'
p2097
g32
(g67
S'\x00\x00\x00\x00'
p2098
tp2099
Rp2100
sg31
g41
sS'block.thisN'
p2101
I1
sS'stim.thisN'
p2102
I0
sS'sep_dur'
p2103
Vshort
p2104
sS'cond'
p2105
Vdistractor
p2106
sg21
g22
sg23
I2
sS'trials.thisIndex'
p2107
g32
(g67
S'\x00\x00\x00\x00'
p2108
tp2109
Rp2110
sS'stim.thisRepN'
p2111
I0
sg25
g30
sS'stimulus'
p2112
g389
sS'trials.thisRepN'
p2113
I1
sS'trials.thisN'
p2114
I1
sS'trial'
p2115
g32
(g87
S'\x01\x00\x00\x00\x00\x00\x00\x00'
p2116
tp2117
Rp2118
sg24
g11
sS'trials.thisTrialN'
p2119
I0
sS'block.thisIndex'
p2120
g1699
sS'block'
p2121
g32
(g87
S'\x06\x00\x00\x00\x00\x00\x00\x00'
p2122
tp2123
Rp2124
sa(dp2125
S'block.thisTrialN'
p2126
I0
sS'stim.thisTrialN'
p2127
I1
sS'block.thisRepN'
p2128
I1
sg2095
g2096
sS'stim.thisIndex'
p2129
g32
(g67
S'\x01\x00\x00\x00'
p2130
tp2131
Rp2132
sg31
g41
sS'block.thisN'
p2133
I1
sS'stim.thisN'
p2134
I1
sg2103
g2104
sg2105
g2106
sg21
g22
sg23
I2
sS'trials.thisIndex'
p2135
g2110
sS'stim.thisRepN'
p2136
I0
sg25
g30
sg2112
g683
sS'trials.thisRepN'
p2137
I1
sS'trials.thisN'
p2138
I1
sg2115
g32
(g87
S'\x02\x00\x00\x00\x00\x00\x00\x00'
p2139
tp2140
Rp2141
sg24
g11
sS'trials.thisTrialN'
p2142
I0
sS'block.thisIndex'
p2143
g1699
sg2121
g32
(g87
S'\x06\x00\x00\x00\x00\x00\x00\x00'
p2144
tp2145
Rp2146
sa(dp2147
S'block.thisTrialN'
p2148
I0
sS'stim.thisTrialN'
p2149
I2
sS'block.thisRepN'
p2150
I1
sg2095
g2096
sS'stim.thisIndex'
p2151
g32
(g67
S'\x02\x00\x00\x00'
p2152
tp2153
Rp2154
sg31
g41
sS'block.thisN'
p2155
I1
sS'stim.thisN'
p2156
I2
sg2103
g2104
sg2105
g2106
sg21
g22
sg23
I2
sS'trials.thisIndex'
p2157
g2110
sS'stim.thisRepN'
p2158
I0
sg25
g30
sg2112
g343
sS'trials.thisRepN'
p2159
I1
sS'trials.thisN'
p2160
I1
sg2115
g32
(g87
S'\x03\x00\x00\x00\x00\x00\x00\x00'
p2161
tp2162
Rp2163
sg24
g11
sS'trials.thisTrialN'
p2164
I0
sS'block.thisIndex'
p2165
g1699
sg2121
g32
(g87
S'\x06\x00\x00\x00\x00\x00\x00\x00'
p2166
tp2167
Rp2168
sa(dp2169
S'block.thisTrialN'
p2170
I0
sS'stim.thisTrialN'
p2171
I3
sS'block.thisRepN'
p2172
I1
sg2095
g2096
sS'stim.thisIndex'
p2173
g32
(g67
S'\x03\x00\x00\x00'
p2174
tp2175
Rp2176
sg31
g41
sS'block.thisN'
p2177
I1
sS'stim.thisN'
p2178
I3
sg2103
g2104
sg2105
g2106
sg21
g22
sg23
I2
sS'trials.thisIndex'
p2179
g2110
sS'stim.thisRepN'
p2180
I0
sg25
g30
sg2112
g183
sS'trials.thisRepN'
p2181
I1
sS'trials.thisN'
p2182
I1
sg2115
g32
(g87
S'\x04\x00\x00\x00\x00\x00\x00\x00'
p2183
tp2184
Rp2185
sg24
g11
sS'trials.thisTrialN'
p2186
I0
sS'block.thisIndex'
p2187
g1699
sg2121
g32
(g87
S'\x06\x00\x00\x00\x00\x00\x00\x00'
p2188
tp2189
Rp2190
sa(dp2191
S'block.thisTrialN'
p2192
I0
sS'stim.thisTrialN'
p2193
I4
sS'block.thisRepN'
p2194
I1
sg2095
g2096
sS'stim.thisIndex'
p2195
g32
(g67
S'\x04\x00\x00\x00'
p2196
tp2197
Rp2198
sg31
g41
sS'block.thisN'
p2199
I1
sS'stim.thisN'
p2200
I4
sg2103
g2104
sg2105
g2106
sg21
g22
sg23
I2
sS'trials.thisIndex'
p2201
g2110
sS'stim.thisRepN'
p2202
I0
sg25
g30
sg2112
VY
p2203
sS'trials.thisRepN'
p2204
I1
sS'trials.thisN'
p2205
I1
sg2115
g32
(g87
S'\x05\x00\x00\x00\x00\x00\x00\x00'
p2206
tp2207
Rp2208
sg24
g11
sS'trials.thisTrialN'
p2209
I0
sS'block.thisIndex'
p2210
g1699
sg2121
g32
(g87
S'\x06\x00\x00\x00\x00\x00\x00\x00'
p2211
tp2212
Rp2213
sa(dp2214
S'block.thisTrialN'
p2215
I0
sS'stim.thisTrialN'
p2216
I5
sS'block.thisRepN'
p2217
I1
sg2095
g2096
sS'stim.thisIndex'
p2218
g32
(g67
S'\x05\x00\x00\x00'
p2219
tp2220
Rp2221
sg31
g41
sS'block.thisN'
p2222
I1
sS'stim.thisN'
p2223
I5
sg2103
g2104
sg2105
g2106
sg21
g22
sg23
I2
sS'trials.thisIndex'
p2224
g2110
sS'stim.thisRepN'
p2225
I0
sg25
g30
sg2112
g1782
sS'trials.thisRepN'
p2226
I1
sS'trials.thisN'
p2227
I1
sg2115
g32
(g87
S'\x06\x00\x00\x00\x00\x00\x00\x00'
p2228
tp2229
Rp2230
sg24
g11
sS'trials.thisTrialN'
p2231
I0
sS'block.thisIndex'
p2232
g1699
sg2121
g32
(g87
S'\x06\x00\x00\x00\x00\x00\x00\x00'
p2233
tp2234
Rp2235
sa(dp2236
S'block.thisTrialN'
p2237
I0
sS'stim.thisTrialN'
p2238
I6
sS'block.thisRepN'
p2239
I1
sg2095
g2096
sS'stim.thisIndex'
p2240
g32
(g67
S'\x06\x00\x00\x00'
p2241
tp2242
Rp2243
sg31
g41
sS'block.thisN'
p2244
I1
sS'stim.thisN'
p2245
I6
sg2103
g2104
sg2105
g2106
sg21
g22
sg23
I2
sS'trials.thisIndex'
p2246
g2110
sS'stim.thisRepN'
p2247
I0
sg25
g30
sg2112
g774
sS'trials.thisRepN'
p2248
I1
sS'trials.thisN'
p2249
I1
sg2115
g32
(g87
S'\x07\x00\x00\x00\x00\x00\x00\x00'
p2250
tp2251
Rp2252
sg24
g11
sS'trials.thisTrialN'
p2253
I0
sS'block.thisIndex'
p2254
g1699
sg2121
g32
(g87
S'\x06\x00\x00\x00\x00\x00\x00\x00'
p2255
tp2256
Rp2257
sa(dp2258
S'block.thisTrialN'
p2259
I0
sS'stim.thisTrialN'
p2260
I7
sS'block.thisRepN'
p2261
I1
sg2095
g2096
sS'stim.thisIndex'
p2262
g32
(g67
S'\x07\x00\x00\x00'
p2263
tp2264
Rp2265
sg31
g41
sS'block.thisN'
p2266
I1
sS'stim.thisN'
p2267
I7
sg2103
g2104
sg2105
g2106
sg21
g22
sg23
I2
sS'trials.thisIndex'
p2268
g2110
sS'stim.thisRepN'
p2269
I0
sg25
g30
sg2112
g774
sS'trials.thisRepN'
p2270
I1
sS'trials.thisN'
p2271
I1
sg2115
g32
(g87
S'\x08\x00\x00\x00\x00\x00\x00\x00'
p2272
tp2273
Rp2274
sg24
g11
sS'trials.thisTrialN'
p2275
I0
sS'block.thisIndex'
p2276
g1699
sg2121
g32
(g87
S'\x06\x00\x00\x00\x00\x00\x00\x00'
p2277
tp2278
Rp2279
sa(dp2280
S'block.thisTrialN'
p2281
I0
sS'stim.thisTrialN'
p2282
I8
sS'block.thisRepN'
p2283
I1
sg2095
g2096
sS'stim.thisIndex'
p2284
g32
(g67
S'\x08\x00\x00\x00'
p2285
tp2286
Rp2287
sg31
g41
sS'block.thisN'
p2288
I1
sS'stim.thisN'
p2289
I8
sg2103
g2104
sg2105
Vtarget
p2290
sg21
g22
sg23
I2
sS'trials.thisIndex'
p2291
g2110
sS'stim.thisRepN'
p2292
I0
sg25
g30
sg2112
g82
sS'trials.thisRepN'
p2293
I1
sS'trials.thisN'
p2294
I1
sg2115
g32
(g87
S'\t\x00\x00\x00\x00\x00\x00\x00'
p2295
tp2296
Rp2297
sg24
g11
sS'trials.thisTrialN'
p2298
I0
sS'block.thisIndex'
p2299
g1699
sg2121
g32
(g87
S'\x06\x00\x00\x00\x00\x00\x00\x00'
p2300
tp2301
Rp2302
sa(dp2303
S'block.thisTrialN'
p2304
I0
sS'stim.thisTrialN'
p2305
I9
sS'block.thisRepN'
p2306
I1
sg2095
g2096
sS'stim.thisIndex'
p2307
g32
(g67
S'\t\x00\x00\x00'
p2308
tp2309
Rp2310
sg31
g41
sS'block.thisN'
p2311
I1
sS'stim.thisN'
p2312
I9
sg2103
g2104
sg2105
g2106
sg21
g22
sg23
I2
sS'trials.thisIndex'
p2313
g2110
sS'stim.thisRepN'
p2314
I0
sg25
g30
sg2112
g1021
sS'trials.thisRepN'
p2315
I1
sS'trials.thisN'
p2316
I1
sg2115
g32
(g87
S'\n\x00\x00\x00\x00\x00\x00\x00'
p2317
tp2318
Rp2319
sg24
g11
sS'trials.thisTrialN'
p2320
I0
sS'block.thisIndex'
p2321
g1699
sg2121
g32
(g87
S'\x06\x00\x00\x00\x00\x00\x00\x00'
p2322
tp2323
Rp2324
sa(dp2325
S'block.thisTrialN'
p2326
I0
sS'stim.thisTrialN'
p2327
I10
sS'block.thisRepN'
p2328
I1
sg2095
g2096
sS'stim.thisIndex'
p2329
g32
(g67
S'\n\x00\x00\x00'
p2330
tp2331
Rp2332
sg31
g41
sS'block.thisN'
p2333
I1
sS'stim.thisN'
p2334
I10
sg2103
g2104
sg2105
g2106
sg21
g22
sg23
I2
sS'trials.thisIndex'
p2335
g2110
sS'stim.thisRepN'
p2336
I0
sg25
g30
sg2112
g1021
sS'trials.thisRepN'
p2337
I1
sS'trials.thisN'
p2338
I1
sg2115
g32
(g87
S'\x0b\x00\x00\x00\x00\x00\x00\x00'
p2339
tp2340
Rp2341
sg24
g11
sS'trials.thisTrialN'
p2342
I0
sS'block.thisIndex'
p2343
g1699
sg2121
g32
(g87
S'\x06\x00\x00\x00\x00\x00\x00\x00'
p2344
tp2345
Rp2346
sa(dp2347
S'block.thisTrialN'
p2348
I0
sS'stim.thisTrialN'
p2349
I11
sS'block.thisRepN'
p2350
I1
sg2095
g2096
sS'stim.thisIndex'
p2351
g32
(g67
S'\x0b\x00\x00\x00'
p2352
tp2353
Rp2354
sg31
g41
sS'block.thisN'
p2355
I1
sS'stim.thisN'
p2356
I11
sg2103
g2104
sg2105
g2106
sg21
g22
sg23
I2
sS'trials.thisIndex'
p2357
g2110
sS'stim.thisRepN'
p2358
I0
sg25
g30
sg2112
g183
sS'trials.thisRepN'
p2359
I1
sS'trials.thisN'
p2360
I1
sg2115
g32
(g87
S'\x0c\x00\x00\x00\x00\x00\x00\x00'
p2361
tp2362
Rp2363
sg24
g11
sS'trials.thisTrialN'
p2364
I0
sS'block.thisIndex'
p2365
g1699
sg2121
g32
(g87
S'\x06\x00\x00\x00\x00\x00\x00\x00'
p2366
tp2367
Rp2368
sa(dp2369
S'block.thisTrialN'
p2370
I0
sS'stim.thisTrialN'
p2371
I12
sS'block.thisRepN'
p2372
I1
sg2095
g2096
sS'stim.thisIndex'
p2373
g32
(g67
S'\x0c\x00\x00\x00'
p2374
tp2375
Rp2376
sg31
g41
sS'block.thisN'
p2377
I1
sS'stim.thisN'
p2378
I12
sg2103
g2104
sg2105
g2106
sg21
g22
sg23
I2
sS'trials.thisIndex'
p2379
g2110
sS'stim.thisRepN'
p2380
I0
sg25
g30
sg2112
g343
sS'trials.thisRepN'
p2381
I1
sS'trials.thisN'
p2382
I1
sg2115
g32
(g87
S'\r\x00\x00\x00\x00\x00\x00\x00'
p2383
tp2384
Rp2385
sg24
g11
sS'trials.thisTrialN'
p2386
I0
sS'block.thisIndex'
p2387
g1699
sg2121
g32
(g87
S'\x06\x00\x00\x00\x00\x00\x00\x00'
p2388
tp2389
Rp2390
sa(dp2391
S'block.thisTrialN'
p2392
I0
sS'stim.thisTrialN'
p2393
I13
sS'block.thisRepN'
p2394
I1
sg2095
g2096
sS'stim.thisIndex'
p2395
g32
(g67
S'\r\x00\x00\x00'
p2396
tp2397
Rp2398
sg31
g41
sS'block.thisN'
p2399
I1
sS'stim.thisN'
p2400
I13
sg2103
g2104
sg2105
Vmask
p2401
sg21
g22
sg23
I2
sS'trials.thisIndex'
p2402
g2110
sS'stim.thisRepN'
p2403
I0
sg25
g30
sg2112
g207
sS'trials.thisRepN'
p2404
I1
sS'trials.thisN'
p2405
I1
sg2115
g32
(g87
S'\x0e\x00\x00\x00\x00\x00\x00\x00'
p2406
tp2407
Rp2408
sg24
g11
sS'trials.thisTrialN'
p2409
I0
sS'block.thisIndex'
p2410
g1699
sg2121
g32
(g87
S'\x06\x00\x00\x00\x00\x00\x00\x00'
p2411
tp2412
Rp2413
sa(dp2414
S'block.thisTrialN'
p2415
I0
sS'stim.thisTrialN'
p2416
I14
sS'block.thisRepN'
p2417
I1
sg2095
g2096
sS'stim.thisIndex'
p2418
g32
(g67
S'\x0e\x00\x00\x00'
p2419
tp2420
Rp2421
sg31
g41
sS'block.thisN'
p2422
I1
sS'stim.thisN'
p2423
I14
sg2103
g2104
sg2105
g2106
sg21
g22
sg23
I2
sS'trials.thisIndex'
p2424
g2110
sS'stim.thisRepN'
p2425
I0
sg25
g30
sg2112
g683
sS'trials.thisRepN'
p2426
I1
sS'trials.thisN'
p2427
I1
sg2115
g32
(g87
S'\x0f\x00\x00\x00\x00\x00\x00\x00'
p2428
tp2429
Rp2430
sg24
g11
sS'trials.thisTrialN'
p2431
I0
sS'block.thisIndex'
p2432
g1699
sg2121
g32
(g87
S'\x06\x00\x00\x00\x00\x00\x00\x00'
p2433
tp2434
Rp2435
sa(dp2436
S'block.thisTrialN'
p2437
I0
sS'stim.thisTrialN'
p2438
I15
sS'block.thisRepN'
p2439
I1
sg2095
g2096
sS'stim.thisIndex'
p2440
g32
(g67
S'\x0f\x00\x00\x00'
p2441
tp2442
Rp2443
sg31
g41
sS'block.thisN'
p2444
I1
sS'stim.thisN'
p2445
I15
sg2103
g2104
sg2105
g2106
sg21
g22
sg23
I2
sS'trials.thisIndex'
p2446
g2110
sS'stim.thisRepN'
p2447
I0
sg25
g30
sg2112
g412
sS'trials.thisRepN'
p2448
I1
sS'trials.thisN'
p2449
I1
sg2115
g32
(g87
S'\x10\x00\x00\x00\x00\x00\x00\x00'
p2450
tp2451
Rp2452
sg24
g11
sS'trials.thisTrialN'
p2453
I0
sS'block.thisIndex'
p2454
g1699
sg2121
g32
(g87
S'\x06\x00\x00\x00\x00\x00\x00\x00'
p2455
tp2456
Rp2457
sa(dp2458
S'block.thisTrialN'
p2459
I0
sS'stim.thisTrialN'
p2460
I16
sS'block.thisRepN'
p2461
I1
sg2095
g2096
sS'stim.thisIndex'
p2462
g32
(g67
S'\x10\x00\x00\x00'
p2463
tp2464
Rp2465
sg31
g41
sS'block.thisN'
p2466
I1
sS'stim.thisN'
p2467
I16
sg2103
g2104
sg2105
g2106
sg21
g22
sg23
I2
sS'trials.thisIndex'
p2468
g2110
sS'stim.thisRepN'
p2469
I0
sg25
g30
sg2112
g1398
sS'trials.thisRepN'
p2470
I1
sS'trials.thisN'
p2471
I1
sg2115
g32
(g87
S'\x11\x00\x00\x00\x00\x00\x00\x00'
p2472
tp2473
Rp2474
sg24
g11
sS'trials.thisTrialN'
p2475
I0
sS'block.thisIndex'
p2476
g1699
sg2121
g32
(g87
S'\x06\x00\x00\x00\x00\x00\x00\x00'
p2477
tp2478
Rp2479
sa(dp2480
S'block.thisTrialN'
p2481
I0
sS'block.thisRepN'
p2482
I1
sg16
g1279
sS'trials.thisRepN'
p2483
I1
sg15
F0.7686971000002814
sg25
g30
sS'block.thisN'
p2484
I1
sg31
g41
sS'trials.thisN'
p2485
I1
sg14
g1279
sg24
g11
sS'trials.thisTrialN'
p2486
I0
sS'trials.thisIndex'
p2487
g2110
sg21
g22
sg23
I2
sS'block.thisIndex'
p2488
g1699
sg17
F0.19647970000005444
sa(dp2489
S'block.thisTrialN'
p2490
I0
sS'stim.thisTrialN'
p2491
I0
sS'block.thisRepN'
p2492
I1
sS'Tx'
p2493
Vt1
p2494
sS'stim.thisIndex'
p2495
g32
(g67
S'\x00\x00\x00\x00'
p2496
tp2497
Rp2498
sg31
g41
sS'block.thisN'
p2499
I1
sS'stim.thisN'
p2500
I0
sS'sep_dur'
p2501
Vshort
p2502
sS'cond'
p2503
Vdistractor
p2504
sg21
g22
sg23
I2
sS'trials.thisIndex'
p2505
g32
(g67
S'\x00\x00\x00\x00'
p2506
tp2507
Rp2508
sS'stim.thisRepN'
p2509
I0
sg25
g30
sS'stimulus'
p2510
g412
sS'trials.thisRepN'
p2511
I2
sS'trials.thisN'
p2512
I2
sS'trial'
p2513
g32
(g87
S'\x01\x00\x00\x00\x00\x00\x00\x00'
p2514
tp2515
Rp2516
sg24
g11
sS'trials.thisTrialN'
p2517
I0
sS'block.thisIndex'
p2518
g1699
sS'block'
p2519
g32
(g87
S'\x07\x00\x00\x00\x00\x00\x00\x00'
p2520
tp2521
Rp2522
sa(dp2523
S'block.thisTrialN'
p2524
I0
sS'stim.thisTrialN'
p2525
I1
sS'block.thisRepN'
p2526
I1
sg2493
g2494
sS'stim.thisIndex'
p2527
g32
(g67
S'\x01\x00\x00\x00'
p2528
tp2529
Rp2530
sg31
g41
sS'block.thisN'
p2531
I1
sS'stim.thisN'
p2532
I1
sg2501
g2502
sg2503
g2504
sg21
g22
sg23
I2
sS'trials.thisIndex'
p2533
g2508
sS'stim.thisRepN'
p2534
I0
sg25
g30
sg2510
g343
sS'trials.thisRepN'
p2535
I2
sS'trials.thisN'
p2536
I2
sg2513
g32
(g87
S'\x02\x00\x00\x00\x00\x00\x00\x00'
p2537
tp2538
Rp2539
sg24
g11
sS'trials.thisTrialN'
p2540
I0
sS'block.thisIndex'
p2541
g1699
sg2519
g32
(g87
S'\x07\x00\x00\x00\x00\x00\x00\x00'
p2542
tp2543
Rp2544
sa(dp2545
S'block.thisTrialN'
p2546
I0
sS'stim.thisTrialN'
p2547
I2
sS'block.thisRepN'
p2548
I1
sg2493
g2494
sS'stim.thisIndex'
p2549
g32
(g67
S'\x02\x00\x00\x00'
p2550
tp2551
Rp2552
sg31
g41
sS'block.thisN'
p2553
I1
sS'stim.thisN'
p2554
I2
sg2501
g2502
sg2503
g2504
sg21
g22
sg23
I2
sS'trials.thisIndex'
p2555
g2508
sS'stim.thisRepN'
p2556
I0
sg25
g30
sg2510
g929
sS'trials.thisRepN'
p2557
I2
sS'trials.thisN'
p2558
I2
sg2513
g32
(g87
S'\x03\x00\x00\x00\x00\x00\x00\x00'
p2559
tp2560
Rp2561
sg24
g11
sS'trials.thisTrialN'
p2562
I0
sS'block.thisIndex'
p2563
g1699
sg2519
g32
(g87
S'\x07\x00\x00\x00\x00\x00\x00\x00'
p2564
tp2565
Rp2566
sa(dp2567
S'block.thisTrialN'
p2568
I0
sS'stim.thisTrialN'
p2569
I3
sS'block.thisRepN'
p2570
I1
sg2493
g2494
sS'stim.thisIndex'
p2571
g32
(g67
S'\x03\x00\x00\x00'
p2572
tp2573
Rp2574
sg31
g41
sS'block.thisN'
p2575
I1
sS'stim.thisN'
p2576
I3
sg2501
g2502
sg2503
g2504
sg21
g22
sg23
I2
sS'trials.thisIndex'
p2577
g2508
sS'stim.thisRepN'
p2578
I0
sg25
g30
sg2510
g160
sS'trials.thisRepN'
p2579
I2
sS'trials.thisN'
p2580
I2
sg2513
g32
(g87
S'\x04\x00\x00\x00\x00\x00\x00\x00'
p2581
tp2582
Rp2583
sg24
g11
sS'trials.thisTrialN'
p2584
I0
sS'block.thisIndex'
p2585
g1699
sg2519
g32
(g87
S'\x07\x00\x00\x00\x00\x00\x00\x00'
p2586
tp2587
Rp2588
sa(dp2589
S'block.thisTrialN'
p2590
I0
sS'stim.thisTrialN'
p2591
I4
sS'block.thisRepN'
p2592
I1
sg2493
g2494
sS'stim.thisIndex'
p2593
g32
(g67
S'\x04\x00\x00\x00'
p2594
tp2595
Rp2596
sg31
g41
sS'block.thisN'
p2597
I1
sS'stim.thisN'
p2598
I4
sg2501
g2502
sg2503
g2504
sg21
g22
sg23
I2
sS'trials.thisIndex'
p2599
g2508
sS'stim.thisRepN'
p2600
I0
sg25
g30
sg2510
g389
sS'trials.thisRepN'
p2601
I2
sS'trials.thisN'
p2602
I2
sg2513
g32
(g87
S'\x05\x00\x00\x00\x00\x00\x00\x00'
p2603
tp2604
Rp2605
sg24
g11
sS'trials.thisTrialN'
p2606
I0
sS'block.thisIndex'
p2607
g1699
sg2519
g32
(g87
S'\x07\x00\x00\x00\x00\x00\x00\x00'
p2608
tp2609
Rp2610
sa(dp2611
S'block.thisTrialN'
p2612
I0
sS'stim.thisTrialN'
p2613
I5
sS'block.thisRepN'
p2614
I1
sg2493
g2494
sS'stim.thisIndex'
p2615
g32
(g67
S'\x05\x00\x00\x00'
p2616
tp2617
Rp2618
sg31
g41
sS'block.thisN'
p2619
I1
sS'stim.thisN'
p2620
I5
sg2501
g2502
sg2503
g2504
sg21
g22
sg23
I2
sS'trials.thisIndex'
p2621
g2508
sS'stim.thisRepN'
p2622
I0
sg25
g30
sg2510
g2203
sS'trials.thisRepN'
p2623
I2
sS'trials.thisN'
p2624
I2
sg2513
g32
(g87
S'\x06\x00\x00\x00\x00\x00\x00\x00'
p2625
tp2626
Rp2627
sg24
g11
sS'trials.thisTrialN'
p2628
I0
sS'block.thisIndex'
p2629
g1699
sg2519
g32
(g87
S'\x07\x00\x00\x00\x00\x00\x00\x00'
p2630
tp2631
Rp2632
sa(dp2633
S'block.thisTrialN'
p2634
I0
sS'stim.thisTrialN'
p2635
I6
sS'block.thisRepN'
p2636
I1
sg2493
g2494
sS'stim.thisIndex'
p2637
g32
(g67
S'\x06\x00\x00\x00'
p2638
tp2639
Rp2640
sg31
g41
sS'block.thisN'
p2641
I1
sS'stim.thisN'
p2642
I6
sg2501
g2502
sg2503
g2504
sg21
g22
sg23
I2
sS'trials.thisIndex'
p2643
g2508
sS'stim.thisRepN'
p2644
I0
sg25
g30
sg2510
g253
sS'trials.thisRepN'
p2645
I2
sS'trials.thisN'
p2646
I2
sg2513
g32
(g87
S'\x07\x00\x00\x00\x00\x00\x00\x00'
p2647
tp2648
Rp2649
sg24
g11
sS'trials.thisTrialN'
p2650
I0
sS'block.thisIndex'
p2651
g1699
sg2519
g32
(g87
S'\x07\x00\x00\x00\x00\x00\x00\x00'
p2652
tp2653
Rp2654
sa(dp2655
S'block.thisTrialN'
p2656
I0
sS'stim.thisTrialN'
p2657
I7
sS'block.thisRepN'
p2658
I1
sg2493
g2494
sS'stim.thisIndex'
p2659
g32
(g67
S'\x07\x00\x00\x00'
p2660
tp2661
Rp2662
sg31
g41
sS'block.thisN'
p2663
I1
sS'stim.thisN'
p2664
I7
sg2501
g2502
sg2503
g2504
sg21
g22
sg23
I2
sS'trials.thisIndex'
p2665
g2508
sS'stim.thisRepN'
p2666
I0
sg25
g30
sg2510
g366
sS'trials.thisRepN'
p2667
I2
sS'trials.thisN'
p2668
I2
sg2513
g32
(g87
S'\x08\x00\x00\x00\x00\x00\x00\x00'
p2669
tp2670
Rp2671
sg24
g11
sS'trials.thisTrialN'
p2672
I0
sS'block.thisIndex'
p2673
g1699
sg2519
g32
(g87
S'\x07\x00\x00\x00\x00\x00\x00\x00'
p2674
tp2675
Rp2676
sa(dp2677
S'block.thisTrialN'
p2678
I0
sS'stim.thisTrialN'
p2679
I8
sS'block.thisRepN'
p2680
I1
sg2493
g2494
sS'stim.thisIndex'
p2681
g32
(g67
S'\x08\x00\x00\x00'
p2682
tp2683
Rp2684
sg31
g41
sS'block.thisN'
p2685
I1
sS'stim.thisN'
p2686
I8
sg2501
g2502
sg2503
g2504
sg21
g22
sg23
I2
sS'trials.thisIndex'
p2687
g2508
sS'stim.thisRepN'
p2688
I0
sg25
g30
sg2510
g1021
sS'trials.thisRepN'
p2689
I2
sS'trials.thisN'
p2690
I2
sg2513
g32
(g87
S'\t\x00\x00\x00\x00\x00\x00\x00'
p2691
tp2692
Rp2693
sg24
g11
sS'trials.thisTrialN'
p2694
I0
sS'block.thisIndex'
p2695
g1699
sg2519
g32
(g87
S'\x07\x00\x00\x00\x00\x00\x00\x00'
p2696
tp2697
Rp2698
sa(dp2699
S'block.thisTrialN'
p2700
I0
sS'stim.thisTrialN'
p2701
I9
sS'block.thisRepN'
p2702
I1
sg2493
g2494
sS'stim.thisIndex'
p2703
g32
(g67
S'\t\x00\x00\x00'
p2704
tp2705
Rp2706
sg31
g41
sS'block.thisN'
p2707
I1
sS'stim.thisN'
p2708
I9
sg2501
g2502
sg2503
Vtarget
p2709
sg21
g22
sg23
I2
sS'trials.thisIndex'
p2710
g2508
sS'stim.thisRepN'
p2711
I0
sg25
g30
sg2510
V8
p2712
sS'trials.thisRepN'
p2713
I2
sS'trials.thisN'
p2714
I2
sg2513
g32
(g87
S'\n\x00\x00\x00\x00\x00\x00\x00'
p2715
tp2716
Rp2717
sg24
g11
sS'trials.thisTrialN'
p2718
I0
sS'block.thisIndex'
p2719
g1699
sg2519
g32
(g87
S'\x07\x00\x00\x00\x00\x00\x00\x00'
p2720
tp2721
Rp2722
sa(dp2723
S'block.thisTrialN'
p2724
I0
sS'stim.thisTrialN'
p2725
I10
sS'block.thisRepN'
p2726
I1
sg2493
g2494
sS'stim.thisIndex'
p2727
g32
(g67
S'\n\x00\x00\x00'
p2728
tp2729
Rp2730
sg31
g41
sS'block.thisN'
p2731
I1
sS'stim.thisN'
p2732
I10
sg2501
g2502
sg2503
g2504
sg21
g22
sg23
I2
sS'trials.thisIndex'
p2733
g2508
sS'stim.thisRepN'
p2734
I0
sg25
g30
sg2510
g343
sS'trials.thisRepN'
p2735
I2
sS'trials.thisN'
p2736
I2
sg2513
g32
(g87
S'\x0b\x00\x00\x00\x00\x00\x00\x00'
p2737
tp2738
Rp2739
sg24
g11
sS'trials.thisTrialN'
p2740
I0
sS'block.thisIndex'
p2741
g1699
sg2519
g32
(g87
S'\x07\x00\x00\x00\x00\x00\x00\x00'
p2742
tp2743
Rp2744
sa(dp2745
S'block.thisTrialN'
p2746
I0
sS'stim.thisTrialN'
p2747
I11
sS'block.thisRepN'
p2748
I1
sg2493
g2494
sS'stim.thisIndex'
p2749
g32
(g67
S'\x0b\x00\x00\x00'
p2750
tp2751
Rp2752
sg31
g41
sS'block.thisN'
p2753
I1
sS'stim.thisN'
p2754
I11
sg2501
g2502
sg2503
g2504
sg21
g22
sg23
I2
sS'trials.thisIndex'
p2755
g2508
sS'stim.thisRepN'
p2756
I0
sg25
g30
sg2510
g974
sS'trials.thisRepN'
p2757
I2
sS'trials.thisN'
p2758
I2
sg2513
g32
(g87
S'\x0c\x00\x00\x00\x00\x00\x00\x00'
p2759
tp2760
Rp2761
sg24
g11
sS'trials.thisTrialN'
p2762
I0
sS'block.thisIndex'
p2763
g1699
sg2519
g32
(g87
S'\x07\x00\x00\x00\x00\x00\x00\x00'
p2764
tp2765
Rp2766
sa(dp2767
S'block.thisTrialN'
p2768
I0
sS'stim.thisTrialN'
p2769
I12
sS'block.thisRepN'
p2770
I1
sg2493
g2494
sS'stim.thisIndex'
p2771
g32
(g67
S'\x0c\x00\x00\x00'
p2772
tp2773
Rp2774
sg31
g41
sS'block.thisN'
p2775
I1
sS'stim.thisN'
p2776
I12
sg2501
g2502
sg2503
g2504
sg21
g22
sg23
I2
sS'trials.thisIndex'
p2777
g2508
sS'stim.thisRepN'
p2778
I0
sg25
g30
sg2510
g683
sS'trials.thisRepN'
p2779
I2
sS'trials.thisN'
p2780
I2
sg2513
g32
(g87
S'\r\x00\x00\x00\x00\x00\x00\x00'
p2781
tp2782
Rp2783
sg24
g11
sS'trials.thisTrialN'
p2784
I0
sS'block.thisIndex'
p2785
g1699
sg2519
g32
(g87
S'\x07\x00\x00\x00\x00\x00\x00\x00'
p2786
tp2787
Rp2788
sa(dp2789
S'block.thisTrialN'
p2790
I0
sS'stim.thisTrialN'
p2791
I13
sS'block.thisRepN'
p2792
I1
sg2493
g2494
sS'stim.thisIndex'
p2793
g32
(g67
S'\r\x00\x00\x00'
p2794
tp2795
Rp2796
sg31
g41
sS'block.thisN'
p2797
I1
sS'stim.thisN'
p2798
I13
sg2501
g2502
sg2503
g2504
sg21
g22
sg23
I2
sS'trials.thisIndex'
p2799
g2508
sS'stim.thisRepN'
p2800
I0
sg25
g30
sg2510
g974
sS'trials.thisRepN'
p2801
I2
sS'trials.thisN'
p2802
I2
sg2513
g32
(g87
S'\x0e\x00\x00\x00\x00\x00\x00\x00'
p2803
tp2804
Rp2805
sg24
g11
sS'trials.thisTrialN'
p2806
I0
sS'block.thisIndex'
p2807
g1699
sg2519
g32
(g87
S'\x07\x00\x00\x00\x00\x00\x00\x00'
p2808
tp2809
Rp2810
sa(dp2811
S'block.thisTrialN'
p2812
I0
sS'stim.thisTrialN'
p2813
I14
sS'block.thisRepN'
p2814
I1
sg2493
g2494
sS'stim.thisIndex'
p2815
g32
(g67
S'\x0e\x00\x00\x00'
p2816
tp2817
Rp2818
sg31
g41
sS'block.thisN'
p2819
I1
sS'stim.thisN'
p2820
I14
sg2501
g2502
sg2503
Vmask
p2821
sg21
g22
sg23
I2
sS'trials.thisIndex'
p2822
g2508
sS'stim.thisRepN'
p2823
I0
sg25
g30
sg2510
g207
sS'trials.thisRepN'
p2824
I2
sS'trials.thisN'
p2825
I2
sg2513
g32
(g87
S'\x0f\x00\x00\x00\x00\x00\x00\x00'
p2826
tp2827
Rp2828
sg24
g11
sS'trials.thisTrialN'
p2829
I0
sS'block.thisIndex'
p2830
g1699
sg2519
g32
(g87
S'\x07\x00\x00\x00\x00\x00\x00\x00'
p2831
tp2832
Rp2833
sa(dp2834
S'block.thisTrialN'
p2835
I0
sS'stim.thisTrialN'
p2836
I15
sS'block.thisRepN'
p2837
I1
sg2493
g2494
sS'stim.thisIndex'
p2838
g32
(g67
S'\x0f\x00\x00\x00'
p2839
tp2840
Rp2841
sg31
g41
sS'block.thisN'
p2842
I1
sS'stim.thisN'
p2843
I15
sg2501
g2502
sg2503
g2504
sg21
g22
sg23
I2
sS'trials.thisIndex'
p2844
g2508
sS'stim.thisRepN'
p2845
I0
sg25
g30
sg2510
g435
sS'trials.thisRepN'
p2846
I2
sS'trials.thisN'
p2847
I2
sg2513
g32
(g87
S'\x10\x00\x00\x00\x00\x00\x00\x00'
p2848
tp2849
Rp2850
sg24
g11
sS'trials.thisTrialN'
p2851
I0
sS'block.thisIndex'
p2852
g1699
sg2519
g32
(g87
S'\x07\x00\x00\x00\x00\x00\x00\x00'
p2853
tp2854
Rp2855
sa(dp2856
S'block.thisTrialN'
p2857
I0
sS'stim.thisTrialN'
p2858
I16
sS'block.thisRepN'
p2859
I1
sg2493
g2494
sS'stim.thisIndex'
p2860
g32
(g67
S'\x10\x00\x00\x00'
p2861
tp2862
Rp2863
sg31
g41
sS'block.thisN'
p2864
I1
sS'stim.thisN'
p2865
I16
sg2501
g2502
sg2503
g2504
sg21
g22
sg23
I2
sS'trials.thisIndex'
p2866
g2508
sS'stim.thisRepN'
p2867
I0
sg25
g30
sg2510
g478
sS'trials.thisRepN'
p2868
I2
sS'trials.thisN'
p2869
I2
sg2513
g32
(g87
S'\x11\x00\x00\x00\x00\x00\x00\x00'
p2870
tp2871
Rp2872
sg24
g11
sS'trials.thisTrialN'
p2873
I0
sS'block.thisIndex'
p2874
g1699
sg2519
g32
(g87
S'\x07\x00\x00\x00\x00\x00\x00\x00'
p2875
tp2876
Rp2877
sa(dp2878
S'block.thisTrialN'
p2879
I0
sS'stim.thisTrialN'
p2880
I17
sS'block.thisRepN'
p2881
I1
sg2493
g2494
sS'stim.thisIndex'
p2882
g32
(g67
S'\x11\x00\x00\x00'
p2883
tp2884
Rp2885
sg31
g41
sS'block.thisN'
p2886
I1
sS'stim.thisN'
p2887
I17
sg2501
g2502
sg2503
g2504
sg21
g22
sg23
I2
sS'trials.thisIndex'
p2888
g2508
sS'stim.thisRepN'
p2889
I0
sg25
g30
sg2510
g548
sS'trials.thisRepN'
p2890
I2
sS'trials.thisN'
p2891
I2
sg2513
g32
(g87
S'\x12\x00\x00\x00\x00\x00\x00\x00'
p2892
tp2893
Rp2894
sg24
g11
sS'trials.thisTrialN'
p2895
I0
sS'block.thisIndex'
p2896
g1699
sg2519
g32
(g87
S'\x07\x00\x00\x00\x00\x00\x00\x00'
p2897
tp2898
Rp2899
sa(dp2900
S'block.thisTrialN'
p2901
I0
sS'block.thisRepN'
p2902
I1
sg16
g1279
sS'trials.thisRepN'
p2903
I2
sg15
F0.39945389999957115
sg25
g30
sS'block.thisN'
p2904
I1
sg31
g41
sS'trials.thisN'
p2905
I2
sg14
g1279
sg24
g11
sS'trials.thisTrialN'
p2906
I0
sS'trials.thisIndex'
p2907
g2508
sg21
g22
sg23
I2
sS'block.thisIndex'
p2908
g1699
sg17
F0.1445573000000877
sa(dp2909
S'block.thisTrialN'
p2910
I0
sS'stim.thisTrialN'
p2911
I0
sS'block.thisRepN'
p2912
I1
sS'Tx'
p2913
Vt2
p2914
sS'stim.thisIndex'
p2915
g32
(g67
S'\x00\x00\x00\x00'
p2916
tp2917
Rp2918
sg31
g41
sS'block.thisN'
p2919
I1
sS'stim.thisN'
p2920
I0
sS'sep_dur'
p2921
Vlong
p2922
sS'cond'
p2923
Vdistractor
p2924
sg21
g22
sg23
I2
sS'trials.thisIndex'
p2925
g32
(g67
S'\x00\x00\x00\x00'
p2926
tp2927
Rp2928
sS'stim.thisRepN'
p2929
I0
sg25
g30
sS'stimulus'
p2930
g1021
sS'trials.thisRepN'
p2931
I3
sS'trials.thisN'
p2932
I3
sS'trial'
p2933
g32
(g87
S'\x01\x00\x00\x00\x00\x00\x00\x00'
p2934
tp2935
Rp2936
sg24
g11
sS'trials.thisTrialN'
p2937
I0
sS'block.thisIndex'
p2938
g1699
sS'block'
p2939
g32
(g87
S'\x08\x00\x00\x00\x00\x00\x00\x00'
p2940
tp2941
Rp2942
sa(dp2943
S'block.thisTrialN'
p2944
I0
sS'stim.thisTrialN'
p2945
I1
sS'block.thisRepN'
p2946
I1
sg2913
g2914
sS'stim.thisIndex'
p2947
g32
(g67
S'\x01\x00\x00\x00'
p2948
tp2949
Rp2950
sg31
g41
sS'block.thisN'
p2951
I1
sS'stim.thisN'
p2952
I1
sg2921
g2922
sg2923
g2924
sg21
g22
sg23
I2
sS'trials.thisIndex'
p2953
g2928
sS'stim.thisRepN'
p2954
I0
sg25
g30
sg2930
g183
sS'trials.thisRepN'
p2955
I3
sS'trials.thisN'
p2956
I3
sg2933
g32
(g87
S'\x02\x00\x00\x00\x00\x00\x00\x00'
p2957
tp2958
Rp2959
sg24
g11
sS'trials.thisTrialN'
p2960
I0
sS'block.thisIndex'
p2961
g1699
sg2939
g32
(g87
S'\x08\x00\x00\x00\x00\x00\x00\x00'
p2962
tp2963
Rp2964
sa(dp2965
S'block.thisTrialN'
p2966
I0
sS'stim.thisTrialN'
p2967
I2
sS'block.thisRepN'
p2968
I1
sg2913
g2914
sS'stim.thisIndex'
p2969
g32
(g67
S'\x02\x00\x00\x00'
p2970
tp2971
Rp2972
sg31
g41
sS'block.thisN'
p2973
I1
sS'stim.thisN'
p2974
I2
sg2921
g2922
sg2923
g2924
sg21
g22
sg23
I2
sS'trials.thisIndex'
p2975
g2928
sS'stim.thisRepN'
p2976
I0
sg25
g30
sg2930
g230
sS'trials.thisRepN'
p2977
I3
sS'trials.thisN'
p2978
I3
sg2933
g32
(g87
S'\x03\x00\x00\x00\x00\x00\x00\x00'
p2979
tp2980
Rp2981
sg24
g11
sS'trials.thisTrialN'
p2982
I0
sS'block.thisIndex'
p2983
g1699
sg2939
g32
(g87
S'\x08\x00\x00\x00\x00\x00\x00\x00'
p2984
tp2985
Rp2986
sa(dp2987
S'block.thisTrialN'
p2988
I0
sS'stim.thisTrialN'
p2989
I3
sS'block.thisRepN'
p2990
I1
sg2913
g2914
sS'stim.thisIndex'
p2991
g32
(g67
S'\x03\x00\x00\x00'
p2992
tp2993
Rp2994
sg31
g41
sS'block.thisN'
p2995
I1
sS'stim.thisN'
p2996
I3
sg2921
g2922
sg2923
Vtarget
p2997
sg21
g22
sg23
I2
sS'trials.thisIndex'
p2998
g2928
sS'stim.thisRepN'
p2999
I0
sg25
g30
sg2930
V2
p3000
sS'trials.thisRepN'
p3001
I3
sS'trials.thisN'
p3002
I3
sg2933
g32
(g87
S'\x04\x00\x00\x00\x00\x00\x00\x00'
p3003
tp3004
Rp3005
sg24
g11
sS'trials.thisTrialN'
p3006
I0
sS'block.thisIndex'
p3007
g1699
sg2939
g32
(g87
S'\x08\x00\x00\x00\x00\x00\x00\x00'
p3008
tp3009
Rp3010
sa(dp3011
S'block.thisTrialN'
p3012
I0
sS'stim.thisTrialN'
p3013
I4
sS'block.thisRepN'
p3014
I1
sg2913
g2914
sS'stim.thisIndex'
p3015
g32
(g67
S'\x04\x00\x00\x00'
p3016
tp3017
Rp3018
sg31
g41
sS'block.thisN'
p3019
I1
sS'stim.thisN'
p3020
I4
sg2921
g2922
sg2923
g2924
sg21
g22
sg23
I2
sS'trials.thisIndex'
p3021
g2928
sS'stim.thisRepN'
p3022
I0
sg25
g30
sg2930
g548
sS'trials.thisRepN'
p3023
I3
sS'trials.thisN'
p3024
I3
sg2933
g32
(g87
S'\x05\x00\x00\x00\x00\x00\x00\x00'
p3025
tp3026
Rp3027
sg24
g11
sS'trials.thisTrialN'
p3028
I0
sS'block.thisIndex'
p3029
g1699
sg2939
g32
(g87
S'\x08\x00\x00\x00\x00\x00\x00\x00'
p3030
tp3031
Rp3032
sa(dp3033
S'block.thisTrialN'
p3034
I0
sS'stim.thisTrialN'
p3035
I5
sS'block.thisRepN'
p3036
I1
sg2913
g2914
sS'stim.thisIndex'
p3037
g32
(g67
S'\x05\x00\x00\x00'
p3038
tp3039
Rp3040
sg31
g41
sS'block.thisN'
p3041
I1
sS'stim.thisN'
p3042
I5
sg2921
g2922
sg2923
g2924
sg21
g22
sg23
I2
sS'trials.thisIndex'
p3043
g2928
sS'stim.thisRepN'
p3044
I0
sg25
g30
sg2930
g929
sS'trials.thisRepN'
p3045
I3
sS'trials.thisN'
p3046
I3
sg2933
g32
(g87
S'\x06\x00\x00\x00\x00\x00\x00\x00'
p3047
tp3048
Rp3049
sg24
g11
sS'trials.thisTrialN'
p3050
I0
sS'block.thisIndex'
p3051
g1699
sg2939
g32
(g87
S'\x08\x00\x00\x00\x00\x00\x00\x00'
p3052
tp3053
Rp3054
sa(dp3055
S'block.thisTrialN'
p3056
I0
sS'stim.thisTrialN'
p3057
I6
sS'block.thisRepN'
p3058
I1
sg2913
g2914
sS'stim.thisIndex'
p3059
g32
(g67
S'\x06\x00\x00\x00'
p3060
tp3061
Rp3062
sg31
g41
sS'block.thisN'
p3063
I1
sS'stim.thisN'
p3064
I6
sg2921
g2922
sg2923
g2924
sg21
g22
sg23
I2
sS'trials.thisIndex'
p3065
g2928
sS'stim.thisRepN'
p3066
I0
sg25
g30
sg2930
g974
sS'trials.thisRepN'
p3067
I3
sS'trials.thisN'
p3068
I3
sg2933
g32
(g87
S'\x07\x00\x00\x00\x00\x00\x00\x00'
p3069
tp3070
Rp3071
sg24
g11
sS'trials.thisTrialN'
p3072
I0
sS'block.thisIndex'
p3073
g1699
sg2939
g32
(g87
S'\x08\x00\x00\x00\x00\x00\x00\x00'
p3074
tp3075
Rp3076
sa(dp3077
S'block.thisTrialN'
p3078
I0
sS'stim.thisTrialN'
p3079
I7
sS'block.thisRepN'
p3080
I1
sg2913
g2914
sS'stim.thisIndex'
p3081
g32
(g67
S'\x07\x00\x00\x00'
p3082
tp3083
Rp3084
sg31
g41
sS'block.thisN'
p3085
I1
sS'stim.thisN'
p3086
I7
sg2921
g2922
sg2923
g2924
sg21
g22
sg23
I2
sS'trials.thisIndex'
p3087
g2928
sS'stim.thisRepN'
p3088
I0
sg25
g30
sg2930
g525
sS'trials.thisRepN'
p3089
I3
sS'trials.thisN'
p3090
I3
sg2933
g32
(g87
S'\x08\x00\x00\x00\x00\x00\x00\x00'
p3091
tp3092
Rp3093
sg24
g11
sS'trials.thisTrialN'
p3094
I0
sS'block.thisIndex'
p3095
g1699
sg2939
g32
(g87
S'\x08\x00\x00\x00\x00\x00\x00\x00'
p3096
tp3097
Rp3098
sa(dp3099
S'block.thisTrialN'
p3100
I0
sS'stim.thisTrialN'
p3101
I8
sS'block.thisRepN'
p3102
I1
sg2913
g2914
sS'stim.thisIndex'
p3103
g32
(g67
S'\x08\x00\x00\x00'
p3104
tp3105
Rp3106
sg31
g41
sS'block.thisN'
p3107
I1
sS'stim.thisN'
p3108
I8
sg2921
g2922
sg2923
g2924
sg21
g22
sg23
I2
sS'trials.thisIndex'
p3109
g2928
sS'stim.thisRepN'
p3110
I0
sg25
g30
sg2930
g660
sS'trials.thisRepN'
p3111
I3
sS'trials.thisN'
p3112
I3
sg2933
g32
(g87
S'\t\x00\x00\x00\x00\x00\x00\x00'
p3113
tp3114
Rp3115
sg24
g11
sS'trials.thisTrialN'
p3116
I0
sS'block.thisIndex'
p3117
g1699
sg2939
g32
(g87
S'\x08\x00\x00\x00\x00\x00\x00\x00'
p3118
tp3119
Rp3120
sa(dp3121
S'block.thisTrialN'
p3122
I0
sS'stim.thisTrialN'
p3123
I9
sS'block.thisRepN'
p3124
I1
sg2913
g2914
sS'stim.thisIndex'
p3125
g32
(g67
S'\t\x00\x00\x00'
p3126
tp3127
Rp3128
sg31
g41
sS'block.thisN'
p3129
I1
sS'stim.thisN'
p3130
I9
sg2921
g2922
sg2923
g2924
sg21
g22
sg23
I2
sS'trials.thisIndex'
p3131
g2928
sS'stim.thisRepN'
p3132
I0
sg25
g30
sg2930
g729
sS'trials.thisRepN'
p3133
I3
sS'trials.thisN'
p3134
I3
sg2933
g32
(g87
S'\n\x00\x00\x00\x00\x00\x00\x00'
p3135
tp3136
Rp3137
sg24
g11
sS'trials.thisTrialN'
p3138
I0
sS'block.thisIndex'
p3139
g1699
sg2939
g32
(g87
S'\x08\x00\x00\x00\x00\x00\x00\x00'
p3140
tp3141
Rp3142
sa(dp3143
S'block.thisTrialN'
p3144
I0
sS'stim.thisTrialN'
p3145
I10
sS'block.thisRepN'
p3146
I1
sg2913
g2914
sS'stim.thisIndex'
p3147
g32
(g67
S'\n\x00\x00\x00'
p3148
tp3149
Rp3150
sg31
g41
sS'block.thisN'
p3151
I1
sS'stim.thisN'
p3152
I10
sg2921
g2922
sg2923
g2924
sg21
g22
sg23
I2
sS'trials.thisIndex'
p3153
g2928
sS'stim.thisRepN'
p3154
I0
sg25
g30
sg2930
g343
sS'trials.thisRepN'
p3155
I3
sS'trials.thisN'
p3156
I3
sg2933
g32
(g87
S'\x0b\x00\x00\x00\x00\x00\x00\x00'
p3157
tp3158
Rp3159
sg24
g11
sS'trials.thisTrialN'
p3160
I0
sS'block.thisIndex'
p3161
g1699
sg2939
g32
(g87
S'\x08\x00\x00\x00\x00\x00\x00\x00'
p3162
tp3163
Rp3164
sa(dp3165
S'block.thisTrialN'
p3166
I0
sS'stim.thisTrialN'
p3167
I11
sS'block.thisRepN'
p3168
I1
sg2913
g2914
sS'stim.thisIndex'
p3169
g32
(g67
S'\x0b\x00\x00\x00'
p3170
tp3171
Rp3172
sg31
g41
sS'block.thisN'
p3173
I1
sS'stim.thisN'
p3174
I11
sg2921
g2922
sg2923
g2924
sg21
g22
sg23
I2
sS'trials.thisIndex'
p3175
g2928
sS'stim.thisRepN'
p3176
I0
sg25
g30
sg2930
g435
sS'trials.thisRepN'
p3177
I3
sS'trials.thisN'
p3178
I3
sg2933
g32
(g87
S'\x0c\x00\x00\x00\x00\x00\x00\x00'
p3179
tp3180
Rp3181
sg24
g11
sS'trials.thisTrialN'
p3182
I0
sS'block.thisIndex'
p3183
g1699
sg2939
g32
(g87
S'\x08\x00\x00\x00\x00\x00\x00\x00'
p3184
tp3185
Rp3186
sa(dp3187
S'block.thisTrialN'
p3188
I0
sS'stim.thisTrialN'
p3189
I12
sS'block.thisRepN'
p3190
I1
sg2913
g2914
sS'stim.thisIndex'
p3191
g32
(g67
S'\x0c\x00\x00\x00'
p3192
tp3193
Rp3194
sg31
g41
sS'block.thisN'
p3195
I1
sS'stim.thisN'
p3196
I12
sg2921
g2922
sg2923
g2997
sg21
g22
sg23
I2
sS'trials.thisIndex'
p3197
g2928
sS'stim.thisRepN'
p3198
I0
sg25
g30
sg2930
g2712
sS'trials.thisRepN'
p3199
I3
sS'trials.thisN'
p3200
I3
sg2933
g32
(g87
S'\r\x00\x00\x00\x00\x00\x00\x00'
p3201
tp3202
Rp3203
sg24
g11
sS'trials.thisTrialN'
p3204
I0
sS'block.thisIndex'
p3205
g1699
sg2939
g32
(g87
S'\x08\x00\x00\x00\x00\x00\x00\x00'
p3206
tp3207
Rp3208
sa(dp3209
S'block.thisTrialN'
p3210
I0
sS'stim.thisTrialN'
p3211
I13
sS'block.thisRepN'
p3212
I1
sg2913
g2914
sS'stim.thisIndex'
p3213
g32
(g67
S'\r\x00\x00\x00'
p3214
tp3215
Rp3216
sg31
g41
sS'block.thisN'
p3217
I1
sS'stim.thisN'
p3218
I13
sg2921
g2922
sg2923
g2924
sg21
g22
sg23
I2
sS'trials.thisIndex'
p3219
g2928
sS'stim.thisRepN'
p3220
I0
sg25
g30
sg2930
g389
sS'trials.thisRepN'
p3221
I3
sS'trials.thisN'
p3222
I3
sg2933
g32
(g87
S'\x0e\x00\x00\x00\x00\x00\x00\x00'
p3223
tp3224
Rp3225
sg24
g11
sS'trials.thisTrialN'
p3226
I0
sS'block.thisIndex'
p3227
g1699
sg2939
g32
(g87
S'\x08\x00\x00\x00\x00\x00\x00\x00'
p3228
tp3229
Rp3230
sa(dp3231
S'block.thisTrialN'
p3232
I0
sS'stim.thisTrialN'
p3233
I14
sS'block.thisRepN'
p3234
I1
sg2913
g2914
sS'stim.thisIndex'
p3235
g32
(g67
S'\x0e\x00\x00\x00'
p3236
tp3237
Rp3238
sg31
g41
sS'block.thisN'
p3239
I1
sS'stim.thisN'
p3240
I14
sg2921
g2922
sg2923
Vmask
p3241
sg21
g22
sg23
I2
sS'trials.thisIndex'
p3242
g2928
sS'stim.thisRepN'
p3243
I0
sg25
g30
sg2930
g207
sS'trials.thisRepN'
p3244
I3
sS'trials.thisN'
p3245
I3
sg2933
g32
(g87
S'\x0f\x00\x00\x00\x00\x00\x00\x00'
p3246
tp3247
Rp3248
sg24
g11
sS'trials.thisTrialN'
p3249
I0
sS'block.thisIndex'
p3250
g1699
sg2939
g32
(g87
S'\x08\x00\x00\x00\x00\x00\x00\x00'
p3251
tp3252
Rp3253
sa(dp3254
S'block.thisTrialN'
p3255
I0
sS'stim.thisTrialN'
p3256
I15
sS'block.thisRepN'
p3257
I1
sg2913
g2914
sS'stim.thisIndex'
p3258
g32
(g67
S'\x0f\x00\x00\x00'
p3259
tp3260
Rp3261
sg31
g41
sS'block.thisN'
p3262
I1
sS'stim.thisN'
p3263
I15
sg2921
g2922
sg2923
g2924
sg21
g22
sg23
I2
sS'trials.thisIndex'
p3264
g2928
sS'stim.thisRepN'
p3265
I0
sg25
g30
sg2930
g366
sS'trials.thisRepN'
p3266
I3
sS'trials.thisN'
p3267
I3
sg2933
g32
(g87
S'\x10\x00\x00\x00\x00\x00\x00\x00'
p3268
tp3269
Rp3270
sg24
g11
sS'trials.thisTrialN'
p3271
I0
sS'block.thisIndex'
p3272
g1699
sg2939
g32
(g87
S'\x08\x00\x00\x00\x00\x00\x00\x00'
p3273
tp3274
Rp3275
sa(dp3276
S'block.thisTrialN'
p3277
I0
sS'stim.thisTrialN'
p3278
I16
sS'block.thisRepN'
p3279
I1
sg2913
g2914
sS'stim.thisIndex'
p3280
g32
(g67
S'\x10\x00\x00\x00'
p3281
tp3282
Rp3283
sg31
g41
sS'block.thisN'
p3284
I1
sS'stim.thisN'
p3285
I16
sg2921
g2922
sg2923
g2924
sg21
g22
sg23
I2
sS'trials.thisIndex'
p3286
g2928
sS'stim.thisRepN'
p3287
I0
sg25
g30
sg2930
g929
sS'trials.thisRepN'
p3288
I3
sS'trials.thisN'
p3289
I3
sg2933
g32
(g87
S'\x11\x00\x00\x00\x00\x00\x00\x00'
p3290
tp3291
Rp3292
sg24
g11
sS'trials.thisTrialN'
p3293
I0
sS'block.thisIndex'
p3294
g1699
sg2939
g32
(g87
S'\x08\x00\x00\x00\x00\x00\x00\x00'
p3295
tp3296
Rp3297
sa(dp3298
S'block.thisTrialN'
p3299
I0
sS'stim.thisTrialN'
p3300
I17
sS'block.thisRepN'
p3301
I1
sg2913
g2914
sS'stim.thisIndex'
p3302
g32
(g67
S'\x11\x00\x00\x00'
p3303
tp3304
Rp3305
sg31
g41
sS'block.thisN'
p3306
I1
sS'stim.thisN'
p3307
I17
sg2921
g2922
sg2923
g2924
sg21
g22
sg23
I2
sS'trials.thisIndex'
p3308
g2928
sS'stim.thisRepN'
p3309
I0
sg25
g30
sg2930
g929
sS'trials.thisRepN'
p3310
I3
sS'trials.thisN'
p3311
I3
sg2933
g32
(g87
S'\x12\x00\x00\x00\x00\x00\x00\x00'
p3312
tp3313
Rp3314
sg24
g11
sS'trials.thisTrialN'
p3315
I0
sS'block.thisIndex'
p3316
g1699
sg2939
g32
(g87
S'\x08\x00\x00\x00\x00\x00\x00\x00'
p3317
tp3318
Rp3319
sa(dp3320
S'block.thisTrialN'
p3321
I0
sS'block.thisRepN'
p3322
I1
sg16
S'8'
p3323
sS'trials.thisRepN'
p3324
I3
sg15
F0.41173279999929946
sg25
g30
sS'block.thisN'
p3325
I1
sg31
g41
sS'trials.thisN'
p3326
I3
sg14
g3323
sg24
g11
sS'trials.thisTrialN'
p3327
I0
sS'trials.thisIndex'
p3328
g2928
sg21
g22
sg23
I2
sS'block.thisIndex'
p3329
g1699
sg17
F0.13598479999927804
sa(dp3330
S'block.thisTrialN'
p3331
I0
sS'block.thisRepN'
p3332
I1
sg31
g41
sg25
g30
sS'block.thisN'
p3333
I1
sg24
g11
sg21
g22
sg23
I2
sS'block.thisIndex'
p3334
g1699
sasS'loops'
p3335
(lp3336
g0
(cpsychopy.data.trial
TrialHandler
p3337
g2
Ntp3338
Rp3339
(dp3340
S'origin'
p3341
NsS'thisTrial'
p3342
(lp3343
sS'_exp'
p3344
I516808112
sg10
S'block'
p3345
sg6
I-1
sS'thisRepN'
p3346
I2
sg18
I01
sg19
g20
sS'data'
p3347
g0
(cpsychopy.data.base
DataHandler
p3348
c__builtin__
dict
p3349
(dp3350
S'ran'
p3351
cnumpy.ma.core
_mareconstruct
p3352
(cnumpy.ma.core
MaskedArray
p3353
cnumpy
ndarray
p3354
(I0
tp3355
S'b'
p3356
tp3357
Rp3358
(I1
(I1
I2
tp3359
g33
(S'f4'
p3360
I0
I1
tp3361
Rp3362
(I3
S'<'
p3363
NNNI-1
I-1
I0
tp3364
bI00
S'\x00\x00\x80?\x00\x00\x80?'
p3365
S'\x00\x00'
p3366
Ntp3367
bsS'order'
p3368
g3352
(g3353
g3354
g3355
g3356
tp3369
Rp3370
(I1
(I1
I2
tp3371
g3362
I00
S'\x00\x00\x00\x00\x00\x00\x80?'
p3372
S'\x00\x00'
p3373
Ntp3374
bstp3375
Rp3376
(dp3377
S'isNumeric'
p3378
(dp3379
g3351
I01
sg3368
I01
ssS'trials'
p3380
g3339
sS'dataTypes'
p3381
(lp3382
g3351
ag3368
asS'dataShape'
p3383
(lp3384
I1
aI2
asbsS'method'
p3385
S'random'
p3386
sS'sequenceIndices'
p3387
cnumpy.core.multiarray
_reconstruct
p3388
(g3354
(I0
tp3389
g3356
tp3390
Rp3391
(I1
(I1
I2
tp3392
g67
I00
S'\x00\x00\x00\x00\x00\x00\x00\x00'
p3393
tp3394
bsS'finished'
p3395
I01
sS'nReps'
p3396
I2
sS'nRemaining'
p3397
I-1
sS'trialList'
p3398
(lp3399
NasS'seed'
p3400
NsS'thisIndex'
p3401
g1699
sS'thisN'
p3402
I2
sS'thisTrialN'
p3403
I0
sS'nTotal'
p3404
I2
sbag0
(g3337
g2
Ntp3405
Rp3406
(dp3407
g3341
Nsg3342
(lp3408
sg3344
I516808112
sg10
g3380
sg6
I-1
sg3346
I4
sg18
I01
sg19
g20
sg3347
g0
(g3348
g3349
(dp3409
g14
g3388
(g3354
(I0
tp3410
g3356
tp3411
Rp3412
(I1
(I1
I4
tp3413
g33
(S'O4'
p3414
I0
I1
tp3415
Rp3416
(I3
S'|'
p3417
NNNI-1
I-1
I63
tp3418
bI00
(lp3419
g449
ag854
ag1279
ag854
atp3420
bsg16
g3388
(g3354
(I0
tp3421
g3356
tp3422
Rp3423
(I1
(I1
I4
tp3424
g3416
I00
(lp3425
g449
ag854
ag1279
ag854
atp3426
bsg3351
g3352
(g3353
g3354
g3355
g3356
tp3427
Rp3428
(I1
(I1
I4
tp3429
g3362
I00
S'\x00\x00\x80?\x00\x00\x80?\x00\x00\x80?\x00\x00\x80?'
p3430
S'\x00\x00\x00\x00'
p3431
Ntp3432
bsg15
g3352
(g3353
g3354
g3355
g3356
tp3433
Rp3434
(I1
(I1
I4
tp3435
g3362
I00
S'\x8da\x8f?\xa7\xf1\xe9>\xe8I\x00?\xf1\x0f\xb3>'
p3436
S'\x00\x00\x00\x00'
p3437
Ntp3438
bsg3368
g3352
(g3353
g3354
g3355
g3356
tp3439
Rp3440
(I1
(I1
I4
tp3441
g3362
I00
S'\x00\x00\x00\x00\x00\x00\x80?\x00\x00\x00@\x00\x00@@'
p3442
S'\x00\x00\x00\x00'
p3443
Ntp3444
bsg17
g3352
(g3353
g3354
g3355
g3356
tp3445
Rp3446
(I1
(I1
I4
tp3447
g3362
I00
S'\x00\xf8\x91>iY\xca>\x05#->\x1f\x9e=>'
p3448
S'\x00\x00\x00\x00'
p3449
Ntp3450
bstp3451
Rp3452
(dp3453
g3378
(dp3454
g16
I00
sg3351
I01
sg15
I01
sg14
I00
sg3368
I01
sg17
I01
ssg3380
g3406
sg3381
(lp3455
g3351
ag3368
ag14
ag15
ag16
ag17
asg3383
(lp3456
I1
aI4
asbsg3385
S'sequential'
p3457
sg3387
g3388
(g3354
(I0
tp3458
g3356
tp3459
Rp3460
(I1
(I1
I4
tp3461
g67
I00
S'\x00\x00\x00\x00\x00\x00\x00\x00\x00\x00\x00\x00\x00\x00\x00\x00'
p3462
tp3463
bsg3395
I01
sg3396
I4
sg3397
I-1
sg3398
(lp3464
Nasg3400
Nsg3401
g1305
sg3402
I4
sg3403
I0
sg3404
I4
sbag0
(g3337
g2
Ntp3465
Rp3466
(dp3467
g3341
Nsg3342
(lp3468
sg3344
I516808112
sg10
S'stim'
p3469
sg6
I-1
sg3346
I1
sg18
I01
sg19
g20
sg3347
g0
(g3348
g3349
(dp3470
g3351
g3352
(g3353
g3354
g3355
g3356
tp3471
Rp3472
(I1
(I16
I1
tp3473
g3362
I00
S'\x00\x00\x80?\x00\x00\x80?\x00\x00\x80?\x00\x00\x80?\x00\x00\x80?\x00\x00\x80?\x00\x00\x80?\x00\x00\x80?\x00\x00\x80?\x00\x00\x80?\x00\x00\x80?\x00\x00\x80?\x00\x00\x80?\x00\x00\x80?\x00\x00\x80?\x00\x00\x80?'
p3474
S'\x00\x00\x00\x00\x00\x00\x00\x00\x00\x00\x00\x00\x00\x00\x00\x00'
p3475
Ntp3476
bsg3368
g3352
(g3353
g3354
g3355
g3356
tp3477
Rp3478
(I1
(I16
I1
tp3479
g3362
I00
S'\x00\x00\x00\x00\x00\x00\x80?\x00\x00\x00@\x00\x00@@\x00\x00\x80@\x00\x00\xa0@\x00\x00\xc0@\x00\x00\xe0@\x00\x00\x00A\x00\x00\x10A\x00\x00 A\x00\x000A\x00\x00@A\x00\x00PA\x00\x00`A\x00\x00pA'
p3480
S'\x00\x00\x00\x00\x00\x00\x00\x00\x00\x00\x00\x00\x00\x00\x00\x00'
p3481
Ntp3482
bstp3483
Rp3484
(dp3485
g3378
(dp3486
g3351
I01
sg3368
I01
ssg3380
g3466
sg3381
(lp3487
g3351
ag3368
asg3383
(lp3488
I16
aI1
asbsg3385
g3457
sg3387
g3388
(g3354
(I0
tp3489
g3356
tp3490
Rp3491
(I1
(I16
I1
tp3492
g67
I00
S'\x00\x00\x00\x00\x01\x00\x00\x00\x02\x00\x00\x00\x03\x00\x00\x00\x04\x00\x00\x00\x05\x00\x00\x00\x06\x00\x00\x00\x07\x00\x00\x00\x08\x00\x00\x00\t\x00\x00\x00\n\x00\x00\x00\x0b\x00\x00\x00\x0c\x00\x00\x00\r\x00\x00\x00\x0e\x00\x00\x00\x0f\x00\x00\x00'
p3493
tp3494
bsg3395
I01
sg3396
I1
sg3397
I-1
sg3398
(lp3495
ccollections
OrderedDict
p3496
((lp3497
(lp3498
g51
ag100
aa(lp3499
g52
ag75
aa(lp3500
g53
ag63
aa(lp3501
g54
ag92
aa(lp3502
g55
ag82
aa(lp3503
g56
ag76
aatp3504
Rp3505
ag3496
((lp3506
(lp3507
g51
ag124
aa(lp3508
g52
ag75
aa(lp3509
g53
ag63
aa(lp3510
g54
ag119
aa(lp3511
g55
ag114
aa(lp3512
g56
ag111
aatp3513
Rp3514
ag3496
((lp3515
(lp3516
g51
ag147
aa(lp3517
g52
ag75
aa(lp3518
g53
ag63
aa(lp3519
g54
ag142
aa(lp3520
g55
ag137
aa(lp3521
g56
ag111
aatp3522
Rp3523
ag3496
((lp3524
(lp3525
g51
ag170
aa(lp3526
g52
ag75
aa(lp3527
g53
ag63
aa(lp3528
g54
ag165
aa(lp3529
g55
ag160
aa(lp3530
g56
ag111
aatp3531
Rp3532
ag3496
((lp3533
(lp3534
g51
ag193
aa(lp3535
g52
ag75
aa(lp3536
g53
ag63
aa(lp3537
g54
ag188
aa(lp3538
g55
ag183
aa(lp3539
g56
ag111
aatp3540
Rp3541
ag3496
((lp3542
(lp3543
g51
ag217
aa(lp3544
g52
ag75
aa(lp3545
g53
ag63
aa(lp3546
g54
ag212
aa(lp3547
g55
ag207
aa(lp3548
g56
ag204
aatp3549
Rp3550
ag3496
((lp3551
(lp3552
g51
ag240
aa(lp3553
g52
ag75
aa(lp3554
g53
ag63
aa(lp3555
g54
ag235
aa(lp3556
g55
ag230
aa(lp3557
g56
ag111
aatp3558
Rp3559
ag3496
((lp3560
(lp3561
g51
ag263
aa(lp3562
g52
ag75
aa(lp3563
g53
ag63
aa(lp3564
g54
ag258
aa(lp3565
g55
ag253
aa(lp3566
g56
ag111
aatp3567
Rp3568
ag3496
((lp3569
(lp3570
g51
ag285
aa(lp3571
g52
ag75
aa(lp3572
g53
ag63
aa(lp3573
g54
ag280
aa(lp3574
g55
ag230
aa(lp3575
g56
ag111
aatp3576
Rp3577
ag3496
((lp3578
(lp3579
g51
ag308
aa(lp3580
g52
ag75
aa(lp3581
g53
ag63
aa(lp3582
g54
ag303
aa(lp3583
g55
ag298
aa(lp3584
g56
ag111
aatp3585
Rp3586
ag3496
((lp3587
(lp3588
g51
ag330
aa(lp3589
g52
ag75
aa(lp3590
g53
ag63
aa(lp3591
g54
ag325
aa(lp3592
g55
ag298
aa(lp3593
g56
ag111
aatp3594
Rp3595
ag3496
((lp3596
(lp3597
g51
ag353
aa(lp3598
g52
ag75
aa(lp3599
g53
ag63
aa(lp3600
g54
ag348
aa(lp3601
g55
ag343
aa(lp3602
g56
ag111
aatp3603
Rp3604
ag3496
((lp3605
(lp3606
g51
ag376
aa(lp3607
g52
ag75
aa(lp3608
g53
ag63
aa(lp3609
g54
ag371
aa(lp3610
g55
ag366
aa(lp3611
g56
ag111
aatp3612
Rp3613
ag3496
((lp3614
(lp3615
g51
ag399
aa(lp3616
g52
ag75
aa(lp3617
g53
ag63
aa(lp3618
g54
ag394
aa(lp3619
g55
ag389
aa(lp3620
g56
ag111
aatp3621
Rp3622
ag3496
((lp3623
(lp3624
g51
ag422
aa(lp3625
g52
ag75
aa(lp3626
g53
ag63
aa(lp3627
g54
ag417
aa(lp3628
g55
ag412
aa(lp3629
g56
ag111
aatp3630
Rp3631
ag3496
((lp3632
(lp3633
g51
ag445
aa(lp3634
g52
ag75
aa(lp3635
g53
ag63
aa(lp3636
g54
ag440
aa(lp3637
g55
ag435
aa(lp3638
g56
ag111
aatp3639
Rp3640
asg3400
Nsg3401
g430
sg3402
I16
sg3403
I0
sg3404
I16
sbag0
(g3337
g2
Ntp3641
Rp3642
(dp3643
g3341
Nsg3342
(lp3644
sg3344
I516808112
sg10
g3469
sg6
I-1
sg3346
I1
sg18
I01
sg19
g20
sg3347
g0
(g3348
g3349
(dp3645
g3351
g3352
(g3353
g3354
g3355
g3356
tp3646
Rp3647
(I1
(I17
I1
tp3648
g3362
I00
S'\x00\x00\x80?\x00\x00\x80?\x00\x00\x80?\x00\x00\x80?\x00\x00\x80?\x00\x00\x80?\x00\x00\x80?\x00\x00\x80?\x00\x00\x80?\x00\x00\x80?\x00\x00\x80?\x00\x00\x80?\x00\x00\x80?\x00\x00\x80?\x00\x00\x80?\x00\x00\x80?\x00\x00\x80?'
p3649
S'\x00\x00\x00\x00\x00\x00\x00\x00\x00\x00\x00\x00\x00\x00\x00\x00\x00'
p3650
Ntp3651
bsg3368
g3352
(g3353
g3354
g3355
g3356
tp3652
Rp3653
(I1
(I17
I1
tp3654
g3362
I00
S'\x00\x00\x00\x00\x00\x00\x80?\x00\x00\x00@\x00\x00@@\x00\x00\x80@\x00\x00\xa0@\x00\x00\xc0@\x00\x00\xe0@\x00\x00\x00A\x00\x00\x10A\x00\x00 A\x00\x000A\x00\x00@A\x00\x00PA\x00\x00`A\x00\x00pA\x00\x00\x80A'
p3655
S'\x00\x00\x00\x00\x00\x00\x00\x00\x00\x00\x00\x00\x00\x00\x00\x00\x00'
p3656
Ntp3657
bstp3658
Rp3659
(dp3660
g3378
(dp3661
g3351
I01
sg3368
I01
ssg3380
g3642
sg3381
(lp3662
g3351
ag3368
asg3383
(lp3663
I17
aI1
asbsg3385
g3457
sg3387
g3388
(g3354
(I0
tp3664
g3356
tp3665
Rp3666
(I1
(I17
I1
tp3667
g67
I00
S'\x00\x00\x00\x00\x01\x00\x00\x00\x02\x00\x00\x00\x03\x00\x00\x00\x04\x00\x00\x00\x05\x00\x00\x00\x06\x00\x00\x00\x07\x00\x00\x00\x08\x00\x00\x00\t\x00\x00\x00\n\x00\x00\x00\x0b\x00\x00\x00\x0c\x00\x00\x00\r\x00\x00\x00\x0e\x00\x00\x00\x0f\x00\x00\x00\x10\x00\x00\x00'
p3668
tp3669
bsg3395
I01
sg3396
I1
sg3397
I-1
sg3398
(lp3670
g3496
((lp3671
(lp3672
g487
ag490
aa(lp3673
g468
ag469
aa(lp3674
g460
ag461
aa(lp3675
g481
ag484
aa(lp3676
g477
ag478
aa(lp3677
g470
ag471
aatp3678
Rp3679
ag3496
((lp3680
(lp3681
g487
ag512
aa(lp3682
g468
ag469
aa(lp3683
g460
ag461
aa(lp3684
g481
ag507
aa(lp3685
g477
ag230
aa(lp3686
g470
ag471
aatp3687
Rp3688
ag3496
((lp3689
(lp3690
g487
ag535
aa(lp3691
g468
ag469
aa(lp3692
g460
ag461
aa(lp3693
g481
ag530
aa(lp3694
g477
ag525
aa(lp3695
g470
ag471
aatp3696
Rp3697
ag3496
((lp3698
(lp3699
g487
ag558
aa(lp3700
g468
ag469
aa(lp3701
g460
ag461
aa(lp3702
g481
ag553
aa(lp3703
g477
ag548
aa(lp3704
g470
ag471
aatp3705
Rp3706
ag3496
((lp3707
(lp3708
g487
ag580
aa(lp3709
g468
ag469
aa(lp3710
g460
ag461
aa(lp3711
g481
ag575
aa(lp3712
g477
ag298
aa(lp3713
g470
ag471
aatp3714
Rp3715
ag3496
((lp3716
(lp3717
g487
ag603
aa(lp3718
g468
ag469
aa(lp3719
g460
ag461
aa(lp3720
g481
ag598
aa(lp3721
g477
ag82
aa(lp3722
g470
ag591
aatp3723
Rp3724
ag3496
((lp3725
(lp3726
g487
ag625
aa(lp3727
g468
ag469
aa(lp3728
g460
ag461
aa(lp3729
g481
ag620
aa(lp3730
g477
ag435
aa(lp3731
g470
ag471
aatp3732
Rp3733
ag3496
((lp3734
(lp3735
g487
ag647
aa(lp3736
g468
ag469
aa(lp3737
g460
ag461
aa(lp3738
g481
ag642
aa(lp3739
g477
ag298
aa(lp3740
g470
ag471
aatp3741
Rp3742
ag3496
((lp3743
(lp3744
g487
ag670
aa(lp3745
g468
ag469
aa(lp3746
g460
ag461
aa(lp3747
g481
ag665
aa(lp3748
g477
ag660
aa(lp3749
g470
ag471
aatp3750
Rp3751
ag3496
((lp3752
(lp3753
g487
ag693
aa(lp3754
g468
ag469
aa(lp3755
g460
ag461
aa(lp3756
g481
ag688
aa(lp3757
g477
ag683
aa(lp3758
g470
ag471
aatp3759
Rp3760
ag3496
((lp3761
(lp3762
g487
ag716
aa(lp3763
g468
ag469
aa(lp3764
g460
ag461
aa(lp3765
g481
ag711
aa(lp3766
g477
ag207
aa(lp3767
g470
ag704
aatp3768
Rp3769
ag3496
((lp3770
(lp3771
g487
ag739
aa(lp3772
g468
ag469
aa(lp3773
g460
ag461
aa(lp3774
g481
ag734
aa(lp3775
g477
ag729
aa(lp3776
g470
ag471
aatp3777
Rp3778
ag3496
((lp3779
(lp3780
g487
ag761
aa(lp3781
g468
ag469
aa(lp3782
g460
ag461
aa(lp3783
g481
ag756
aa(lp3784
g477
ag343
aa(lp3785
g470
ag471
aatp3786
Rp3787
ag3496
((lp3788
(lp3789
g487
ag784
aa(lp3790
g468
ag469
aa(lp3791
g460
ag461
aa(lp3792
g481
ag779
aa(lp3793
g477
ag774
aa(lp3794
g470
ag471
aatp3795
Rp3796
ag3496
((lp3797
(lp3798
g487
ag806
aa(lp3799
g468
ag469
aa(lp3800
g460
ag461
aa(lp3801
g481
ag801
aa(lp3802
g477
ag389
aa(lp3803
g470
ag471
aatp3804
Rp3805
ag3496
((lp3806
(lp3807
g487
ag828
aa(lp3808
g468
ag469
aa(lp3809
g460
ag461
aa(lp3810
g481
ag823
aa(lp3811
g477
ag298
aa(lp3812
g470
ag471
aatp3813
Rp3814
ag3496
((lp3815
(lp3816
g487
ag850
aa(lp3817
g468
ag469
aa(lp3818
g460
ag461
aa(lp3819
g481
ag845
aa(lp3820
g477
ag435
aa(lp3821
g470
ag471
aatp3822
Rp3823
asg3400
Nsg3401
g836
sg3402
I17
sg3403
I0
sg3404
I17
sbag0
(g3337
g2
Ntp3824
Rp3825
(dp3826
g3341
Nsg3342
(lp3827
sg3344
I516808112
sg10
g3469
sg6
I-1
sg3346
I1
sg18
I01
sg19
g20
sg3347
g0
(g3348
g3349
(dp3828
g3351
g3352
(g3353
g3354
g3355
g3356
tp3829
Rp3830
(I1
(I18
I1
tp3831
g3362
I00
S'\x00\x00\x80?\x00\x00\x80?\x00\x00\x80?\x00\x00\x80?\x00\x00\x80?\x00\x00\x80?\x00\x00\x80?\x00\x00\x80?\x00\x00\x80?\x00\x00\x80?\x00\x00\x80?\x00\x00\x80?\x00\x00\x80?\x00\x00\x80?\x00\x00\x80?\x00\x00\x80?\x00\x00\x80?\x00\x00\x80?'
p3832
S'\x00\x00\x00\x00\x00\x00\x00\x00\x00\x00\x00\x00\x00\x00\x00\x00\x00\x00'
p3833
Ntp3834
bsg3368
g3352
(g3353
g3354
g3355
g3356
tp3835
Rp3836
(I1
(I18
I1
tp3837
g3362
I00
S'\x00\x00\x00\x00\x00\x00\x80?\x00\x00\x00@\x00\x00@@\x00\x00\x80@\x00\x00\xa0@\x00\x00\xc0@\x00\x00\xe0@\x00\x00\x00A\x00\x00\x10A\x00\x00 A\x00\x000A\x00\x00@A\x00\x00PA\x00\x00`A\x00\x00pA\x00\x00\x80A\x00\x00\x88A'
p3838
S'\x00\x00\x00\x00\x00\x00\x00\x00\x00\x00\x00\x00\x00\x00\x00\x00\x00\x00'
p3839
Ntp3840
bstp3841
Rp3842
(dp3843
g3378
(dp3844
g3351
I01
sg3368
I01
ssg3380
g3825
sg3381
(lp3845
g3351
ag3368
asg3383
(lp3846
I18
aI1
asbsg3385
g3457
sg3387
g3388
(g3354
(I0
tp3847
g3356
tp3848
Rp3849
(I1
(I18
I1
tp3850
g67
I00
S'\x00\x00\x00\x00\x01\x00\x00\x00\x02\x00\x00\x00\x03\x00\x00\x00\x04\x00\x00\x00\x05\x00\x00\x00\x06\x00\x00\x00\x07\x00\x00\x00\x08\x00\x00\x00\t\x00\x00\x00\n\x00\x00\x00\x0b\x00\x00\x00\x0c\x00\x00\x00\r\x00\x00\x00\x0e\x00\x00\x00\x0f\x00\x00\x00\x10\x00\x00\x00\x11\x00\x00\x00'
p3851
tp3852
bsg3395
I01
sg3396
I1
sg3397
I-1
sg3398
(lp3853
g3496
((lp3854
(lp3855
g891
ag894
aa(lp3856
g873
ag874
aa(lp3857
g865
ag866
aa(lp3858
g885
ag888
aa(lp3859
g882
ag660
aa(lp3860
g875
ag876
aatp3861
Rp3862
ag3496
((lp3863
(lp3864
g891
ag916
aa(lp3865
g873
ag874
aa(lp3866
g865
ag866
aa(lp3867
g885
ag911
aa(lp3868
g882
ag660
aa(lp3869
g875
ag876
aatp3870
Rp3871
ag3496
((lp3872
(lp3873
g891
ag939
aa(lp3874
g873
ag874
aa(lp3875
g865
ag866
aa(lp3876
g885
ag934
aa(lp3877
g882
ag929
aa(lp3878
g875
ag876
aatp3879
Rp3880
ag3496
((lp3881
(lp3882
g891
ag961
aa(lp3883
g873
ag874
aa(lp3884
g865
ag866
aa(lp3885
g885
ag956
aa(lp3886
g882
ag660
aa(lp3887
g875
ag876
aatp3888
Rp3889
ag3496
((lp3890
(lp3891
g891
ag984
aa(lp3892
g873
ag874
aa(lp3893
g865
ag866
aa(lp3894
g885
ag979
aa(lp3895
g882
ag974
aa(lp3896
g875
ag876
aatp3897
Rp3898
ag3496
((lp3899
(lp3900
g891
ag1008
aa(lp3901
g873
ag874
aa(lp3902
g865
ag866
aa(lp3903
g885
ag1003
aa(lp3904
g882
ag998
aa(lp3905
g875
ag995
aatp3906
Rp3907
ag3496
((lp3908
(lp3909
g891
ag1031
aa(lp3910
g873
ag874
aa(lp3911
g865
ag866
aa(lp3912
g885
ag1026
aa(lp3913
g882
ag1021
aa(lp3914
g875
ag876
aatp3915
Rp3916
ag3496
((lp3917
(lp3918
g891
ag1053
aa(lp3919
g873
ag874
aa(lp3920
g865
ag866
aa(lp3921
g885
ag1048
aa(lp3922
g882
ag160
aa(lp3923
g875
ag876
aatp3924
Rp3925
ag3496
((lp3926
(lp3927
g891
ag1075
aa(lp3928
g873
ag874
aa(lp3929
g865
ag866
aa(lp3930
g885
ag1070
aa(lp3931
g882
ag230
aa(lp3932
g875
ag876
aatp3933
Rp3934
ag3496
((lp3935
(lp3936
g891
ag1097
aa(lp3937
g873
ag874
aa(lp3938
g865
ag866
aa(lp3939
g885
ag1092
aa(lp3940
g882
ag114
aa(lp3941
g875
ag876
aatp3942
Rp3943
ag3496
((lp3944
(lp3945
g891
ag1119
aa(lp3946
g873
ag874
aa(lp3947
g865
ag866
aa(lp3948
g885
ag1114
aa(lp3949
g882
ag160
aa(lp3950
g875
ag876
aatp3951
Rp3952
ag3496
((lp3953
(lp3954
g891
ag1141
aa(lp3955
g873
ag874
aa(lp3956
g865
ag866
aa(lp3957
g885
ag1136
aa(lp3958
g882
ag525
aa(lp3959
g875
ag876
aatp3960
Rp3961
ag3496
((lp3962
(lp3963
g891
ag1163
aa(lp3964
g873
ag874
aa(lp3965
g865
ag866
aa(lp3966
g885
ag1158
aa(lp3967
g882
ag974
aa(lp3968
g875
ag876
aatp3969
Rp3970
ag3496
((lp3971
(lp3972
g891
ag1185
aa(lp3973
g873
ag874
aa(lp3974
g865
ag866
aa(lp3975
g885
ag1180
aa(lp3976
g882
ag435
aa(lp3977
g875
ag876
aatp3978
Rp3979
ag3496
((lp3980
(lp3981
g891
ag1208
aa(lp3982
g873
ag874
aa(lp3983
g865
ag866
aa(lp3984
g885
ag1203
aa(lp3985
g882
ag1198
aa(lp3986
g875
ag995
aatp3987
Rp3988
ag3496
((lp3989
(lp3990
g891
ag1230
aa(lp3991
g873
ag874
aa(lp3992
g865
ag866
aa(lp3993
g885
ag1225
aa(lp3994
g882
ag114
aa(lp3995
g875
ag876
aatp3996
Rp3997
ag3496
((lp3998
(lp3999
g891
ag1253
aa(lp4000
g873
ag874
aa(lp4001
g865
ag866
aa(lp4002
g885
ag1248
aa(lp4003
g882
ag1243
aa(lp4004
g875
ag876
aatp4005
Rp4006
ag3496
((lp4007
(lp4008
g891
ag1275
aa(lp4009
g873
ag874
aa(lp4010
g865
ag866
aa(lp4011
g885
ag1270
aa(lp4012
g882
ag478
aa(lp4013
g875
ag876
aatp4014
Rp4015
asg3400
Nsg3401
g1261
sg3402
I18
sg3403
I0
sg3404
I18
sbag0
(g3337
g2
Ntp4016
Rp4017
(dp4018
g3341
Nsg3342
(lp4019
sg3344
I516808112
sg10
g3469
sg6
I-1
sg3346
I1
sg18
I01
sg19
g20
sg3347
g0
(g3348
g3349
(dp4020
g3351
g3352
(g3353
g3354
g3355
g3356
tp4021
Rp4022
(I1
(I16
I1
tp4023
g3362
I00
S'\x00\x00\x80?\x00\x00\x80?\x00\x00\x80?\x00\x00\x80?\x00\x00\x80?\x00\x00\x80?\x00\x00\x80?\x00\x00\x80?\x00\x00\x80?\x00\x00\x80?\x00\x00\x80?\x00\x00\x80?\x00\x00\x80?\x00\x00\x80?\x00\x00\x80?\x00\x00\x80?'
p4024
S'\x00\x00\x00\x00\x00\x00\x00\x00\x00\x00\x00\x00\x00\x00\x00\x00'
p4025
Ntp4026
bsg3368
g3352
(g3353
g3354
g3355
g3356
tp4027
Rp4028
(I1
(I16
I1
tp4029
g3362
I00
S'\x00\x00\x00\x00\x00\x00\x80?\x00\x00\x00@\x00\x00@@\x00\x00\x80@\x00\x00\xa0@\x00\x00\xc0@\x00\x00\xe0@\x00\x00\x00A\x00\x00\x10A\x00\x00 A\x00\x000A\x00\x00@A\x00\x00PA\x00\x00`A\x00\x00pA'
p4030
S'\x00\x00\x00\x00\x00\x00\x00\x00\x00\x00\x00\x00\x00\x00\x00\x00'
p4031
Ntp4032
bstp4033
Rp4034
(dp4035
g3378
(dp4036
g3351
I01
sg3368
I01
ssg3380
g4017
sg3381
(lp4037
g3351
ag3368
asg3383
(lp4038
I16
aI1
asbsg3385
g3457
sg3387
g3388
(g3354
(I0
tp4039
g3356
tp4040
Rp4041
(I1
(I16
I1
tp4042
g67
I00
S'\x00\x00\x00\x00\x01\x00\x00\x00\x02\x00\x00\x00\x03\x00\x00\x00\x04\x00\x00\x00\x05\x00\x00\x00\x06\x00\x00\x00\x07\x00\x00\x00\x08\x00\x00\x00\t\x00\x00\x00\n\x00\x00\x00\x0b\x00\x00\x00\x0c\x00\x00\x00\r\x00\x00\x00\x0e\x00\x00\x00\x0f\x00\x00\x00'
p4043
tp4044
bsg3395
I01
sg3396
I1
sg3397
I-1
sg3398
(lp4045
g3496
((lp4046
(lp4047
g1316
ag1319
aa(lp4048
g1298
ag1299
aa(lp4049
g1290
ag1291
aa(lp4050
g1310
ag1313
aa(lp4051
g1307
ag183
aa(lp4052
g1300
ag1301
aatp4053
Rp4054
ag3496
((lp4055
(lp4056
g1316
ag1341
aa(lp4057
g1298
ag1299
aa(lp4058
g1290
ag1291
aa(lp4059
g1310
ag1336
aa(lp4060
g1307
ag929
aa(lp4061
g1300
ag1301
aatp4062
Rp4063
ag3496
((lp4064
(lp4065
g1316
ag1363
aa(lp4066
g1298
ag1299
aa(lp4067
g1290
ag1291
aa(lp4068
g1310
ag1358
aa(lp4069
g1307
ag435
aa(lp4070
g1300
ag1301
aatp4071
Rp4072
ag3496
((lp4073
(lp4074
g1316
ag1385
aa(lp4075
g1298
ag1299
aa(lp4076
g1290
ag1291
aa(lp4077
g1310
ag1380
aa(lp4078
g1307
ag137
aa(lp4079
g1300
ag1301
aatp4080
Rp4081
ag3496
((lp4082
(lp4083
g1316
ag1408
aa(lp4084
g1298
ag1299
aa(lp4085
g1290
ag1291
aa(lp4086
g1310
ag1403
aa(lp4087
g1307
ag1398
aa(lp4088
g1300
ag1301
aatp4089
Rp4090
ag3496
((lp4091
(lp4092
g1316
ag1431
aa(lp4093
g1298
ag1299
aa(lp4094
g1290
ag1291
aa(lp4095
g1310
ag1426
aa(lp4096
g1307
ag82
aa(lp4097
g1300
ag1419
aatp4098
Rp4099
ag3496
((lp4100
(lp4101
g1316
ag1453
aa(lp4102
g1298
ag1299
aa(lp4103
g1290
ag1291
aa(lp4104
g1310
ag1448
aa(lp4105
g1307
ag683
aa(lp4106
g1300
ag1301
aatp4107
Rp4108
ag3496
((lp4109
(lp4110
g1316
ag1475
aa(lp4111
g1298
ag1299
aa(lp4112
g1290
ag1291
aa(lp4113
g1310
ag1470
aa(lp4114
g1307
ag729
aa(lp4115
g1300
ag1301
aatp4116
Rp4117
ag3496
((lp4118
(lp4119
g1316
ag1497
aa(lp4120
g1298
ag1299
aa(lp4121
g1290
ag1291
aa(lp4122
g1310
ag1492
aa(lp4123
g1307
ag160
aa(lp4124
g1300
ag1301
aatp4125
Rp4126
ag3496
((lp4127
(lp4128
g1316
ag1519
aa(lp4129
g1298
ag1299
aa(lp4130
g1290
ag1291
aa(lp4131
g1310
ag1514
aa(lp4132
g1307
ag183
aa(lp4133
g1300
ag1301
aatp4134
Rp4135
ag3496
((lp4136
(lp4137
g1316
ag1542
aa(lp4138
g1298
ag1299
aa(lp4139
g1290
ag1291
aa(lp4140
g1310
ag1537
aa(lp4141
g1307
ag207
aa(lp4142
g1300
ag1530
aatp4143
Rp4144
ag3496
((lp4145
(lp4146
g1316
ag1564
aa(lp4147
g1298
ag1299
aa(lp4148
g1290
ag1291
aa(lp4149
g1310
ag1559
aa(lp4150
g1307
ag366
aa(lp4151
g1300
ag1301
aatp4152
Rp4153
ag3496
((lp4154
(lp4155
g1316
ag1586
aa(lp4156
g1298
ag1299
aa(lp4157
g1290
ag1291
aa(lp4158
g1310
ag1581
aa(lp4159
g1307
ag253
aa(lp4160
g1300
ag1301
aatp4161
Rp4162
ag3496
((lp4163
(lp4164
g1316
ag1608
aa(lp4165
g1298
ag1299
aa(lp4166
g1290
ag1291
aa(lp4167
g1310
ag1603
aa(lp4168
g1307
ag974
aa(lp4169
g1300
ag1301
aatp4170
Rp4171
ag3496
((lp4172
(lp4173
g1316
ag1630
aa(lp4174
g1298
ag1299
aa(lp4175
g1290
ag1291
aa(lp4176
g1310
ag1625
aa(lp4177
g1307
ag389
aa(lp4178
g1300
ag1301
aatp4179
Rp4180
ag3496
((lp4181
(lp4182
g1316
ag1652
aa(lp4183
g1298
ag1299
aa(lp4184
g1290
ag1291
aa(lp4185
g1310
ag1647
aa(lp4186
g1307
ag298
aa(lp4187
g1300
ag1301
aatp4188
Rp4189
asg3400
Nsg3401
g1638
sg3402
I16
sg3403
I0
sg3404
I16
sbag0
(g3337
g2
Ntp4190
Rp4191
(dp4192
g3341
Nsg3342
(lp4193
sg3344
I516808112
sg10
g3380
sg6
I-1
sg3346
I4
sg18
I01
sg19
g20
sg3347
g0
(g3348
g3349
(dp4194
g14
g3388
(g3354
(I0
tp4195
g3356
tp4196
Rp4197
(I1
(I1
I4
tp4198
g3416
I00
(lp4199
g1279
ag1279
ag1279
ag3323
atp4200
bsg16
g3388
(g3354
(I0
tp4201
g3356
tp4202
Rp4203
(I1
(I1
I4
tp4204
g3416
I00
(lp4205
g1279
ag1279
ag1279
ag3323
atp4206
bsg3351
g3352
(g3353
g3354
g3355
g3356
tp4207
Rp4208
(I1
(I1
I4
tp4209
g3362
I00
S'\x00\x00\x80?\x00\x00\x80?\x00\x00\x80?\x00\x00\x80?'
p4210
S'\x00\x00\x00\x00'
p4211
Ntp4212
bsg15
g3352
(g3353
g3354
g3355
g3356
tp4213
Rp4214
(I1
(I1
I4
tp4215
g3362
I00
S'\xb4\xa3\x8d?U\xc9D?9\x85\xcc>\xa4\xce\xd2>'
p4216
S'\x00\x00\x00\x00'
p4217
Ntp4218
bsg3368
g3352
(g3353
g3354
g3355
g3356
tp4219
Rp4220
(I1
(I1
I4
tp4221
g3362
I00
S'\x00\x00\x00\x00\x00\x00\x80?\x00\x00\x00@\x00\x00@@'
p4222
S'\x00\x00\x00\x00'
p4223
Ntp4224
bsg17
g3352
(g3353
g3354
g3355
g3356
tp4225
Rp4226
(I1
(I1
I4
tp4227
g3362
I00
S'\xd7\xa4S>\xf91I>\xd4\x06\x14>\x99?\x0b>'
p4228
S'\x00\x00\x00\x00'
p4229
Ntp4230
bstp4231
Rp4232
(dp4233
g3378
(dp4234
g16
I00
sg3351
I01
sg15
I01
sg14
I00
sg3368
I01
sg17
I01
ssg3380
g4191
sg3381
(lp4235
g3351
ag3368
ag14
ag15
ag16
ag17
asg3383
(lp4236
I1
aI4
asbsg3385
g3457
sg3387
g3388
(g3354
(I0
tp4237
g3356
tp4238
Rp4239
(I1
(I1
I4
tp4240
g67
I00
S'\x00\x00\x00\x00\x00\x00\x00\x00\x00\x00\x00\x00\x00\x00\x00\x00'
p4241
tp4242
bsg3395
I01
sg3396
I4
sg3397
I-1
sg3398
(lp4243
Nasg3400
Nsg3401
g2928
sg3402
I4
sg3403
I0
sg3404
I4
sbag0
(g3337
g2
Ntp4244
Rp4245
(dp4246
g3341
Nsg3342
(lp4247
sg3344
I516808112
sg10
g3469
sg6
I-1
sg3346
I1
sg18
I01
sg19
g20
sg3347
g0
(g3348
g3349
(dp4248
g3351
g3352
(g3353
g3354
g3355
g3356
tp4249
Rp4250
(I1
(I18
I1
tp4251
g3362
I00
S'\x00\x00\x80?\x00\x00\x80?\x00\x00\x80?\x00\x00\x80?\x00\x00\x80?\x00\x00\x80?\x00\x00\x80?\x00\x00\x80?\x00\x00\x80?\x00\x00\x80?\x00\x00\x80?\x00\x00\x80?\x00\x00\x80?\x00\x00\x80?\x00\x00\x80?\x00\x00\x80?\x00\x00\x80?\x00\x00\x80?'
p4252
S'\x00\x00\x00\x00\x00\x00\x00\x00\x00\x00\x00\x00\x00\x00\x00\x00\x00\x00'
p4253
Ntp4254
bsg3368
g3352
(g3353
g3354
g3355
g3356
tp4255
Rp4256
(I1
(I18
I1
tp4257
g3362
I00
S'\x00\x00\x00\x00\x00\x00\x80?\x00\x00\x00@\x00\x00@@\x00\x00\x80@\x00\x00\xa0@\x00\x00\xc0@\x00\x00\xe0@\x00\x00\x00A\x00\x00\x10A\x00\x00 A\x00\x000A\x00\x00@A\x00\x00PA\x00\x00`A\x00\x00pA\x00\x00\x80A\x00\x00\x88A'
p4258
S'\x00\x00\x00\x00\x00\x00\x00\x00\x00\x00\x00\x00\x00\x00\x00\x00\x00\x00'
p4259
Ntp4260
bstp4261
Rp4262
(dp4263
g3378
(dp4264
g3351
I01
sg3368
I01
ssg3380
g4245
sg3381
(lp4265
g3351
ag3368
asg3383
(lp4266
I18
aI1
asbsg3385
g3457
sg3387
g3388
(g3354
(I0
tp4267
g3356
tp4268
Rp4269
(I1
(I18
I1
tp4270
g67
I00
S'\x00\x00\x00\x00\x01\x00\x00\x00\x02\x00\x00\x00\x03\x00\x00\x00\x04\x00\x00\x00\x05\x00\x00\x00\x06\x00\x00\x00\x07\x00\x00\x00\x08\x00\x00\x00\t\x00\x00\x00\n\x00\x00\x00\x0b\x00\x00\x00\x0c\x00\x00\x00\r\x00\x00\x00\x0e\x00\x00\x00\x0f\x00\x00\x00\x10\x00\x00\x00\x11\x00\x00\x00'
p4271
tp4272
bsg3395
I01
sg3396
I1
sg3397
I-1
sg3398
(lp4273
g3496
((lp4274
(lp4275
g1700
ag1703
aa(lp4276
g1679
ag1680
aa(lp4277
g1671
ag1672
aa(lp4278
g1691
ag1694
aa(lp4279
g1688
ag548
aa(lp4280
g1681
ag1682
aatp4281
Rp4282
ag3496
((lp4283
(lp4284
g1700
ag1725
aa(lp4285
g1679
ag1680
aa(lp4286
g1671
ag1672
aa(lp4287
g1691
ag1720
aa(lp4288
g1688
ag683
aa(lp4289
g1681
ag1682
aatp4290
Rp4291
ag3496
((lp4292
(lp4293
g1700
ag1747
aa(lp4294
g1679
ag1680
aa(lp4295
g1671
ag1672
aa(lp4296
g1691
ag1742
aa(lp4297
g1688
ag1021
aa(lp4298
g1681
ag1682
aatp4299
Rp4300
ag3496
((lp4301
(lp4302
g1700
ag1769
aa(lp4303
g1679
ag1680
aa(lp4304
g1671
ag1672
aa(lp4305
g1691
ag1764
aa(lp4306
g1688
ag1398
aa(lp4307
g1681
ag1682
aatp4308
Rp4309
ag3496
((lp4310
(lp4311
g1700
ag1792
aa(lp4312
g1679
ag1680
aa(lp4313
g1671
ag1672
aa(lp4314
g1691
ag1787
aa(lp4315
g1688
ag1782
aa(lp4316
g1681
ag1682
aatp4317
Rp4318
ag3496
((lp4319
(lp4320
g1700
ag1814
aa(lp4321
g1679
ag1680
aa(lp4322
g1671
ag1672
aa(lp4323
g1691
ag1809
aa(lp4324
g1688
ag183
aa(lp4325
g1681
ag1682
aatp4326
Rp4327
ag3496
((lp4328
(lp4329
g1700
ag1836
aa(lp4330
g1679
ag1680
aa(lp4331
g1671
ag1672
aa(lp4332
g1691
ag1831
aa(lp4333
g1688
ag366
aa(lp4334
g1681
ag1682
aatp4335
Rp4336
ag3496
((lp4337
(lp4338
g1700
ag1858
aa(lp4339
g1679
ag1680
aa(lp4340
g1671
ag1672
aa(lp4341
g1691
ag1853
aa(lp4342
g1688
ag389
aa(lp4343
g1681
ag1682
aatp4344
Rp4345
ag3496
((lp4346
(lp4347
g1700
ag1880
aa(lp4348
g1679
ag1680
aa(lp4349
g1671
ag1672
aa(lp4350
g1691
ag1875
aa(lp4351
g1688
ag183
aa(lp4352
g1681
ag1682
aatp4353
Rp4354
ag3496
((lp4355
(lp4356
g1700
ag1904
aa(lp4357
g1679
ag1680
aa(lp4358
g1671
ag1672
aa(lp4359
g1691
ag1899
aa(lp4360
g1688
ag1894
aa(lp4361
g1681
ag1891
aatp4362
Rp4363
ag3496
((lp4364
(lp4365
g1700
ag1926
aa(lp4366
g1679
ag1680
aa(lp4367
g1671
ag1672
aa(lp4368
g1691
ag1921
aa(lp4369
g1688
ag683
aa(lp4370
g1681
ag1682
aatp4371
Rp4372
ag3496
((lp4373
(lp4374
g1700
ag1948
aa(lp4375
g1679
ag1680
aa(lp4376
g1671
ag1672
aa(lp4377
g1691
ag1943
aa(lp4378
g1688
ag525
aa(lp4379
g1681
ag1682
aatp4380
Rp4381
ag3496
((lp4382
(lp4383
g1700
ag1970
aa(lp4384
g1679
ag1680
aa(lp4385
g1671
ag1672
aa(lp4386
g1691
ag1965
aa(lp4387
g1688
ag1021
aa(lp4388
g1681
ag1682
aatp4389
Rp4390
ag3496
((lp4391
(lp4392
g1700
ag1992
aa(lp4393
g1679
ag1680
aa(lp4394
g1671
ag1672
aa(lp4395
g1691
ag1987
aa(lp4396
g1688
ag183
aa(lp4397
g1681
ag1682
aatp4398
Rp4399
ag3496
((lp4400
(lp4401
g1700
ag2015
aa(lp4402
g1679
ag1680
aa(lp4403
g1671
ag1672
aa(lp4404
g1691
ag2010
aa(lp4405
g1688
ag207
aa(lp4406
g1681
ag2003
aatp4407
Rp4408
ag3496
((lp4409
(lp4410
g1700
ag2037
aa(lp4411
g1679
ag1680
aa(lp4412
g1671
ag1672
aa(lp4413
g1691
ag2032
aa(lp4414
g1688
ag729
aa(lp4415
g1681
ag1682
aatp4416
Rp4417
ag3496
((lp4418
(lp4419
g1700
ag2059
aa(lp4420
g1679
ag1680
aa(lp4421
g1671
ag1672
aa(lp4422
g1691
ag2054
aa(lp4423
g1688
ag548
aa(lp4424
g1681
ag1682
aatp4425
Rp4426
ag3496
((lp4427
(lp4428
g1700
ag2081
aa(lp4429
g1679
ag1680
aa(lp4430
g1671
ag1672
aa(lp4431
g1691
ag2076
aa(lp4432
g1688
ag974
aa(lp4433
g1681
ag1682
aatp4434
Rp4435
asg3400
Nsg3401
g2067
sg3402
I18
sg3403
I0
sg3404
I18
sbag0
(g3337
g2
Ntp4436
Rp4437
(dp4438
g3341
Nsg3342
(lp4439
sg3344
I516808112
sg10
g3469
sg6
I-1
sg3346
I1
sg18
I01
sg19
g20
sg3347
g0
(g3348
g3349
(dp4440
g3351
g3352
(g3353
g3354
g3355
g3356
tp4441
Rp4442
(I1
(I17
I1
tp4443
g3362
I00
S'\x00\x00\x80?\x00\x00\x80?\x00\x00\x80?\x00\x00\x80?\x00\x00\x80?\x00\x00\x80?\x00\x00\x80?\x00\x00\x80?\x00\x00\x80?\x00\x00\x80?\x00\x00\x80?\x00\x00\x80?\x00\x00\x80?\x00\x00\x80?\x00\x00\x80?\x00\x00\x80?\x00\x00\x80?'
p4444
S'\x00\x00\x00\x00\x00\x00\x00\x00\x00\x00\x00\x00\x00\x00\x00\x00\x00'
p4445
Ntp4446
bsg3368
g3352
(g3353
g3354
g3355
g3356
tp4447
Rp4448
(I1
(I17
I1
tp4449
g3362
I00
S'\x00\x00\x00\x00\x00\x00\x80?\x00\x00\x00@\x00\x00@@\x00\x00\x80@\x00\x00\xa0@\x00\x00\xc0@\x00\x00\xe0@\x00\x00\x00A\x00\x00\x10A\x00\x00 A\x00\x000A\x00\x00@A\x00\x00PA\x00\x00`A\x00\x00pA\x00\x00\x80A'
p4450
S'\x00\x00\x00\x00\x00\x00\x00\x00\x00\x00\x00\x00\x00\x00\x00\x00\x00'
p4451
Ntp4452
bstp4453
Rp4454
(dp4455
g3378
(dp4456
g3351
I01
sg3368
I01
ssg3380
g4437
sg3381
(lp4457
g3351
ag3368
asg3383
(lp4458
I17
aI1
asbsg3385
g3457
sg3387
g3388
(g3354
(I0
tp4459
g3356
tp4460
Rp4461
(I1
(I17
I1
tp4462
g67
I00
S'\x00\x00\x00\x00\x01\x00\x00\x00\x02\x00\x00\x00\x03\x00\x00\x00\x04\x00\x00\x00\x05\x00\x00\x00\x06\x00\x00\x00\x07\x00\x00\x00\x08\x00\x00\x00\t\x00\x00\x00\n\x00\x00\x00\x0b\x00\x00\x00\x0c\x00\x00\x00\r\x00\x00\x00\x0e\x00\x00\x00\x0f\x00\x00\x00\x10\x00\x00\x00'
p4463
tp4464
bsg3395
I01
sg3396
I1
sg3397
I-1
sg3398
(lp4465
g3496
((lp4466
(lp4467
g2121
ag2124
aa(lp4468
g2103
ag2104
aa(lp4469
g2095
ag2096
aa(lp4470
g2115
ag2118
aa(lp4471
g2112
ag389
aa(lp4472
g2105
ag2106
aatp4473
Rp4474
ag3496
((lp4475
(lp4476
g2121
ag2146
aa(lp4477
g2103
ag2104
aa(lp4478
g2095
ag2096
aa(lp4479
g2115
ag2141
aa(lp4480
g2112
ag683
aa(lp4481
g2105
ag2106
aatp4482
Rp4483
ag3496
((lp4484
(lp4485
g2121
ag2168
aa(lp4486
g2103
ag2104
aa(lp4487
g2095
ag2096
aa(lp4488
g2115
ag2163
aa(lp4489
g2112
ag343
aa(lp4490
g2105
ag2106
aatp4491
Rp4492
ag3496
((lp4493
(lp4494
g2121
ag2190
aa(lp4495
g2103
ag2104
aa(lp4496
g2095
ag2096
aa(lp4497
g2115
ag2185
aa(lp4498
g2112
ag183
aa(lp4499
g2105
ag2106
aatp4500
Rp4501
ag3496
((lp4502
(lp4503
g2121
ag2213
aa(lp4504
g2103
ag2104
aa(lp4505
g2095
ag2096
aa(lp4506
g2115
ag2208
aa(lp4507
g2112
ag2203
aa(lp4508
g2105
ag2106
aatp4509
Rp4510
ag3496
((lp4511
(lp4512
g2121
ag2235
aa(lp4513
g2103
ag2104
aa(lp4514
g2095
ag2096
aa(lp4515
g2115
ag2230
aa(lp4516
g2112
ag1782
aa(lp4517
g2105
ag2106
aatp4518
Rp4519
ag3496
((lp4520
(lp4521
g2121
ag2257
aa(lp4522
g2103
ag2104
aa(lp4523
g2095
ag2096
aa(lp4524
g2115
ag2252
aa(lp4525
g2112
ag774
aa(lp4526
g2105
ag2106
aatp4527
Rp4528
ag3496
((lp4529
(lp4530
g2121
ag2279
aa(lp4531
g2103
ag2104
aa(lp4532
g2095
ag2096
aa(lp4533
g2115
ag2274
aa(lp4534
g2112
ag774
aa(lp4535
g2105
ag2106
aatp4536
Rp4537
ag3496
((lp4538
(lp4539
g2121
ag2302
aa(lp4540
g2103
ag2104
aa(lp4541
g2095
ag2096
aa(lp4542
g2115
ag2297
aa(lp4543
g2112
ag82
aa(lp4544
g2105
ag2290
aatp4545
Rp4546
ag3496
((lp4547
(lp4548
g2121
ag2324
aa(lp4549
g2103
ag2104
aa(lp4550
g2095
ag2096
aa(lp4551
g2115
ag2319
aa(lp4552
g2112
ag1021
aa(lp4553
g2105
ag2106
aatp4554
Rp4555
ag3496
((lp4556
(lp4557
g2121
ag2346
aa(lp4558
g2103
ag2104
aa(lp4559
g2095
ag2096
aa(lp4560
g2115
ag2341
aa(lp4561
g2112
ag1021
aa(lp4562
g2105
ag2106
aatp4563
Rp4564
ag3496
((lp4565
(lp4566
g2121
ag2368
aa(lp4567
g2103
ag2104
aa(lp4568
g2095
ag2096
aa(lp4569
g2115
ag2363
aa(lp4570
g2112
ag183
aa(lp4571
g2105
ag2106
aatp4572
Rp4573
ag3496
((lp4574
(lp4575
g2121
ag2390
aa(lp4576
g2103
ag2104
aa(lp4577
g2095
ag2096
aa(lp4578
g2115
ag2385
aa(lp4579
g2112
ag343
aa(lp4580
g2105
ag2106
aatp4581
Rp4582
ag3496
((lp4583
(lp4584
g2121
ag2413
aa(lp4585
g2103
ag2104
aa(lp4586
g2095
ag2096
aa(lp4587
g2115
ag2408
aa(lp4588
g2112
ag207
aa(lp4589
g2105
ag2401
aatp4590
Rp4591
ag3496
((lp4592
(lp4593
g2121
ag2435
aa(lp4594
g2103
ag2104
aa(lp4595
g2095
ag2096
aa(lp4596
g2115
ag2430
aa(lp4597
g2112
ag683
aa(lp4598
g2105
ag2106
aatp4599
Rp4600
ag3496
((lp4601
(lp4602
g2121
ag2457
aa(lp4603
g2103
ag2104
aa(lp4604
g2095
ag2096
aa(lp4605
g2115
ag2452
aa(lp4606
g2112
ag412
aa(lp4607
g2105
ag2106
aatp4608
Rp4609
ag3496
((lp4610
(lp4611
g2121
ag2479
aa(lp4612
g2103
ag2104
aa(lp4613
g2095
ag2096
aa(lp4614
g2115
ag2474
aa(lp4615
g2112
ag1398
aa(lp4616
g2105
ag2106
aatp4617
Rp4618
asg3400
Nsg3401
g2465
sg3402
I17
sg3403
I0
sg3404
I17
sbag0
(g3337
g2
Ntp4619
Rp4620
(dp4621
g3341
Nsg3342
(lp4622
sg3344
I516808112
sg10
g3469
sg6
I-1
sg3346
I1
sg18
I01
sg19
g20
sg3347
g0
(g3348
g3349
(dp4623
g3351
g3352
(g3353
g3354
g3355
g3356
tp4624
Rp4625
(I1
(I18
I1
tp4626
g3362
I00
S'\x00\x00\x80?\x00\x00\x80?\x00\x00\x80?\x00\x00\x80?\x00\x00\x80?\x00\x00\x80?\x00\x00\x80?\x00\x00\x80?\x00\x00\x80?\x00\x00\x80?\x00\x00\x80?\x00\x00\x80?\x00\x00\x80?\x00\x00\x80?\x00\x00\x80?\x00\x00\x80?\x00\x00\x80?\x00\x00\x80?'
p4627
S'\x00\x00\x00\x00\x00\x00\x00\x00\x00\x00\x00\x00\x00\x00\x00\x00\x00\x00'
p4628
Ntp4629
bsg3368
g3352
(g3353
g3354
g3355
g3356
tp4630
Rp4631
(I1
(I18
I1
tp4632
g3362
I00
S'\x00\x00\x00\x00\x00\x00\x80?\x00\x00\x00@\x00\x00@@\x00\x00\x80@\x00\x00\xa0@\x00\x00\xc0@\x00\x00\xe0@\x00\x00\x00A\x00\x00\x10A\x00\x00 A\x00\x000A\x00\x00@A\x00\x00PA\x00\x00`A\x00\x00pA\x00\x00\x80A\x00\x00\x88A'
p4633
S'\x00\x00\x00\x00\x00\x00\x00\x00\x00\x00\x00\x00\x00\x00\x00\x00\x00\x00'
p4634
Ntp4635
bstp4636
Rp4637
(dp4638
g3378
(dp4639
g3351
I01
sg3368
I01
ssg3380
g4620
sg3381
(lp4640
g3351
ag3368
asg3383
(lp4641
I18
aI1
asbsg3385
g3457
sg3387
g3388
(g3354
(I0
tp4642
g3356
tp4643
Rp4644
(I1
(I18
I1
tp4645
g67
I00
S'\x00\x00\x00\x00\x01\x00\x00\x00\x02\x00\x00\x00\x03\x00\x00\x00\x04\x00\x00\x00\x05\x00\x00\x00\x06\x00\x00\x00\x07\x00\x00\x00\x08\x00\x00\x00\t\x00\x00\x00\n\x00\x00\x00\x0b\x00\x00\x00\x0c\x00\x00\x00\r\x00\x00\x00\x0e\x00\x00\x00\x0f\x00\x00\x00\x10\x00\x00\x00\x11\x00\x00\x00'
p4646
tp4647
bsg3395
I01
sg3396
I1
sg3397
I-1
sg3398
(lp4648
g3496
((lp4649
(lp4650
g2519
ag2522
aa(lp4651
g2501
ag2502
aa(lp4652
g2493
ag2494
aa(lp4653
g2513
ag2516
aa(lp4654
g2510
ag412
aa(lp4655
g2503
ag2504
aatp4656
Rp4657
ag3496
((lp4658
(lp4659
g2519
ag2544
aa(lp4660
g2501
ag2502
aa(lp4661
g2493
ag2494
aa(lp4662
g2513
ag2539
aa(lp4663
g2510
ag343
aa(lp4664
g2503
ag2504
aatp4665
Rp4666
ag3496
((lp4667
(lp4668
g2519
ag2566
aa(lp4669
g2501
ag2502
aa(lp4670
g2493
ag2494
aa(lp4671
g2513
ag2561
aa(lp4672
g2510
ag929
aa(lp4673
g2503
ag2504
aatp4674
Rp4675
ag3496
((lp4676
(lp4677
g2519
ag2588
aa(lp4678
g2501
ag2502
aa(lp4679
g2493
ag2494
aa(lp4680
g2513
ag2583
aa(lp4681
g2510
ag160
aa(lp4682
g2503
ag2504
aatp4683
Rp4684
ag3496
((lp4685
(lp4686
g2519
ag2610
aa(lp4687
g2501
ag2502
aa(lp4688
g2493
ag2494
aa(lp4689
g2513
ag2605
aa(lp4690
g2510
ag389
aa(lp4691
g2503
ag2504
aatp4692
Rp4693
ag3496
((lp4694
(lp4695
g2519
ag2632
aa(lp4696
g2501
ag2502
aa(lp4697
g2493
ag2494
aa(lp4698
g2513
ag2627
aa(lp4699
g2510
ag2203
aa(lp4700
g2503
ag2504
aatp4701
Rp4702
ag3496
((lp4703
(lp4704
g2519
ag2654
aa(lp4705
g2501
ag2502
aa(lp4706
g2493
ag2494
aa(lp4707
g2513
ag2649
aa(lp4708
g2510
ag253
aa(lp4709
g2503
ag2504
aatp4710
Rp4711
ag3496
((lp4712
(lp4713
g2519
ag2676
aa(lp4714
g2501
ag2502
aa(lp4715
g2493
ag2494
aa(lp4716
g2513
ag2671
aa(lp4717
g2510
ag366
aa(lp4718
g2503
ag2504
aatp4719
Rp4720
ag3496
((lp4721
(lp4722
g2519
ag2698
aa(lp4723
g2501
ag2502
aa(lp4724
g2493
ag2494
aa(lp4725
g2513
ag2693
aa(lp4726
g2510
ag1021
aa(lp4727
g2503
ag2504
aatp4728
Rp4729
ag3496
((lp4730
(lp4731
g2519
ag2722
aa(lp4732
g2501
ag2502
aa(lp4733
g2493
ag2494
aa(lp4734
g2513
ag2717
aa(lp4735
g2510
ag2712
aa(lp4736
g2503
ag2709
aatp4737
Rp4738
ag3496
((lp4739
(lp4740
g2519
ag2744
aa(lp4741
g2501
ag2502
aa(lp4742
g2493
ag2494
aa(lp4743
g2513
ag2739
aa(lp4744
g2510
ag343
aa(lp4745
g2503
ag2504
aatp4746
Rp4747
ag3496
((lp4748
(lp4749
g2519
ag2766
aa(lp4750
g2501
ag2502
aa(lp4751
g2493
ag2494
aa(lp4752
g2513
ag2761
aa(lp4753
g2510
ag974
aa(lp4754
g2503
ag2504
aatp4755
Rp4756
ag3496
((lp4757
(lp4758
g2519
ag2788
aa(lp4759
g2501
ag2502
aa(lp4760
g2493
ag2494
aa(lp4761
g2513
ag2783
aa(lp4762
g2510
ag683
aa(lp4763
g2503
ag2504
aatp4764
Rp4765
ag3496
((lp4766
(lp4767
g2519
ag2810
aa(lp4768
g2501
ag2502
aa(lp4769
g2493
ag2494
aa(lp4770
g2513
ag2805
aa(lp4771
g2510
ag974
aa(lp4772
g2503
ag2504
aatp4773
Rp4774
ag3496
((lp4775
(lp4776
g2519
ag2833
aa(lp4777
g2501
ag2502
aa(lp4778
g2493
ag2494
aa(lp4779
g2513
ag2828
aa(lp4780
g2510
ag207
aa(lp4781
g2503
ag2821
aatp4782
Rp4783
ag3496
((lp4784
(lp4785
g2519
ag2855
aa(lp4786
g2501
ag2502
aa(lp4787
g2493
ag2494
aa(lp4788
g2513
ag2850
aa(lp4789
g2510
ag435
aa(lp4790
g2503
ag2504
aatp4791
Rp4792
ag3496
((lp4793
(lp4794
g2519
ag2877
aa(lp4795
g2501
ag2502
aa(lp4796
g2493
ag2494
aa(lp4797
g2513
ag2872
aa(lp4798
g2510
ag478
aa(lp4799
g2503
ag2504
aatp4800
Rp4801
ag3496
((lp4802
(lp4803
g2519
ag2899
aa(lp4804
g2501
ag2502
aa(lp4805
g2493
ag2494
aa(lp4806
g2513
ag2894
aa(lp4807
g2510
ag548
aa(lp4808
g2503
ag2504
aatp4809
Rp4810
asg3400
Nsg3401
g2885
sg3402
I18
sg3403
I0
sg3404
I18
sbag0
(g3337
g2
Ntp4811
Rp4812
(dp4813
g3341
Nsg3342
(lp4814
sg3344
I516808112
sg10
g3469
sg6
I-1
sg3346
I1
sg18
I01
sg19
g20
sg3347
g0
(g3348
g3349
(dp4815
g3351
g3352
(g3353
g3354
g3355
g3356
tp4816
Rp4817
(I1
(I18
I1
tp4818
g3362
I00
S'\x00\x00\x80?\x00\x00\x80?\x00\x00\x80?\x00\x00\x80?\x00\x00\x80?\x00\x00\x80?\x00\x00\x80?\x00\x00\x80?\x00\x00\x80?\x00\x00\x80?\x00\x00\x80?\x00\x00\x80?\x00\x00\x80?\x00\x00\x80?\x00\x00\x80?\x00\x00\x80?\x00\x00\x80?\x00\x00\x80?'
p4819
S'\x00\x00\x00\x00\x00\x00\x00\x00\x00\x00\x00\x00\x00\x00\x00\x00\x00\x00'
p4820
Ntp4821
bsg3368
g3352
(g3353
g3354
g3355
g3356
tp4822
Rp4823
(I1
(I18
I1
tp4824
g3362
I00
S'\x00\x00\x00\x00\x00\x00\x80?\x00\x00\x00@\x00\x00@@\x00\x00\x80@\x00\x00\xa0@\x00\x00\xc0@\x00\x00\xe0@\x00\x00\x00A\x00\x00\x10A\x00\x00 A\x00\x000A\x00\x00@A\x00\x00PA\x00\x00`A\x00\x00pA\x00\x00\x80A\x00\x00\x88A'
p4825
S'\x00\x00\x00\x00\x00\x00\x00\x00\x00\x00\x00\x00\x00\x00\x00\x00\x00\x00'
p4826
Ntp4827
bstp4828
Rp4829
(dp4830
g3378
(dp4831
g3351
I01
sg3368
I01
ssg3380
g4812
sg3381
(lp4832
g3351
ag3368
asg3383
(lp4833
I18
aI1
asbsg3385
g3457
sg3387
g3388
(g3354
(I0
tp4834
g3356
tp4835
Rp4836
(I1
(I18
I1
tp4837
g67
I00
S'\x00\x00\x00\x00\x01\x00\x00\x00\x02\x00\x00\x00\x03\x00\x00\x00\x04\x00\x00\x00\x05\x00\x00\x00\x06\x00\x00\x00\x07\x00\x00\x00\x08\x00\x00\x00\t\x00\x00\x00\n\x00\x00\x00\x0b\x00\x00\x00\x0c\x00\x00\x00\r\x00\x00\x00\x0e\x00\x00\x00\x0f\x00\x00\x00\x10\x00\x00\x00\x11\x00\x00\x00'
p4838
tp4839
bsg3395
I01
sg3396
I1
sg3397
I-1
sg3398
(lp4840
g3496
((lp4841
(lp4842
g2939
ag2942
aa(lp4843
g2921
ag2922
aa(lp4844
g2913
ag2914
aa(lp4845
g2933
ag2936
aa(lp4846
g2930
ag1021
aa(lp4847
g2923
ag2924
aatp4848
Rp4849
ag3496
((lp4850
(lp4851
g2939
ag2964
aa(lp4852
g2921
ag2922
aa(lp4853
g2913
ag2914
aa(lp4854
g2933
ag2959
aa(lp4855
g2930
ag183
aa(lp4856
g2923
ag2924
aatp4857
Rp4858
ag3496
((lp4859
(lp4860
g2939
ag2986
aa(lp4861
g2921
ag2922
aa(lp4862
g2913
ag2914
aa(lp4863
g2933
ag2981
aa(lp4864
g2930
ag230
aa(lp4865
g2923
ag2924
aatp4866
Rp4867
ag3496
((lp4868
(lp4869
g2939
ag3010
aa(lp4870
g2921
ag2922
aa(lp4871
g2913
ag2914
aa(lp4872
g2933
ag3005
aa(lp4873
g2930
ag3000
aa(lp4874
g2923
ag2997
aatp4875
Rp4876
ag3496
((lp4877
(lp4878
g2939
ag3032
aa(lp4879
g2921
ag2922
aa(lp4880
g2913
ag2914
aa(lp4881
g2933
ag3027
aa(lp4882
g2930
ag548
aa(lp4883
g2923
ag2924
aatp4884
Rp4885
ag3496
((lp4886
(lp4887
g2939
ag3054
aa(lp4888
g2921
ag2922
aa(lp4889
g2913
ag2914
aa(lp4890
g2933
ag3049
aa(lp4891
g2930
ag929
aa(lp4892
g2923
ag2924
aatp4893
Rp4894
ag3496
((lp4895
(lp4896
g2939
ag3076
aa(lp4897
g2921
ag2922
aa(lp4898
g2913
ag2914
aa(lp4899
g2933
ag3071
aa(lp4900
g2930
ag974
aa(lp4901
g2923
ag2924
aatp4902
Rp4903
ag3496
((lp4904
(lp4905
g2939
ag3098
aa(lp4906
g2921
ag2922
aa(lp4907
g2913
ag2914
aa(lp4908
g2933
ag3093
aa(lp4909
g2930
ag525
aa(lp4910
g2923
ag2924
aatp4911
Rp4912
ag3496
((lp4913
(lp4914
g2939
ag3120
aa(lp4915
g2921
ag2922
aa(lp4916
g2913
ag2914
aa(lp4917
g2933
ag3115
aa(lp4918
g2930
ag660
aa(lp4919
g2923
ag2924
aatp4920
Rp4921
ag3496
((lp4922
(lp4923
g2939
ag3142
aa(lp4924
g2921
ag2922
aa(lp4925
g2913
ag2914
aa(lp4926
g2933
ag3137
aa(lp4927
g2930
ag729
aa(lp4928
g2923
ag2924
aatp4929
Rp4930
ag3496
((lp4931
(lp4932
g2939
ag3164
aa(lp4933
g2921
ag2922
aa(lp4934
g2913
ag2914
aa(lp4935
g2933
ag3159
aa(lp4936
g2930
ag343
aa(lp4937
g2923
ag2924
aatp4938
Rp4939
ag3496
((lp4940
(lp4941
g2939
ag3186
aa(lp4942
g2921
ag2922
aa(lp4943
g2913
ag2914
aa(lp4944
g2933
ag3181
aa(lp4945
g2930
ag435
aa(lp4946
g2923
ag2924
aatp4947
Rp4948
ag3496
((lp4949
(lp4950
g2939
ag3208
aa(lp4951
g2921
ag2922
aa(lp4952
g2913
ag2914
aa(lp4953
g2933
ag3203
aa(lp4954
g2930
ag2712
aa(lp4955
g2923
ag2997
aatp4956
Rp4957
ag3496
((lp4958
(lp4959
g2939
ag3230
aa(lp4960
g2921
ag2922
aa(lp4961
g2913
ag2914
aa(lp4962
g2933
ag3225
aa(lp4963
g2930
ag389
aa(lp4964
g2923
ag2924
aatp4965
Rp4966
ag3496
((lp4967
(lp4968
g2939
ag3253
aa(lp4969
g2921
ag2922
aa(lp4970
g2913
ag2914
aa(lp4971
g2933
ag3248
aa(lp4972
g2930
ag207
aa(lp4973
g2923
ag3241
aatp4974
Rp4975
ag3496
((lp4976
(lp4977
g2939
ag3275
aa(lp4978
g2921
ag2922
aa(lp4979
g2913
ag2914
aa(lp4980
g2933
ag3270
aa(lp4981
g2930
ag366
aa(lp4982
g2923
ag2924
aatp4983
Rp4984
ag3496
((lp4985
(lp4986
g2939
ag3297
aa(lp4987
g2921
ag2922
aa(lp4988
g2913
ag2914
aa(lp4989
g2933
ag3292
aa(lp4990
g2930
ag929
aa(lp4991
g2923
ag2924
aatp4992
Rp4993
ag3496
((lp4994
(lp4995
g2939
ag3319
aa(lp4996
g2921
ag2922
aa(lp4997
g2913
ag2914
aa(lp4998
g2933
ag3314
aa(lp4999
g2930
ag929
aa(lp5000
g2923
ag2924
aatp5001
Rp5002
asg3400
Nsg3401
g3305
sg3402
I18
sg3403
I0
sg3404
I18
sbasS'savePickle'
p5003
I00
sb.