ccopy_reg
_reconstructor
p0
(cpsychopy.data.experiment
ExperimentHandler
p1
c__builtin__
object
p2
Ntp3
Rp4
(dp5
S'originPath'
p6
NsS'dataFileName'
p7
Vc:\u005cUsers\u005center\u005cOneDrive - University of Toronto\u005cLabs\u005cInzlicht Lab\u005coutside_project\u005cexperiment\u005cpsychoPy_scripts\u005cFULL_EXPERIMENT\u005c__TASKS__\u005cwrapper_beta\u005cdata/John_rsvp_1061_2
p8
sS'runtimeInfo'
p9
NsS'name'
p10
Vrsvp
p11
sS'dataNames'
p12
(lp13
S'usr_input_t1.keys'
p14
aS'usr_input_t1.rt'
p15
aS'usr_input_t2.keys'
p16
aS'usr_input_t2.rt'
p17
asS'autoLog'
p18
I01
sS'extraInfo'
p19
(dp20
S'date'
p21
V2018_Nov_05_1256
p22
sS'run'
p23
I2
sS'expName'
p24
g11
sVparticipant
p25
g0
(cfuture.types.newstr
newstr
p26
c__builtin__
unicode
p27
V1061
p28
tp29
Rp30
sS'frameRate'
p31
NssS'loopsUnfinished'
p32
(lp33
sS'saveWideText'
p34
I00
sS'thisEntry'
p35
(dp36
sS'version'
p37
S''
p38
sS'_paramNamesSoFar'
p39
(lp40
S'block'
p41
aS'sep_dur'
p42
aS'Tx'
p43
aS'trial'
p44
aS'stimulus'
p45
aS'cond'
p46
asS'entries'
p47
(lp48
(dp49
S'block.thisTrialN'
p50
I0
sS'stim.thisTrialN'
p51
I0
sS'block.thisRepN'
p52
I0
sg43
Vt1
p53
sS'stim.thisIndex'
p54
cnumpy.core.multiarray
scalar
p55
(cnumpy
dtype
p56
(S'i4'
p57
I0
I1
tp58
Rp59
(I3
S'<'
p60
NNNI-1
I-1
I0
tp61
bS'\x00\x00\x00\x00'
p62
tp63
Rp64
sg31
NsS'block.thisN'
p65
I0
sS'stim.thisN'
p66
I0
sg42
Vshort
p67
sg46
Vdistractor
p68
sg21
g22
sg23
I2
sS'trials.thisIndex'
p69
g55
(g59
S'\x00\x00\x00\x00'
p70
tp71
Rp72
sS'stim.thisRepN'
p73
I0
sg25
g30
sg45
VP
p74
sS'trials.thisRepN'
p75
I0
sS'trials.thisN'
p76
I0
sg44
g55
(g56
(S'i8'
p77
I0
I1
tp78
Rp79
(I3
S'<'
p80
NNNI-1
I-1
I0
tp81
bS'\x01\x00\x00\x00\x00\x00\x00\x00'
p82
tp83
Rp84
sg24
g11
sS'trials.thisTrialN'
p85
I0
sS'block.thisIndex'
p86
g55
(g59
S'\x00\x00\x00\x00'
p87
tp88
Rp89
sg41
g55
(g79
S'\x01\x00\x00\x00\x00\x00\x00\x00'
p90
tp91
Rp92
sa(dp93
S'block.thisTrialN'
p94
I0
sS'stim.thisTrialN'
p95
I1
sS'block.thisRepN'
p96
I0
sg43
g53
sS'stim.thisIndex'
p97
g55
(g59
S'\x01\x00\x00\x00'
p98
tp99
Rp100
sg31
NsS'block.thisN'
p101
I0
sS'stim.thisN'
p102
I1
sg42
g67
sg46
g68
sg21
g22
sg23
I2
sS'trials.thisIndex'
p103
g72
sS'stim.thisRepN'
p104
I0
sg25
g30
sg45
VU
p105
sS'trials.thisRepN'
p106
I0
sS'trials.thisN'
p107
I0
sg44
g55
(g79
S'\x02\x00\x00\x00\x00\x00\x00\x00'
p108
tp109
Rp110
sg24
g11
sS'trials.thisTrialN'
p111
I0
sS'block.thisIndex'
p112
g89
sg41
g55
(g79
S'\x01\x00\x00\x00\x00\x00\x00\x00'
p113
tp114
Rp115
sa(dp116
S'block.thisTrialN'
p117
I0
sS'stim.thisTrialN'
p118
I2
sS'block.thisRepN'
p119
I0
sg43
g53
sS'stim.thisIndex'
p120
g55
(g59
S'\x02\x00\x00\x00'
p121
tp122
Rp123
sg31
NsS'block.thisN'
p124
I0
sS'stim.thisN'
p125
I2
sg42
g67
sg46
g68
sg21
g22
sg23
I2
sS'trials.thisIndex'
p126
g72
sS'stim.thisRepN'
p127
I0
sg25
g30
sg45
VX
p128
sS'trials.thisRepN'
p129
I0
sS'trials.thisN'
p130
I0
sg44
g55
(g79
S'\x03\x00\x00\x00\x00\x00\x00\x00'
p131
tp132
Rp133
sg24
g11
sS'trials.thisTrialN'
p134
I0
sS'block.thisIndex'
p135
g89
sg41
g55
(g79
S'\x01\x00\x00\x00\x00\x00\x00\x00'
p136
tp137
Rp138
sa(dp139
S'block.thisTrialN'
p140
I0
sS'stim.thisTrialN'
p141
I3
sS'block.thisRepN'
p142
I0
sg43
g53
sS'stim.thisIndex'
p143
g55
(g59
S'\x03\x00\x00\x00'
p144
tp145
Rp146
sg31
NsS'block.thisN'
p147
I0
sS'stim.thisN'
p148
I3
sg42
g67
sg46
g68
sg21
g22
sg23
I2
sS'trials.thisIndex'
p149
g72
sS'stim.thisRepN'
p150
I0
sg25
g30
sg45
VI
p151
sS'trials.thisRepN'
p152
I0
sS'trials.thisN'
p153
I0
sg44
g55
(g79
S'\x04\x00\x00\x00\x00\x00\x00\x00'
p154
tp155
Rp156
sg24
g11
sS'trials.thisTrialN'
p157
I0
sS'block.thisIndex'
p158
g89
sg41
g55
(g79
S'\x01\x00\x00\x00\x00\x00\x00\x00'
p159
tp160
Rp161
sa(dp162
S'block.thisTrialN'
p163
I0
sS'stim.thisTrialN'
p164
I4
sS'block.thisRepN'
p165
I0
sg43
g53
sS'stim.thisIndex'
p166
g55
(g59
S'\x04\x00\x00\x00'
p167
tp168
Rp169
sg31
NsS'block.thisN'
p170
I0
sS'stim.thisN'
p171
I4
sg42
g67
sg46
g68
sg21
g22
sg23
I2
sS'trials.thisIndex'
p172
g72
sS'stim.thisRepN'
p173
I0
sg25
g30
sg45
VC
p174
sS'trials.thisRepN'
p175
I0
sS'trials.thisN'
p176
I0
sg44
g55
(g79
S'\x05\x00\x00\x00\x00\x00\x00\x00'
p177
tp178
Rp179
sg24
g11
sS'trials.thisTrialN'
p180
I0
sS'block.thisIndex'
p181
g89
sg41
g55
(g79
S'\x01\x00\x00\x00\x00\x00\x00\x00'
p182
tp183
Rp184
sa(dp185
S'block.thisTrialN'
p186
I0
sS'stim.thisTrialN'
p187
I5
sS'block.thisRepN'
p188
I0
sg43
g53
sS'stim.thisIndex'
p189
g55
(g59
S'\x05\x00\x00\x00'
p190
tp191
Rp192
sg31
NsS'block.thisN'
p193
I0
sS'stim.thisN'
p194
I5
sg42
g67
sg46
g68
sg21
g22
sg23
I2
sS'trials.thisIndex'
p195
g72
sS'stim.thisRepN'
p196
I0
sg25
g30
sg45
VK
p197
sS'trials.thisRepN'
p198
I0
sS'trials.thisN'
p199
I0
sg44
g55
(g79
S'\x06\x00\x00\x00\x00\x00\x00\x00'
p200
tp201
Rp202
sg24
g11
sS'trials.thisTrialN'
p203
I0
sS'block.thisIndex'
p204
g89
sg41
g55
(g79
S'\x01\x00\x00\x00\x00\x00\x00\x00'
p205
tp206
Rp207
sa(dp208
S'block.thisTrialN'
p209
I0
sS'stim.thisTrialN'
p210
I6
sS'block.thisRepN'
p211
I0
sg43
g53
sS'stim.thisIndex'
p212
g55
(g59
S'\x06\x00\x00\x00'
p213
tp214
Rp215
sg31
NsS'block.thisN'
p216
I0
sS'stim.thisN'
p217
I6
sg42
g67
sg46
g68
sg21
g22
sg23
I2
sS'trials.thisIndex'
p218
g72
sS'stim.thisRepN'
p219
I0
sg25
g30
sg45
VV
p220
sS'trials.thisRepN'
p221
I0
sS'trials.thisN'
p222
I0
sg44
g55
(g79
S'\x07\x00\x00\x00\x00\x00\x00\x00'
p223
tp224
Rp225
sg24
g11
sS'trials.thisTrialN'
p226
I0
sS'block.thisIndex'
p227
g89
sg41
g55
(g79
S'\x01\x00\x00\x00\x00\x00\x00\x00'
p228
tp229
Rp230
sa(dp231
S'block.thisTrialN'
p232
I0
sS'stim.thisTrialN'
p233
I7
sS'block.thisRepN'
p234
I0
sg43
g53
sS'stim.thisIndex'
p235
g55
(g59
S'\x07\x00\x00\x00'
p236
tp237
Rp238
sg31
NsS'block.thisN'
p239
I0
sS'stim.thisN'
p240
I7
sg42
g67
sg46
Vtarget
p241
sg21
g22
sg23
I2
sS'trials.thisIndex'
p242
g72
sS'stim.thisRepN'
p243
I0
sg25
g30
sg45
V2
p244
sS'trials.thisRepN'
p245
I0
sS'trials.thisN'
p246
I0
sg44
g55
(g79
S'\x08\x00\x00\x00\x00\x00\x00\x00'
p247
tp248
Rp249
sg24
g11
sS'trials.thisTrialN'
p250
I0
sS'block.thisIndex'
p251
g89
sg41
g55
(g79
S'\x01\x00\x00\x00\x00\x00\x00\x00'
p252
tp253
Rp254
sa(dp255
S'block.thisTrialN'
p256
I0
sS'stim.thisTrialN'
p257
I8
sS'block.thisRepN'
p258
I0
sg43
g53
sS'stim.thisIndex'
p259
g55
(g59
S'\x08\x00\x00\x00'
p260
tp261
Rp262
sg31
NsS'block.thisN'
p263
I0
sS'stim.thisN'
p264
I8
sg42
g67
sg46
g68
sg21
g22
sg23
I2
sS'trials.thisIndex'
p265
g72
sS'stim.thisRepN'
p266
I0
sg25
g30
sg45
VH
p267
sS'trials.thisRepN'
p268
I0
sS'trials.thisN'
p269
I0
sg44
g55
(g79
S'\t\x00\x00\x00\x00\x00\x00\x00'
p270
tp271
Rp272
sg24
g11
sS'trials.thisTrialN'
p273
I0
sS'block.thisIndex'
p274
g89
sg41
g55
(g79
S'\x01\x00\x00\x00\x00\x00\x00\x00'
p275
tp276
Rp277
sa(dp278
S'block.thisTrialN'
p279
I0
sS'stim.thisTrialN'
p280
I9
sS'block.thisRepN'
p281
I0
sg43
g53
sS'stim.thisIndex'
p282
g55
(g59
S'\t\x00\x00\x00'
p283
tp284
Rp285
sg31
NsS'block.thisN'
p286
I0
sS'stim.thisN'
p287
I9
sg42
g67
sg46
g68
sg21
g22
sg23
I2
sS'trials.thisIndex'
p288
g72
sS'stim.thisRepN'
p289
I0
sg25
g30
sg45
g174
sS'trials.thisRepN'
p290
I0
sS'trials.thisN'
p291
I0
sg44
g55
(g79
S'\n\x00\x00\x00\x00\x00\x00\x00'
p292
tp293
Rp294
sg24
g11
sS'trials.thisTrialN'
p295
I0
sS'block.thisIndex'
p296
g89
sg41
g55
(g79
S'\x01\x00\x00\x00\x00\x00\x00\x00'
p297
tp298
Rp299
sa(dp300
S'block.thisTrialN'
p301
I0
sS'stim.thisTrialN'
p302
I10
sS'block.thisRepN'
p303
I0
sg43
g53
sS'stim.thisIndex'
p304
g55
(g59
S'\n\x00\x00\x00'
p305
tp306
Rp307
sg31
NsS'block.thisN'
p308
I0
sS'stim.thisN'
p309
I10
sg42
g67
sg46
g68
sg21
g22
sg23
I2
sS'trials.thisIndex'
p310
g72
sS'stim.thisRepN'
p311
I0
sg25
g30
sg45
g220
sS'trials.thisRepN'
p312
I0
sS'trials.thisN'
p313
I0
sg44
g55
(g79
S'\x0b\x00\x00\x00\x00\x00\x00\x00'
p314
tp315
Rp316
sg24
g11
sS'trials.thisTrialN'
p317
I0
sS'block.thisIndex'
p318
g89
sg41
g55
(g79
S'\x01\x00\x00\x00\x00\x00\x00\x00'
p319
tp320
Rp321
sa(dp322
S'block.thisTrialN'
p323
I0
sS'stim.thisTrialN'
p324
I11
sS'block.thisRepN'
p325
I0
sg43
g53
sS'stim.thisIndex'
p326
g55
(g59
S'\x0b\x00\x00\x00'
p327
tp328
Rp329
sg31
NsS'block.thisN'
p330
I0
sS'stim.thisN'
p331
I11
sg42
g67
sg46
g68
sg21
g22
sg23
I2
sS'trials.thisIndex'
p332
g72
sS'stim.thisRepN'
p333
I0
sg25
g30
sg45
g74
sS'trials.thisRepN'
p334
I0
sS'trials.thisN'
p335
I0
sg44
g55
(g79
S'\x0c\x00\x00\x00\x00\x00\x00\x00'
p336
tp337
Rp338
sg24
g11
sS'trials.thisTrialN'
p339
I0
sS'block.thisIndex'
p340
g89
sg41
g55
(g79
S'\x01\x00\x00\x00\x00\x00\x00\x00'
p341
tp342
Rp343
sa(dp344
S'block.thisTrialN'
p345
I0
sS'stim.thisTrialN'
p346
I12
sS'block.thisRepN'
p347
I0
sg43
g53
sS'stim.thisIndex'
p348
g55
(g59
S'\x0c\x00\x00\x00'
p349
tp350
Rp351
sg31
NsS'block.thisN'
p352
I0
sS'stim.thisN'
p353
I12
sg42
g67
sg46
Vmask
p354
sg21
g22
sg23
I2
sS'trials.thisIndex'
p355
g72
sS'stim.thisRepN'
p356
I0
sg25
g30
sg45
V 
p357
sS'trials.thisRepN'
p358
I0
sS'trials.thisN'
p359
I0
sg44
g55
(g79
S'\r\x00\x00\x00\x00\x00\x00\x00'
p360
tp361
Rp362
sg24
g11
sS'trials.thisTrialN'
p363
I0
sS'block.thisIndex'
p364
g89
sg41
g55
(g79
S'\x01\x00\x00\x00\x00\x00\x00\x00'
p365
tp366
Rp367
sa(dp368
S'block.thisTrialN'
p369
I0
sS'stim.thisTrialN'
p370
I13
sS'block.thisRepN'
p371
I0
sg43
g53
sS'stim.thisIndex'
p372
g55
(g59
S'\r\x00\x00\x00'
p373
tp374
Rp375
sg31
NsS'block.thisN'
p376
I0
sS'stim.thisN'
p377
I13
sg42
g67
sg46
g68
sg21
g22
sg23
I2
sS'trials.thisIndex'
p378
g72
sS'stim.thisRepN'
p379
I0
sg25
g30
sg45
VO
p380
sS'trials.thisRepN'
p381
I0
sS'trials.thisN'
p382
I0
sg44
g55
(g79
S'\x0e\x00\x00\x00\x00\x00\x00\x00'
p383
tp384
Rp385
sg24
g11
sS'trials.thisTrialN'
p386
I0
sS'block.thisIndex'
p387
g89
sg41
g55
(g79
S'\x01\x00\x00\x00\x00\x00\x00\x00'
p388
tp389
Rp390
sa(dp391
S'block.thisTrialN'
p392
I0
sS'stim.thisTrialN'
p393
I14
sS'block.thisRepN'
p394
I0
sg43
g53
sS'stim.thisIndex'
p395
g55
(g59
S'\x0e\x00\x00\x00'
p396
tp397
Rp398
sg31
NsS'block.thisN'
p399
I0
sS'stim.thisN'
p400
I14
sg42
g67
sg46
g68
sg21
g22
sg23
I2
sS'trials.thisIndex'
p401
g72
sS'stim.thisRepN'
p402
I0
sg25
g30
sg45
VB
p403
sS'trials.thisRepN'
p404
I0
sS'trials.thisN'
p405
I0
sg44
g55
(g79
S'\x0f\x00\x00\x00\x00\x00\x00\x00'
p406
tp407
Rp408
sg24
g11
sS'trials.thisTrialN'
p409
I0
sS'block.thisIndex'
p410
g89
sg41
g55
(g79
S'\x01\x00\x00\x00\x00\x00\x00\x00'
p411
tp412
Rp413
sa(dp414
S'block.thisTrialN'
p415
I0
sS'stim.thisTrialN'
p416
I15
sS'block.thisRepN'
p417
I0
sg43
g53
sS'stim.thisIndex'
p418
g55
(g59
S'\x0f\x00\x00\x00'
p419
tp420
Rp421
sg31
NsS'block.thisN'
p422
I0
sS'stim.thisN'
p423
I15
sg42
g67
sg46
g68
sg21
g22
sg23
I2
sS'trials.thisIndex'
p424
g72
sS'stim.thisRepN'
p425
I0
sg25
g30
sg45
g174
sS'trials.thisRepN'
p426
I0
sS'trials.thisN'
p427
I0
sg44
g55
(g79
S'\x10\x00\x00\x00\x00\x00\x00\x00'
p428
tp429
Rp430
sg24
g11
sS'trials.thisTrialN'
p431
I0
sS'block.thisIndex'
p432
g89
sg41
g55
(g79
S'\x01\x00\x00\x00\x00\x00\x00\x00'
p433
tp434
Rp435
sa(dp436
S'block.thisTrialN'
p437
I0
sS'block.thisRepN'
p438
I0
sg16
S'9'
p439
sS'trials.thisRepN'
p440
I0
sg15
F0.723301400008495
sg25
g30
sS'block.thisN'
p441
I0
sg31
NsS'trials.thisN'
p442
I0
sg14
g439
sg24
g11
sS'trials.thisTrialN'
p443
I0
sS'trials.thisIndex'
p444
g72
sg21
g22
sg23
I2
sS'block.thisIndex'
p445
g89
sg17
F0.24521619999723043
sa(dp446
S'block.thisTrialN'
p447
I0
sS'stim.thisTrialN'
p448
I0
sS'block.thisRepN'
p449
I0
sS'Tx'
p450
Vt1
p451
sS'stim.thisIndex'
p452
g55
(g59
S'\x00\x00\x00\x00'
p453
tp454
Rp455
sg31
NsS'block.thisN'
p456
I0
sS'stim.thisN'
p457
I0
sS'sep_dur'
p458
Vshort
p459
sS'cond'
p460
Vdistractor
p461
sg21
g22
sg23
I2
sS'trials.thisIndex'
p462
g55
(g59
S'\x00\x00\x00\x00'
p463
tp464
Rp465
sS'stim.thisRepN'
p466
I0
sg25
g30
sS'stimulus'
p467
VQ
p468
sS'trials.thisRepN'
p469
I1
sS'trials.thisN'
p470
I1
sS'trial'
p471
g55
(g79
S'\x01\x00\x00\x00\x00\x00\x00\x00'
p472
tp473
Rp474
sg24
g11
sS'trials.thisTrialN'
p475
I0
sS'block.thisIndex'
p476
g89
sS'block'
p477
g55
(g79
S'\x02\x00\x00\x00\x00\x00\x00\x00'
p478
tp479
Rp480
sa(dp481
S'block.thisTrialN'
p482
I0
sS'stim.thisTrialN'
p483
I1
sS'block.thisRepN'
p484
I0
sg450
g451
sS'stim.thisIndex'
p485
g55
(g59
S'\x01\x00\x00\x00'
p486
tp487
Rp488
sg31
NsS'block.thisN'
p489
I0
sS'stim.thisN'
p490
I1
sg458
g459
sg460
g461
sg21
g22
sg23
I2
sS'trials.thisIndex'
p491
g465
sS'stim.thisRepN'
p492
I0
sg25
g30
sg467
g468
sS'trials.thisRepN'
p493
I1
sS'trials.thisN'
p494
I1
sg471
g55
(g79
S'\x02\x00\x00\x00\x00\x00\x00\x00'
p495
tp496
Rp497
sg24
g11
sS'trials.thisTrialN'
p498
I0
sS'block.thisIndex'
p499
g89
sg477
g55
(g79
S'\x02\x00\x00\x00\x00\x00\x00\x00'
p500
tp501
Rp502
sa(dp503
S'block.thisTrialN'
p504
I0
sS'stim.thisTrialN'
p505
I2
sS'block.thisRepN'
p506
I0
sg450
g451
sS'stim.thisIndex'
p507
g55
(g59
S'\x02\x00\x00\x00'
p508
tp509
Rp510
sg31
NsS'block.thisN'
p511
I0
sS'stim.thisN'
p512
I2
sg458
g459
sg460
g461
sg21
g22
sg23
I2
sS'trials.thisIndex'
p513
g465
sS'stim.thisRepN'
p514
I0
sg25
g30
sg467
VL
p515
sS'trials.thisRepN'
p516
I1
sS'trials.thisN'
p517
I1
sg471
g55
(g79
S'\x03\x00\x00\x00\x00\x00\x00\x00'
p518
tp519
Rp520
sg24
g11
sS'trials.thisTrialN'
p521
I0
sS'block.thisIndex'
p522
g89
sg477
g55
(g79
S'\x02\x00\x00\x00\x00\x00\x00\x00'
p523
tp524
Rp525
sa(dp526
S'block.thisTrialN'
p527
I0
sS'stim.thisTrialN'
p528
I3
sS'block.thisRepN'
p529
I0
sg450
g451
sS'stim.thisIndex'
p530
g55
(g59
S'\x03\x00\x00\x00'
p531
tp532
Rp533
sg31
NsS'block.thisN'
p534
I0
sS'stim.thisN'
p535
I3
sg458
g459
sg460
g461
sg21
g22
sg23
I2
sS'trials.thisIndex'
p536
g465
sS'stim.thisRepN'
p537
I0
sg25
g30
sg467
VM
p538
sS'trials.thisRepN'
p539
I1
sS'trials.thisN'
p540
I1
sg471
g55
(g79
S'\x04\x00\x00\x00\x00\x00\x00\x00'
p541
tp542
Rp543
sg24
g11
sS'trials.thisTrialN'
p544
I0
sS'block.thisIndex'
p545
g89
sg477
g55
(g79
S'\x02\x00\x00\x00\x00\x00\x00\x00'
p546
tp547
Rp548
sa(dp549
S'block.thisTrialN'
p550
I0
sS'stim.thisTrialN'
p551
I4
sS'block.thisRepN'
p552
I0
sg450
g451
sS'stim.thisIndex'
p553
g55
(g59
S'\x04\x00\x00\x00'
p554
tp555
Rp556
sg31
NsS'block.thisN'
p557
I0
sS'stim.thisN'
p558
I4
sg458
g459
sg460
g461
sg21
g22
sg23
I2
sS'trials.thisIndex'
p559
g465
sS'stim.thisRepN'
p560
I0
sg25
g30
sg467
VW
p561
sS'trials.thisRepN'
p562
I1
sS'trials.thisN'
p563
I1
sg471
g55
(g79
S'\x05\x00\x00\x00\x00\x00\x00\x00'
p564
tp565
Rp566
sg24
g11
sS'trials.thisTrialN'
p567
I0
sS'block.thisIndex'
p568
g89
sg477
g55
(g79
S'\x02\x00\x00\x00\x00\x00\x00\x00'
p569
tp570
Rp571
sa(dp572
S'block.thisTrialN'
p573
I0
sS'stim.thisTrialN'
p574
I5
sS'block.thisRepN'
p575
I0
sg450
g451
sS'stim.thisIndex'
p576
g55
(g59
S'\x05\x00\x00\x00'
p577
tp578
Rp579
sg31
NsS'block.thisN'
p580
I0
sS'stim.thisN'
p581
I5
sg458
g459
sg460
g461
sg21
g22
sg23
I2
sS'trials.thisIndex'
p582
g465
sS'stim.thisRepN'
p583
I0
sg25
g30
sg467
VG
p584
sS'trials.thisRepN'
p585
I1
sS'trials.thisN'
p586
I1
sg471
g55
(g79
S'\x06\x00\x00\x00\x00\x00\x00\x00'
p587
tp588
Rp589
sg24
g11
sS'trials.thisTrialN'
p590
I0
sS'block.thisIndex'
p591
g89
sg477
g55
(g79
S'\x02\x00\x00\x00\x00\x00\x00\x00'
p592
tp593
Rp594
sa(dp595
S'block.thisTrialN'
p596
I0
sS'stim.thisTrialN'
p597
I6
sS'block.thisRepN'
p598
I0
sg450
g451
sS'stim.thisIndex'
p599
g55
(g59
S'\x06\x00\x00\x00'
p600
tp601
Rp602
sg31
NsS'block.thisN'
p603
I0
sS'stim.thisN'
p604
I6
sg458
g459
sg460
g461
sg21
g22
sg23
I2
sS'trials.thisIndex'
p605
g465
sS'stim.thisRepN'
p606
I0
sg25
g30
sg467
g403
sS'trials.thisRepN'
p607
I1
sS'trials.thisN'
p608
I1
sg471
g55
(g79
S'\x07\x00\x00\x00\x00\x00\x00\x00'
p609
tp610
Rp611
sg24
g11
sS'trials.thisTrialN'
p612
I0
sS'block.thisIndex'
p613
g89
sg477
g55
(g79
S'\x02\x00\x00\x00\x00\x00\x00\x00'
p614
tp615
Rp616
sa(dp617
S'block.thisTrialN'
p618
I0
sS'stim.thisTrialN'
p619
I7
sS'block.thisRepN'
p620
I0
sg450
g451
sS'stim.thisIndex'
p621
g55
(g59
S'\x07\x00\x00\x00'
p622
tp623
Rp624
sg31
NsS'block.thisN'
p625
I0
sS'stim.thisN'
p626
I7
sg458
g459
sg460
Vtarget
p627
sg21
g22
sg23
I2
sS'trials.thisIndex'
p628
g465
sS'stim.thisRepN'
p629
I0
sg25
g30
sg467
V7
p630
sS'trials.thisRepN'
p631
I1
sS'trials.thisN'
p632
I1
sg471
g55
(g79
S'\x08\x00\x00\x00\x00\x00\x00\x00'
p633
tp634
Rp635
sg24
g11
sS'trials.thisTrialN'
p636
I0
sS'block.thisIndex'
p637
g89
sg477
g55
(g79
S'\x02\x00\x00\x00\x00\x00\x00\x00'
p638
tp639
Rp640
sa(dp641
S'block.thisTrialN'
p642
I0
sS'stim.thisTrialN'
p643
I8
sS'block.thisRepN'
p644
I0
sg450
g451
sS'stim.thisIndex'
p645
g55
(g59
S'\x08\x00\x00\x00'
p646
tp647
Rp648
sg31
NsS'block.thisN'
p649
I0
sS'stim.thisN'
p650
I8
sg458
g459
sg460
g461
sg21
g22
sg23
I2
sS'trials.thisIndex'
p651
g465
sS'stim.thisRepN'
p652
I0
sg25
g30
sg467
g220
sS'trials.thisRepN'
p653
I1
sS'trials.thisN'
p654
I1
sg471
g55
(g79
S'\t\x00\x00\x00\x00\x00\x00\x00'
p655
tp656
Rp657
sg24
g11
sS'trials.thisTrialN'
p658
I0
sS'block.thisIndex'
p659
g89
sg477
g55
(g79
S'\x02\x00\x00\x00\x00\x00\x00\x00'
p660
tp661
Rp662
sa(dp663
S'block.thisTrialN'
p664
I0
sS'stim.thisTrialN'
p665
I9
sS'block.thisRepN'
p666
I0
sg450
g451
sS'stim.thisIndex'
p667
g55
(g59
S'\t\x00\x00\x00'
p668
tp669
Rp670
sg31
NsS'block.thisN'
p671
I0
sS'stim.thisN'
p672
I9
sg458
g459
sg460
g461
sg21
g22
sg23
I2
sS'trials.thisIndex'
p673
g465
sS'stim.thisRepN'
p674
I0
sg25
g30
sg467
g538
sS'trials.thisRepN'
p675
I1
sS'trials.thisN'
p676
I1
sg471
g55
(g79
S'\n\x00\x00\x00\x00\x00\x00\x00'
p677
tp678
Rp679
sg24
g11
sS'trials.thisTrialN'
p680
I0
sS'block.thisIndex'
p681
g89
sg477
g55
(g79
S'\x02\x00\x00\x00\x00\x00\x00\x00'
p682
tp683
Rp684
sa(dp685
S'block.thisTrialN'
p686
I0
sS'stim.thisTrialN'
p687
I10
sS'block.thisRepN'
p688
I0
sg450
g451
sS'stim.thisIndex'
p689
g55
(g59
S'\n\x00\x00\x00'
p690
tp691
Rp692
sg31
NsS'block.thisN'
p693
I0
sS'stim.thisN'
p694
I10
sg458
g459
sg460
g461
sg21
g22
sg23
I2
sS'trials.thisIndex'
p695
g465
sS'stim.thisRepN'
p696
I0
sg25
g30
sg467
VN
p697
sS'trials.thisRepN'
p698
I1
sS'trials.thisN'
p699
I1
sg471
g55
(g79
S'\x0b\x00\x00\x00\x00\x00\x00\x00'
p700
tp701
Rp702
sg24
g11
sS'trials.thisTrialN'
p703
I0
sS'block.thisIndex'
p704
g89
sg477
g55
(g79
S'\x02\x00\x00\x00\x00\x00\x00\x00'
p705
tp706
Rp707
sa(dp708
S'block.thisTrialN'
p709
I0
sS'stim.thisTrialN'
p710
I11
sS'block.thisRepN'
p711
I0
sg450
g451
sS'stim.thisIndex'
p712
g55
(g59
S'\x0b\x00\x00\x00'
p713
tp714
Rp715
sg31
NsS'block.thisN'
p716
I0
sS'stim.thisN'
p717
I11
sg458
g459
sg460
g461
sg21
g22
sg23
I2
sS'trials.thisIndex'
p718
g465
sS'stim.thisRepN'
p719
I0
sg25
g30
sg467
VJ
p720
sS'trials.thisRepN'
p721
I1
sS'trials.thisN'
p722
I1
sg471
g55
(g79
S'\x0c\x00\x00\x00\x00\x00\x00\x00'
p723
tp724
Rp725
sg24
g11
sS'trials.thisTrialN'
p726
I0
sS'block.thisIndex'
p727
g89
sg477
g55
(g79
S'\x02\x00\x00\x00\x00\x00\x00\x00'
p728
tp729
Rp730
sa(dp731
S'block.thisTrialN'
p732
I0
sS'stim.thisTrialN'
p733
I12
sS'block.thisRepN'
p734
I0
sg450
g451
sS'stim.thisIndex'
p735
g55
(g59
S'\x0c\x00\x00\x00'
p736
tp737
Rp738
sg31
NsS'block.thisN'
p739
I0
sS'stim.thisN'
p740
I12
sg458
g459
sg460
Vmask
p741
sg21
g22
sg23
I2
sS'trials.thisIndex'
p742
g465
sS'stim.thisRepN'
p743
I0
sg25
g30
sg467
g357
sS'trials.thisRepN'
p744
I1
sS'trials.thisN'
p745
I1
sg471
g55
(g79
S'\r\x00\x00\x00\x00\x00\x00\x00'
p746
tp747
Rp748
sg24
g11
sS'trials.thisTrialN'
p749
I0
sS'block.thisIndex'
p750
g89
sg477
g55
(g79
S'\x02\x00\x00\x00\x00\x00\x00\x00'
p751
tp752
Rp753
sa(dp754
S'block.thisTrialN'
p755
I0
sS'stim.thisTrialN'
p756
I13
sS'block.thisRepN'
p757
I0
sg450
g451
sS'stim.thisIndex'
p758
g55
(g59
S'\r\x00\x00\x00'
p759
tp760
Rp761
sg31
NsS'block.thisN'
p762
I0
sS'stim.thisN'
p763
I13
sg458
g459
sg460
g461
sg21
g22
sg23
I2
sS'trials.thisIndex'
p764
g465
sS'stim.thisRepN'
p765
I0
sg25
g30
sg467
VD
p766
sS'trials.thisRepN'
p767
I1
sS'trials.thisN'
p768
I1
sg471
g55
(g79
S'\x0e\x00\x00\x00\x00\x00\x00\x00'
p769
tp770
Rp771
sg24
g11
sS'trials.thisTrialN'
p772
I0
sS'block.thisIndex'
p773
g89
sg477
g55
(g79
S'\x02\x00\x00\x00\x00\x00\x00\x00'
p774
tp775
Rp776
sa(dp777
S'block.thisTrialN'
p778
I0
sS'stim.thisTrialN'
p779
I14
sS'block.thisRepN'
p780
I0
sg450
g451
sS'stim.thisIndex'
p781
g55
(g59
S'\x0e\x00\x00\x00'
p782
tp783
Rp784
sg31
NsS'block.thisN'
p785
I0
sS'stim.thisN'
p786
I14
sg458
g459
sg460
g461
sg21
g22
sg23
I2
sS'trials.thisIndex'
p787
g465
sS'stim.thisRepN'
p788
I0
sg25
g30
sg467
g468
sS'trials.thisRepN'
p789
I1
sS'trials.thisN'
p790
I1
sg471
g55
(g79
S'\x0f\x00\x00\x00\x00\x00\x00\x00'
p791
tp792
Rp793
sg24
g11
sS'trials.thisTrialN'
p794
I0
sS'block.thisIndex'
p795
g89
sg477
g55
(g79
S'\x02\x00\x00\x00\x00\x00\x00\x00'
p796
tp797
Rp798
sa(dp799
S'block.thisTrialN'
p800
I0
sS'stim.thisTrialN'
p801
I15
sS'block.thisRepN'
p802
I0
sg450
g451
sS'stim.thisIndex'
p803
g55
(g59
S'\x0f\x00\x00\x00'
p804
tp805
Rp806
sg31
NsS'block.thisN'
p807
I0
sS'stim.thisN'
p808
I15
sg458
g459
sg460
g461
sg21
g22
sg23
I2
sS'trials.thisIndex'
p809
g465
sS'stim.thisRepN'
p810
I0
sg25
g30
sg467
VE
p811
sS'trials.thisRepN'
p812
I1
sS'trials.thisN'
p813
I1
sg471
g55
(g79
S'\x10\x00\x00\x00\x00\x00\x00\x00'
p814
tp815
Rp816
sg24
g11
sS'trials.thisTrialN'
p817
I0
sS'block.thisIndex'
p818
g89
sg477
g55
(g79
S'\x02\x00\x00\x00\x00\x00\x00\x00'
p819
tp820
Rp821
sa(dp822
S'block.thisTrialN'
p823
I0
sS'stim.thisTrialN'
p824
I16
sS'block.thisRepN'
p825
I0
sg450
g451
sS'stim.thisIndex'
p826
g55
(g59
S'\x10\x00\x00\x00'
p827
tp828
Rp829
sg31
NsS'block.thisN'
p830
I0
sS'stim.thisN'
p831
I16
sg458
g459
sg460
g461
sg21
g22
sg23
I2
sS'trials.thisIndex'
p832
g465
sS'stim.thisRepN'
p833
I0
sg25
g30
sg467
g538
sS'trials.thisRepN'
p834
I1
sS'trials.thisN'
p835
I1
sg471
g55
(g79
S'\x11\x00\x00\x00\x00\x00\x00\x00'
p836
tp837
Rp838
sg24
g11
sS'trials.thisTrialN'
p839
I0
sS'block.thisIndex'
p840
g89
sg477
g55
(g79
S'\x02\x00\x00\x00\x00\x00\x00\x00'
p841
tp842
Rp843
sa(dp844
S'block.thisTrialN'
p845
I0
sS'block.thisRepN'
p846
I0
sg16
g439
sS'trials.thisRepN'
p847
I1
sg15
F0.32943490000616293
sg25
g30
sS'block.thisN'
p848
I0
sg31
NsS'trials.thisN'
p849
I1
sg14
g439
sg24
g11
sS'trials.thisTrialN'
p850
I0
sS'trials.thisIndex'
p851
g465
sg21
g22
sg23
I2
sS'block.thisIndex'
p852
g89
sg17
F0.21490479999920353
sa(dp853
S'block.thisTrialN'
p854
I0
sS'stim.thisTrialN'
p855
I0
sS'block.thisRepN'
p856
I0
sS'Tx'
p857
Vt2
p858
sS'stim.thisIndex'
p859
g55
(g59
S'\x00\x00\x00\x00'
p860
tp861
Rp862
sg31
NsS'block.thisN'
p863
I0
sS'stim.thisN'
p864
I0
sS'sep_dur'
p865
Vlong
p866
sS'cond'
p867
Vdistractor
p868
sg21
g22
sg23
I2
sS'trials.thisIndex'
p869
g55
(g59
S'\x00\x00\x00\x00'
p870
tp871
Rp872
sS'stim.thisRepN'
p873
I0
sg25
g30
sS'stimulus'
p874
VF
p875
sS'trials.thisRepN'
p876
I2
sS'trials.thisN'
p877
I2
sS'trial'
p878
g55
(g79
S'\x01\x00\x00\x00\x00\x00\x00\x00'
p879
tp880
Rp881
sg24
g11
sS'trials.thisTrialN'
p882
I0
sS'block.thisIndex'
p883
g89
sS'block'
p884
g55
(g79
S'\x03\x00\x00\x00\x00\x00\x00\x00'
p885
tp886
Rp887
sa(dp888
S'block.thisTrialN'
p889
I0
sS'stim.thisTrialN'
p890
I1
sS'block.thisRepN'
p891
I0
sg857
g858
sS'stim.thisIndex'
p892
g55
(g59
S'\x01\x00\x00\x00'
p893
tp894
Rp895
sg31
NsS'block.thisN'
p896
I0
sS'stim.thisN'
p897
I1
sg865
g866
sg867
Vtarget
p898
sg21
g22
sg23
I2
sS'trials.thisIndex'
p899
g872
sS'stim.thisRepN'
p900
I0
sg25
g30
sg874
g244
sS'trials.thisRepN'
p901
I2
sS'trials.thisN'
p902
I2
sg878
g55
(g79
S'\x02\x00\x00\x00\x00\x00\x00\x00'
p903
tp904
Rp905
sg24
g11
sS'trials.thisTrialN'
p906
I0
sS'block.thisIndex'
p907
g89
sg884
g55
(g79
S'\x03\x00\x00\x00\x00\x00\x00\x00'
p908
tp909
Rp910
sa(dp911
S'block.thisTrialN'
p912
I0
sS'stim.thisTrialN'
p913
I2
sS'block.thisRepN'
p914
I0
sg857
g858
sS'stim.thisIndex'
p915
g55
(g59
S'\x02\x00\x00\x00'
p916
tp917
Rp918
sg31
NsS'block.thisN'
p919
I0
sS'stim.thisN'
p920
I2
sg865
g866
sg867
g868
sg21
g22
sg23
I2
sS'trials.thisIndex'
p921
g872
sS'stim.thisRepN'
p922
I0
sg25
g30
sg874
g766
sS'trials.thisRepN'
p923
I2
sS'trials.thisN'
p924
I2
sg878
g55
(g79
S'\x03\x00\x00\x00\x00\x00\x00\x00'
p925
tp926
Rp927
sg24
g11
sS'trials.thisTrialN'
p928
I0
sS'block.thisIndex'
p929
g89
sg884
g55
(g79
S'\x03\x00\x00\x00\x00\x00\x00\x00'
p930
tp931
Rp932
sa(dp933
S'block.thisTrialN'
p934
I0
sS'stim.thisTrialN'
p935
I3
sS'block.thisRepN'
p936
I0
sg857
g858
sS'stim.thisIndex'
p937
g55
(g59
S'\x03\x00\x00\x00'
p938
tp939
Rp940
sg31
NsS'block.thisN'
p941
I0
sS'stim.thisN'
p942
I3
sg865
g866
sg867
g868
sg21
g22
sg23
I2
sS'trials.thisIndex'
p943
g872
sS'stim.thisRepN'
p944
I0
sg25
g30
sg874
VZ
p945
sS'trials.thisRepN'
p946
I2
sS'trials.thisN'
p947
I2
sg878
g55
(g79
S'\x04\x00\x00\x00\x00\x00\x00\x00'
p948
tp949
Rp950
sg24
g11
sS'trials.thisTrialN'
p951
I0
sS'block.thisIndex'
p952
g89
sg884
g55
(g79
S'\x03\x00\x00\x00\x00\x00\x00\x00'
p953
tp954
Rp955
sa(dp956
S'block.thisTrialN'
p957
I0
sS'stim.thisTrialN'
p958
I4
sS'block.thisRepN'
p959
I0
sg857
g858
sS'stim.thisIndex'
p960
g55
(g59
S'\x04\x00\x00\x00'
p961
tp962
Rp963
sg31
NsS'block.thisN'
p964
I0
sS'stim.thisN'
p965
I4
sg865
g866
sg867
g868
sg21
g22
sg23
I2
sS'trials.thisIndex'
p966
g872
sS'stim.thisRepN'
p967
I0
sg25
g30
sg874
g697
sS'trials.thisRepN'
p968
I2
sS'trials.thisN'
p969
I2
sg878
g55
(g79
S'\x05\x00\x00\x00\x00\x00\x00\x00'
p970
tp971
Rp972
sg24
g11
sS'trials.thisTrialN'
p973
I0
sS'block.thisIndex'
p974
g89
sg884
g55
(g79
S'\x03\x00\x00\x00\x00\x00\x00\x00'
p975
tp976
Rp977
sa(dp978
S'block.thisTrialN'
p979
I0
sS'stim.thisTrialN'
p980
I5
sS'block.thisRepN'
p981
I0
sg857
g858
sS'stim.thisIndex'
p982
g55
(g59
S'\x05\x00\x00\x00'
p983
tp984
Rp985
sg31
NsS'block.thisN'
p986
I0
sS'stim.thisN'
p987
I5
sg865
g866
sg867
g868
sg21
g22
sg23
I2
sS'trials.thisIndex'
p988
g872
sS'stim.thisRepN'
p989
I0
sg25
g30
sg874
g380
sS'trials.thisRepN'
p990
I2
sS'trials.thisN'
p991
I2
sg878
g55
(g79
S'\x06\x00\x00\x00\x00\x00\x00\x00'
p992
tp993
Rp994
sg24
g11
sS'trials.thisTrialN'
p995
I0
sS'block.thisIndex'
p996
g89
sg884
g55
(g79
S'\x03\x00\x00\x00\x00\x00\x00\x00'
p997
tp998
Rp999
sa(dp1000
S'block.thisTrialN'
p1001
I0
sS'stim.thisTrialN'
p1002
I6
sS'block.thisRepN'
p1003
I0
sg857
g858
sS'stim.thisIndex'
p1004
g55
(g59
S'\x06\x00\x00\x00'
p1005
tp1006
Rp1007
sg31
NsS'block.thisN'
p1008
I0
sS'stim.thisN'
p1009
I6
sg865
g866
sg867
g868
sg21
g22
sg23
I2
sS'trials.thisIndex'
p1010
g872
sS'stim.thisRepN'
p1011
I0
sg25
g30
sg874
g584
sS'trials.thisRepN'
p1012
I2
sS'trials.thisN'
p1013
I2
sg878
g55
(g79
S'\x07\x00\x00\x00\x00\x00\x00\x00'
p1014
tp1015
Rp1016
sg24
g11
sS'trials.thisTrialN'
p1017
I0
sS'block.thisIndex'
p1018
g89
sg884
g55
(g79
S'\x03\x00\x00\x00\x00\x00\x00\x00'
p1019
tp1020
Rp1021
sa(dp1022
S'block.thisTrialN'
p1023
I0
sS'stim.thisTrialN'
p1024
I7
sS'block.thisRepN'
p1025
I0
sg857
g858
sS'stim.thisIndex'
p1026
g55
(g59
S'\x07\x00\x00\x00'
p1027
tp1028
Rp1029
sg31
NsS'block.thisN'
p1030
I0
sS'stim.thisN'
p1031
I7
sg865
g866
sg867
g868
sg21
g22
sg23
I2
sS'trials.thisIndex'
p1032
g872
sS'stim.thisRepN'
p1033
I0
sg25
g30
sg874
g766
sS'trials.thisRepN'
p1034
I2
sS'trials.thisN'
p1035
I2
sg878
g55
(g79
S'\x08\x00\x00\x00\x00\x00\x00\x00'
p1036
tp1037
Rp1038
sg24
g11
sS'trials.thisTrialN'
p1039
I0
sS'block.thisIndex'
p1040
g89
sg884
g55
(g79
S'\x03\x00\x00\x00\x00\x00\x00\x00'
p1041
tp1042
Rp1043
sa(dp1044
S'block.thisTrialN'
p1045
I0
sS'stim.thisTrialN'
p1046
I8
sS'block.thisRepN'
p1047
I0
sg857
g858
sS'stim.thisIndex'
p1048
g55
(g59
S'\x08\x00\x00\x00'
p1049
tp1050
Rp1051
sg31
NsS'block.thisN'
p1052
I0
sS'stim.thisN'
p1053
I8
sg865
g866
sg867
g868
sg21
g22
sg23
I2
sS'trials.thisIndex'
p1054
g872
sS'stim.thisRepN'
p1055
I0
sg25
g30
sg874
g267
sS'trials.thisRepN'
p1056
I2
sS'trials.thisN'
p1057
I2
sg878
g55
(g79
S'\t\x00\x00\x00\x00\x00\x00\x00'
p1058
tp1059
Rp1060
sg24
g11
sS'trials.thisTrialN'
p1061
I0
sS'block.thisIndex'
p1062
g89
sg884
g55
(g79
S'\x03\x00\x00\x00\x00\x00\x00\x00'
p1063
tp1064
Rp1065
sa(dp1066
S'block.thisTrialN'
p1067
I0
sS'stim.thisTrialN'
p1068
I9
sS'block.thisRepN'
p1069
I0
sg857
g858
sS'stim.thisIndex'
p1070
g55
(g59
S'\t\x00\x00\x00'
p1071
tp1072
Rp1073
sg31
NsS'block.thisN'
p1074
I0
sS'stim.thisN'
p1075
I9
sg865
g866
sg867
g868
sg21
g22
sg23
I2
sS'trials.thisIndex'
p1076
g872
sS'stim.thisRepN'
p1077
I0
sg25
g30
sg874
g403
sS'trials.thisRepN'
p1078
I2
sS'trials.thisN'
p1079
I2
sg878
g55
(g79
S'\n\x00\x00\x00\x00\x00\x00\x00'
p1080
tp1081
Rp1082
sg24
g11
sS'trials.thisTrialN'
p1083
I0
sS'block.thisIndex'
p1084
g89
sg884
g55
(g79
S'\x03\x00\x00\x00\x00\x00\x00\x00'
p1085
tp1086
Rp1087
sa(dp1088
S'block.thisTrialN'
p1089
I0
sS'stim.thisTrialN'
p1090
I10
sS'block.thisRepN'
p1091
I0
sg857
g858
sS'stim.thisIndex'
p1092
g55
(g59
S'\n\x00\x00\x00'
p1093
tp1094
Rp1095
sg31
NsS'block.thisN'
p1096
I0
sS'stim.thisN'
p1097
I10
sg865
g866
sg867
g898
sg21
g22
sg23
I2
sS'trials.thisIndex'
p1098
g872
sS'stim.thisRepN'
p1099
I0
sg25
g30
sg874
V5
p1100
sS'trials.thisRepN'
p1101
I2
sS'trials.thisN'
p1102
I2
sg878
g55
(g79
S'\x0b\x00\x00\x00\x00\x00\x00\x00'
p1103
tp1104
Rp1105
sg24
g11
sS'trials.thisTrialN'
p1106
I0
sS'block.thisIndex'
p1107
g89
sg884
g55
(g79
S'\x03\x00\x00\x00\x00\x00\x00\x00'
p1108
tp1109
Rp1110
sa(dp1111
S'block.thisTrialN'
p1112
I0
sS'stim.thisTrialN'
p1113
I11
sS'block.thisRepN'
p1114
I0
sg857
g858
sS'stim.thisIndex'
p1115
g55
(g59
S'\x0b\x00\x00\x00'
p1116
tp1117
Rp1118
sg31
NsS'block.thisN'
p1119
I0
sS'stim.thisN'
p1120
I11
sg865
g866
sg867
g868
sg21
g22
sg23
I2
sS'trials.thisIndex'
p1121
g872
sS'stim.thisRepN'
p1122
I0
sg25
g30
sg874
VA
p1123
sS'trials.thisRepN'
p1124
I2
sS'trials.thisN'
p1125
I2
sg878
g55
(g79
S'\x0c\x00\x00\x00\x00\x00\x00\x00'
p1126
tp1127
Rp1128
sg24
g11
sS'trials.thisTrialN'
p1129
I0
sS'block.thisIndex'
p1130
g89
sg884
g55
(g79
S'\x03\x00\x00\x00\x00\x00\x00\x00'
p1131
tp1132
Rp1133
sa(dp1134
S'block.thisTrialN'
p1135
I0
sS'stim.thisTrialN'
p1136
I12
sS'block.thisRepN'
p1137
I0
sg857
g858
sS'stim.thisIndex'
p1138
g55
(g59
S'\x0c\x00\x00\x00'
p1139
tp1140
Rp1141
sg31
NsS'block.thisN'
p1142
I0
sS'stim.thisN'
p1143
I12
sg865
g866
sg867
Vmask
p1144
sg21
g22
sg23
I2
sS'trials.thisIndex'
p1145
g872
sS'stim.thisRepN'
p1146
I0
sg25
g30
sg874
g357
sS'trials.thisRepN'
p1147
I2
sS'trials.thisN'
p1148
I2
sg878
g55
(g79
S'\r\x00\x00\x00\x00\x00\x00\x00'
p1149
tp1150
Rp1151
sg24
g11
sS'trials.thisTrialN'
p1152
I0
sS'block.thisIndex'
p1153
g89
sg884
g55
(g79
S'\x03\x00\x00\x00\x00\x00\x00\x00'
p1154
tp1155
Rp1156
sa(dp1157
S'block.thisTrialN'
p1158
I0
sS'stim.thisTrialN'
p1159
I13
sS'block.thisRepN'
p1160
I0
sg857
g858
sS'stim.thisIndex'
p1161
g55
(g59
S'\r\x00\x00\x00'
p1162
tp1163
Rp1164
sg31
NsS'block.thisN'
p1165
I0
sS'stim.thisN'
p1166
I13
sg865
g866
sg867
g868
sg21
g22
sg23
I2
sS'trials.thisIndex'
p1167
g872
sS'stim.thisRepN'
p1168
I0
sg25
g30
sg874
g220
sS'trials.thisRepN'
p1169
I2
sS'trials.thisN'
p1170
I2
sg878
g55
(g79
S'\x0e\x00\x00\x00\x00\x00\x00\x00'
p1171
tp1172
Rp1173
sg24
g11
sS'trials.thisTrialN'
p1174
I0
sS'block.thisIndex'
p1175
g89
sg884
g55
(g79
S'\x03\x00\x00\x00\x00\x00\x00\x00'
p1176
tp1177
Rp1178
sa(dp1179
S'block.thisTrialN'
p1180
I0
sS'stim.thisTrialN'
p1181
I14
sS'block.thisRepN'
p1182
I0
sg857
g858
sS'stim.thisIndex'
p1183
g55
(g59
S'\x0e\x00\x00\x00'
p1184
tp1185
Rp1186
sg31
NsS'block.thisN'
p1187
I0
sS'stim.thisN'
p1188
I14
sg865
g866
sg867
g868
sg21
g22
sg23
I2
sS'trials.thisIndex'
p1189
g872
sS'stim.thisRepN'
p1190
I0
sg25
g30
sg874
g811
sS'trials.thisRepN'
p1191
I2
sS'trials.thisN'
p1192
I2
sg878
g55
(g79
S'\x0f\x00\x00\x00\x00\x00\x00\x00'
p1193
tp1194
Rp1195
sg24
g11
sS'trials.thisTrialN'
p1196
I0
sS'block.thisIndex'
p1197
g89
sg884
g55
(g79
S'\x03\x00\x00\x00\x00\x00\x00\x00'
p1198
tp1199
Rp1200
sa(dp1201
S'block.thisTrialN'
p1202
I0
sS'stim.thisTrialN'
p1203
I15
sS'block.thisRepN'
p1204
I0
sg857
g858
sS'stim.thisIndex'
p1205
g55
(g59
S'\x0f\x00\x00\x00'
p1206
tp1207
Rp1208
sg31
NsS'block.thisN'
p1209
I0
sS'stim.thisN'
p1210
I15
sg865
g866
sg867
g868
sg21
g22
sg23
I2
sS'trials.thisIndex'
p1211
g872
sS'stim.thisRepN'
p1212
I0
sg25
g30
sg874
VY
p1213
sS'trials.thisRepN'
p1214
I2
sS'trials.thisN'
p1215
I2
sg878
g55
(g79
S'\x10\x00\x00\x00\x00\x00\x00\x00'
p1216
tp1217
Rp1218
sg24
g11
sS'trials.thisTrialN'
p1219
I0
sS'block.thisIndex'
p1220
g89
sg884
g55
(g79
S'\x03\x00\x00\x00\x00\x00\x00\x00'
p1221
tp1222
Rp1223
sa(dp1224
S'block.thisTrialN'
p1225
I0
sS'block.thisRepN'
p1226
I0
sg16
g439
sS'trials.thisRepN'
p1227
I2
sg15
F0.4440943999943556
sg25
g30
sS'block.thisN'
p1228
I0
sg31
NsS'trials.thisN'
p1229
I2
sg14
g439
sg24
g11
sS'trials.thisTrialN'
p1230
I0
sS'trials.thisIndex'
p1231
g872
sg21
g22
sg23
I2
sS'block.thisIndex'
p1232
g89
sg17
F0.25436429999535903
sa(dp1233
S'block.thisTrialN'
p1234
I0
sS'stim.thisTrialN'
p1235
I0
sS'block.thisRepN'
p1236
I0
sS'Tx'
p1237
Vt1
p1238
sS'stim.thisIndex'
p1239
g55
(g59
S'\x00\x00\x00\x00'
p1240
tp1241
Rp1242
sg31
NsS'block.thisN'
p1243
I0
sS'stim.thisN'
p1244
I0
sS'sep_dur'
p1245
Vshort
p1246
sS'cond'
p1247
Vdistractor
p1248
sg21
g22
sg23
I2
sS'trials.thisIndex'
p1249
g55
(g59
S'\x00\x00\x00\x00'
p1250
tp1251
Rp1252
sS'stim.thisRepN'
p1253
I0
sg25
g30
sS'stimulus'
p1254
VR
p1255
sS'trials.thisRepN'
p1256
I3
sS'trials.thisN'
p1257
I3
sS'trial'
p1258
g55
(g79
S'\x01\x00\x00\x00\x00\x00\x00\x00'
p1259
tp1260
Rp1261
sg24
g11
sS'trials.thisTrialN'
p1262
I0
sS'block.thisIndex'
p1263
g89
sS'block'
p1264
g55
(g79
S'\x04\x00\x00\x00\x00\x00\x00\x00'
p1265
tp1266
Rp1267
sa(dp1268
S'block.thisTrialN'
p1269
I0
sS'stim.thisTrialN'
p1270
I1
sS'block.thisRepN'
p1271
I0
sg1237
g1238
sS'stim.thisIndex'
p1272
g55
(g59
S'\x01\x00\x00\x00'
p1273
tp1274
Rp1275
sg31
NsS'block.thisN'
p1276
I0
sS'stim.thisN'
p1277
I1
sg1245
g1246
sg1247
g1248
sg21
g22
sg23
I2
sS'trials.thisIndex'
p1278
g1252
sS'stim.thisRepN'
p1279
I0
sg25
g30
sg1254
g403
sS'trials.thisRepN'
p1280
I3
sS'trials.thisN'
p1281
I3
sg1258
g55
(g79
S'\x02\x00\x00\x00\x00\x00\x00\x00'
p1282
tp1283
Rp1284
sg24
g11
sS'trials.thisTrialN'
p1285
I0
sS'block.thisIndex'
p1286
g89
sg1264
g55
(g79
S'\x04\x00\x00\x00\x00\x00\x00\x00'
p1287
tp1288
Rp1289
sa(dp1290
S'block.thisTrialN'
p1291
I0
sS'stim.thisTrialN'
p1292
I2
sS'block.thisRepN'
p1293
I0
sg1237
g1238
sS'stim.thisIndex'
p1294
g55
(g59
S'\x02\x00\x00\x00'
p1295
tp1296
Rp1297
sg31
NsS'block.thisN'
p1298
I0
sS'stim.thisN'
p1299
I2
sg1245
g1246
sg1247
g1248
sg21
g22
sg23
I2
sS'trials.thisIndex'
p1300
g1252
sS'stim.thisRepN'
p1301
I0
sg25
g30
sg1254
VS
p1302
sS'trials.thisRepN'
p1303
I3
sS'trials.thisN'
p1304
I3
sg1258
g55
(g79
S'\x03\x00\x00\x00\x00\x00\x00\x00'
p1305
tp1306
Rp1307
sg24
g11
sS'trials.thisTrialN'
p1308
I0
sS'block.thisIndex'
p1309
g89
sg1264
g55
(g79
S'\x04\x00\x00\x00\x00\x00\x00\x00'
p1310
tp1311
Rp1312
sa(dp1313
S'block.thisTrialN'
p1314
I0
sS'stim.thisTrialN'
p1315
I3
sS'block.thisRepN'
p1316
I0
sg1237
g1238
sS'stim.thisIndex'
p1317
g55
(g59
S'\x03\x00\x00\x00'
p1318
tp1319
Rp1320
sg31
NsS'block.thisN'
p1321
I0
sS'stim.thisN'
p1322
I3
sg1245
g1246
sg1247
g1248
sg21
g22
sg23
I2
sS'trials.thisIndex'
p1323
g1252
sS'stim.thisRepN'
p1324
I0
sg25
g30
sg1254
g766
sS'trials.thisRepN'
p1325
I3
sS'trials.thisN'
p1326
I3
sg1258
g55
(g79
S'\x04\x00\x00\x00\x00\x00\x00\x00'
p1327
tp1328
Rp1329
sg24
g11
sS'trials.thisTrialN'
p1330
I0
sS'block.thisIndex'
p1331
g89
sg1264
g55
(g79
S'\x04\x00\x00\x00\x00\x00\x00\x00'
p1332
tp1333
Rp1334
sa(dp1335
S'block.thisTrialN'
p1336
I0
sS'stim.thisTrialN'
p1337
I4
sS'block.thisRepN'
p1338
I0
sg1237
g1238
sS'stim.thisIndex'
p1339
g55
(g59
S'\x04\x00\x00\x00'
p1340
tp1341
Rp1342
sg31
NsS'block.thisN'
p1343
I0
sS'stim.thisN'
p1344
I4
sg1245
g1246
sg1247
Vtarget
p1345
sg21
g22
sg23
I2
sS'trials.thisIndex'
p1346
g1252
sS'stim.thisRepN'
p1347
I0
sg25
g30
sg1254
g244
sS'trials.thisRepN'
p1348
I3
sS'trials.thisN'
p1349
I3
sg1258
g55
(g79
S'\x05\x00\x00\x00\x00\x00\x00\x00'
p1350
tp1351
Rp1352
sg24
g11
sS'trials.thisTrialN'
p1353
I0
sS'block.thisIndex'
p1354
g89
sg1264
g55
(g79
S'\x04\x00\x00\x00\x00\x00\x00\x00'
p1355
tp1356
Rp1357
sa(dp1358
S'block.thisTrialN'
p1359
I0
sS'stim.thisTrialN'
p1360
I5
sS'block.thisRepN'
p1361
I0
sg1237
g1238
sS'stim.thisIndex'
p1362
g55
(g59
S'\x05\x00\x00\x00'
p1363
tp1364
Rp1365
sg31
NsS'block.thisN'
p1366
I0
sS'stim.thisN'
p1367
I5
sg1245
g1246
sg1247
g1248
sg21
g22
sg23
I2
sS'trials.thisIndex'
p1368
g1252
sS'stim.thisRepN'
p1369
I0
sg25
g30
sg1254
VT
p1370
sS'trials.thisRepN'
p1371
I3
sS'trials.thisN'
p1372
I3
sg1258
g55
(g79
S'\x06\x00\x00\x00\x00\x00\x00\x00'
p1373
tp1374
Rp1375
sg24
g11
sS'trials.thisTrialN'
p1376
I0
sS'block.thisIndex'
p1377
g89
sg1264
g55
(g79
S'\x04\x00\x00\x00\x00\x00\x00\x00'
p1378
tp1379
Rp1380
sa(dp1381
S'block.thisTrialN'
p1382
I0
sS'stim.thisTrialN'
p1383
I6
sS'block.thisRepN'
p1384
I0
sg1237
g1238
sS'stim.thisIndex'
p1385
g55
(g59
S'\x06\x00\x00\x00'
p1386
tp1387
Rp1388
sg31
NsS'block.thisN'
p1389
I0
sS'stim.thisN'
p1390
I6
sg1245
g1246
sg1247
g1248
sg21
g22
sg23
I2
sS'trials.thisIndex'
p1391
g1252
sS'stim.thisRepN'
p1392
I0
sg25
g30
sg1254
g1302
sS'trials.thisRepN'
p1393
I3
sS'trials.thisN'
p1394
I3
sg1258
g55
(g79
S'\x07\x00\x00\x00\x00\x00\x00\x00'
p1395
tp1396
Rp1397
sg24
g11
sS'trials.thisTrialN'
p1398
I0
sS'block.thisIndex'
p1399
g89
sg1264
g55
(g79
S'\x04\x00\x00\x00\x00\x00\x00\x00'
p1400
tp1401
Rp1402
sa(dp1403
S'block.thisTrialN'
p1404
I0
sS'stim.thisTrialN'
p1405
I7
sS'block.thisRepN'
p1406
I0
sg1237
g1238
sS'stim.thisIndex'
p1407
g55
(g59
S'\x07\x00\x00\x00'
p1408
tp1409
Rp1410
sg31
NsS'block.thisN'
p1411
I0
sS'stim.thisN'
p1412
I7
sg1245
g1246
sg1247
g1248
sg21
g22
sg23
I2
sS'trials.thisIndex'
p1413
g1252
sS'stim.thisRepN'
p1414
I0
sg25
g30
sg1254
g468
sS'trials.thisRepN'
p1415
I3
sS'trials.thisN'
p1416
I3
sg1258
g55
(g79
S'\x08\x00\x00\x00\x00\x00\x00\x00'
p1417
tp1418
Rp1419
sg24
g11
sS'trials.thisTrialN'
p1420
I0
sS'block.thisIndex'
p1421
g89
sg1264
g55
(g79
S'\x04\x00\x00\x00\x00\x00\x00\x00'
p1422
tp1423
Rp1424
sa(dp1425
S'block.thisTrialN'
p1426
I0
sS'stim.thisTrialN'
p1427
I8
sS'block.thisRepN'
p1428
I0
sg1237
g1238
sS'stim.thisIndex'
p1429
g55
(g59
S'\x08\x00\x00\x00'
p1430
tp1431
Rp1432
sg31
NsS'block.thisN'
p1433
I0
sS'stim.thisN'
p1434
I8
sg1245
g1246
sg1247
g1248
sg21
g22
sg23
I2
sS'trials.thisIndex'
p1435
g1252
sS'stim.thisRepN'
p1436
I0
sg25
g30
sg1254
g584
sS'trials.thisRepN'
p1437
I3
sS'trials.thisN'
p1438
I3
sg1258
g55
(g79
S'\t\x00\x00\x00\x00\x00\x00\x00'
p1439
tp1440
Rp1441
sg24
g11
sS'trials.thisTrialN'
p1442
I0
sS'block.thisIndex'
p1443
g89
sg1264
g55
(g79
S'\x04\x00\x00\x00\x00\x00\x00\x00'
p1444
tp1445
Rp1446
sa(dp1447
S'block.thisTrialN'
p1448
I0
sS'stim.thisTrialN'
p1449
I9
sS'block.thisRepN'
p1450
I0
sg1237
g1238
sS'stim.thisIndex'
p1451
g55
(g59
S'\t\x00\x00\x00'
p1452
tp1453
Rp1454
sg31
NsS'block.thisN'
p1455
I0
sS'stim.thisN'
p1456
I9
sg1245
g1246
sg1247
Vmask
p1457
sg21
g22
sg23
I2
sS'trials.thisIndex'
p1458
g1252
sS'stim.thisRepN'
p1459
I0
sg25
g30
sg1254
g357
sS'trials.thisRepN'
p1460
I3
sS'trials.thisN'
p1461
I3
sg1258
g55
(g79
S'\n\x00\x00\x00\x00\x00\x00\x00'
p1462
tp1463
Rp1464
sg24
g11
sS'trials.thisTrialN'
p1465
I0
sS'block.thisIndex'
p1466
g89
sg1264
g55
(g79
S'\x04\x00\x00\x00\x00\x00\x00\x00'
p1467
tp1468
Rp1469
sa(dp1470
S'block.thisTrialN'
p1471
I0
sS'stim.thisTrialN'
p1472
I10
sS'block.thisRepN'
p1473
I0
sg1237
g1238
sS'stim.thisIndex'
p1474
g55
(g59
S'\n\x00\x00\x00'
p1475
tp1476
Rp1477
sg31
NsS'block.thisN'
p1478
I0
sS'stim.thisN'
p1479
I10
sg1245
g1246
sg1247
g1248
sg21
g22
sg23
I2
sS'trials.thisIndex'
p1480
g1252
sS'stim.thisRepN'
p1481
I0
sg25
g30
sg1254
g1370
sS'trials.thisRepN'
p1482
I3
sS'trials.thisN'
p1483
I3
sg1258
g55
(g79
S'\x0b\x00\x00\x00\x00\x00\x00\x00'
p1484
tp1485
Rp1486
sg24
g11
sS'trials.thisTrialN'
p1487
I0
sS'block.thisIndex'
p1488
g89
sg1264
g55
(g79
S'\x04\x00\x00\x00\x00\x00\x00\x00'
p1489
tp1490
Rp1491
sa(dp1492
S'block.thisTrialN'
p1493
I0
sS'stim.thisTrialN'
p1494
I11
sS'block.thisRepN'
p1495
I0
sg1237
g1238
sS'stim.thisIndex'
p1496
g55
(g59
S'\x0b\x00\x00\x00'
p1497
tp1498
Rp1499
sg31
NsS'block.thisN'
p1500
I0
sS'stim.thisN'
p1501
I11
sg1245
g1246
sg1247
g1248
sg21
g22
sg23
I2
sS'trials.thisIndex'
p1502
g1252
sS'stim.thisRepN'
p1503
I0
sg25
g30
sg1254
g697
sS'trials.thisRepN'
p1504
I3
sS'trials.thisN'
p1505
I3
sg1258
g55
(g79
S'\x0c\x00\x00\x00\x00\x00\x00\x00'
p1506
tp1507
Rp1508
sg24
g11
sS'trials.thisTrialN'
p1509
I0
sS'block.thisIndex'
p1510
g89
sg1264
g55
(g79
S'\x04\x00\x00\x00\x00\x00\x00\x00'
p1511
tp1512
Rp1513
sa(dp1514
S'block.thisTrialN'
p1515
I0
sS'stim.thisTrialN'
p1516
I12
sS'block.thisRepN'
p1517
I0
sg1237
g1238
sS'stim.thisIndex'
p1518
g55
(g59
S'\x0c\x00\x00\x00'
p1519
tp1520
Rp1521
sg31
NsS'block.thisN'
p1522
I0
sS'stim.thisN'
p1523
I12
sg1245
g1246
sg1247
g1248
sg21
g22
sg23
I2
sS'trials.thisIndex'
p1524
g1252
sS'stim.thisRepN'
p1525
I0
sg25
g30
sg1254
g220
sS'trials.thisRepN'
p1526
I3
sS'trials.thisN'
p1527
I3
sg1258
g55
(g79
S'\r\x00\x00\x00\x00\x00\x00\x00'
p1528
tp1529
Rp1530
sg24
g11
sS'trials.thisTrialN'
p1531
I0
sS'block.thisIndex'
p1532
g89
sg1264
g55
(g79
S'\x04\x00\x00\x00\x00\x00\x00\x00'
p1533
tp1534
Rp1535
sa(dp1536
S'block.thisTrialN'
p1537
I0
sS'stim.thisTrialN'
p1538
I13
sS'block.thisRepN'
p1539
I0
sg1237
g1238
sS'stim.thisIndex'
p1540
g55
(g59
S'\r\x00\x00\x00'
p1541
tp1542
Rp1543
sg31
NsS'block.thisN'
p1544
I0
sS'stim.thisN'
p1545
I13
sg1245
g1246
sg1247
g1248
sg21
g22
sg23
I2
sS'trials.thisIndex'
p1546
g1252
sS'stim.thisRepN'
p1547
I0
sg25
g30
sg1254
g1370
sS'trials.thisRepN'
p1548
I3
sS'trials.thisN'
p1549
I3
sg1258
g55
(g79
S'\x0e\x00\x00\x00\x00\x00\x00\x00'
p1550
tp1551
Rp1552
sg24
g11
sS'trials.thisTrialN'
p1553
I0
sS'block.thisIndex'
p1554
g89
sg1264
g55
(g79
S'\x04\x00\x00\x00\x00\x00\x00\x00'
p1555
tp1556
Rp1557
sa(dp1558
S'block.thisTrialN'
p1559
I0
sS'stim.thisTrialN'
p1560
I14
sS'block.thisRepN'
p1561
I0
sg1237
g1238
sS'stim.thisIndex'
p1562
g55
(g59
S'\x0e\x00\x00\x00'
p1563
tp1564
Rp1565
sg31
NsS'block.thisN'
p1566
I0
sS'stim.thisN'
p1567
I14
sg1245
g1246
sg1247
g1248
sg21
g22
sg23
I2
sS'trials.thisIndex'
p1568
g1252
sS'stim.thisRepN'
p1569
I0
sg25
g30
sg1254
g766
sS'trials.thisRepN'
p1570
I3
sS'trials.thisN'
p1571
I3
sg1258
g55
(g79
S'\x0f\x00\x00\x00\x00\x00\x00\x00'
p1572
tp1573
Rp1574
sg24
g11
sS'trials.thisTrialN'
p1575
I0
sS'block.thisIndex'
p1576
g89
sg1264
g55
(g79
S'\x04\x00\x00\x00\x00\x00\x00\x00'
p1577
tp1578
Rp1579
sa(dp1580
S'block.thisTrialN'
p1581
I0
sS'block.thisRepN'
p1582
I0
sg16
g439
sS'trials.thisRepN'
p1583
I3
sg15
F0.9097141999955056
sg25
g30
sS'block.thisN'
p1584
I0
sg31
NsS'trials.thisN'
p1585
I3
sg14
g439
sg24
g11
sS'trials.thisTrialN'
p1586
I0
sS'trials.thisIndex'
p1587
g1252
sg21
g22
sg23
I2
sS'block.thisIndex'
p1588
g89
sg17
F0.31895289999374654
sa(dp1589
S'block.thisTrialN'
p1590
I0
sS'block.thisRepN'
p1591
I0
sg31
Nsg25
g30
sS'block.thisN'
p1592
I0
sg24
g11
sg21
g22
sg23
I2
sS'block.thisIndex'
p1593
g89
sa(dp1594
S'block.thisTrialN'
p1595
I0
sS'stim.thisTrialN'
p1596
I0
sS'block.thisRepN'
p1597
I1
sS'Tx'
p1598
Vt1
p1599
sS'stim.thisIndex'
p1600
g55
(g59
S'\x00\x00\x00\x00'
p1601
tp1602
Rp1603
sg31
NsS'block.thisN'
p1604
I1
sS'stim.thisN'
p1605
I0
sS'sep_dur'
p1606
Vshort
p1607
sS'cond'
p1608
Vdistractor
p1609
sg21
g22
sg23
I2
sS'trials.thisIndex'
p1610
g55
(g59
S'\x00\x00\x00\x00'
p1611
tp1612
Rp1613
sS'stim.thisRepN'
p1614
I0
sg25
g30
sS'stimulus'
p1615
g74
sS'trials.thisRepN'
p1616
I0
sS'trials.thisN'
p1617
I0
sS'trial'
p1618
g55
(g79
S'\x01\x00\x00\x00\x00\x00\x00\x00'
p1619
tp1620
Rp1621
sg24
g11
sS'trials.thisTrialN'
p1622
I0
sS'block.thisIndex'
p1623
g55
(g59
S'\x00\x00\x00\x00'
p1624
tp1625
Rp1626
sS'block'
p1627
g55
(g79
S'\x05\x00\x00\x00\x00\x00\x00\x00'
p1628
tp1629
Rp1630
sa(dp1631
S'block.thisTrialN'
p1632
I0
sS'stim.thisTrialN'
p1633
I1
sS'block.thisRepN'
p1634
I1
sg1598
g1599
sS'stim.thisIndex'
p1635
g55
(g59
S'\x01\x00\x00\x00'
p1636
tp1637
Rp1638
sg31
NsS'block.thisN'
p1639
I1
sS'stim.thisN'
p1640
I1
sg1606
g1607
sg1608
g1609
sg21
g22
sg23
I2
sS'trials.thisIndex'
p1641
g1613
sS'stim.thisRepN'
p1642
I0
sg25
g30
sg1615
g811
sS'trials.thisRepN'
p1643
I0
sS'trials.thisN'
p1644
I0
sg1618
g55
(g79
S'\x02\x00\x00\x00\x00\x00\x00\x00'
p1645
tp1646
Rp1647
sg24
g11
sS'trials.thisTrialN'
p1648
I0
sS'block.thisIndex'
p1649
g1626
sg1627
g55
(g79
S'\x05\x00\x00\x00\x00\x00\x00\x00'
p1650
tp1651
Rp1652
sa(dp1653
S'block.thisTrialN'
p1654
I0
sS'stim.thisTrialN'
p1655
I2
sS'block.thisRepN'
p1656
I1
sg1598
g1599
sS'stim.thisIndex'
p1657
g55
(g59
S'\x02\x00\x00\x00'
p1658
tp1659
Rp1660
sg31
NsS'block.thisN'
p1661
I1
sS'stim.thisN'
p1662
I2
sg1606
g1607
sg1608
g1609
sg21
g22
sg23
I2
sS'trials.thisIndex'
p1663
g1613
sS'stim.thisRepN'
p1664
I0
sg25
g30
sg1615
g561
sS'trials.thisRepN'
p1665
I0
sS'trials.thisN'
p1666
I0
sg1618
g55
(g79
S'\x03\x00\x00\x00\x00\x00\x00\x00'
p1667
tp1668
Rp1669
sg24
g11
sS'trials.thisTrialN'
p1670
I0
sS'block.thisIndex'
p1671
g1626
sg1627
g55
(g79
S'\x05\x00\x00\x00\x00\x00\x00\x00'
p1672
tp1673
Rp1674
sa(dp1675
S'block.thisTrialN'
p1676
I0
sS'stim.thisTrialN'
p1677
I3
sS'block.thisRepN'
p1678
I1
sg1598
g1599
sS'stim.thisIndex'
p1679
g55
(g59
S'\x03\x00\x00\x00'
p1680
tp1681
Rp1682
sg31
NsS'block.thisN'
p1683
I1
sS'stim.thisN'
p1684
I3
sg1606
g1607
sg1608
g1609
sg21
g22
sg23
I2
sS'trials.thisIndex'
p1685
g1613
sS'stim.thisRepN'
p1686
I0
sg25
g30
sg1615
g1213
sS'trials.thisRepN'
p1687
I0
sS'trials.thisN'
p1688
I0
sg1618
g55
(g79
S'\x04\x00\x00\x00\x00\x00\x00\x00'
p1689
tp1690
Rp1691
sg24
g11
sS'trials.thisTrialN'
p1692
I0
sS'block.thisIndex'
p1693
g1626
sg1627
g55
(g79
S'\x05\x00\x00\x00\x00\x00\x00\x00'
p1694
tp1695
Rp1696
sa(dp1697
S'block.thisTrialN'
p1698
I0
sS'stim.thisTrialN'
p1699
I4
sS'block.thisRepN'
p1700
I1
sg1598
g1599
sS'stim.thisIndex'
p1701
g55
(g59
S'\x04\x00\x00\x00'
p1702
tp1703
Rp1704
sg31
NsS'block.thisN'
p1705
I1
sS'stim.thisN'
p1706
I4
sg1606
g1607
sg1608
g1609
sg21
g22
sg23
I2
sS'trials.thisIndex'
p1707
g1613
sS'stim.thisRepN'
p1708
I0
sg25
g30
sg1615
g267
sS'trials.thisRepN'
p1709
I0
sS'trials.thisN'
p1710
I0
sg1618
g55
(g79
S'\x05\x00\x00\x00\x00\x00\x00\x00'
p1711
tp1712
Rp1713
sg24
g11
sS'trials.thisTrialN'
p1714
I0
sS'block.thisIndex'
p1715
g1626
sg1627
g55
(g79
S'\x05\x00\x00\x00\x00\x00\x00\x00'
p1716
tp1717
Rp1718
sa(dp1719
S'block.thisTrialN'
p1720
I0
sS'stim.thisTrialN'
p1721
I5
sS'block.thisRepN'
p1722
I1
sg1598
g1599
sS'stim.thisIndex'
p1723
g55
(g59
S'\x05\x00\x00\x00'
p1724
tp1725
Rp1726
sg31
NsS'block.thisN'
p1727
I1
sS'stim.thisN'
p1728
I5
sg1606
g1607
sg1608
g1609
sg21
g22
sg23
I2
sS'trials.thisIndex'
p1729
g1613
sS'stim.thisRepN'
p1730
I0
sg25
g30
sg1615
g1213
sS'trials.thisRepN'
p1731
I0
sS'trials.thisN'
p1732
I0
sg1618
g55
(g79
S'\x06\x00\x00\x00\x00\x00\x00\x00'
p1733
tp1734
Rp1735
sg24
g11
sS'trials.thisTrialN'
p1736
I0
sS'block.thisIndex'
p1737
g1626
sg1627
g55
(g79
S'\x05\x00\x00\x00\x00\x00\x00\x00'
p1738
tp1739
Rp1740
sa(dp1741
S'block.thisTrialN'
p1742
I0
sS'stim.thisTrialN'
p1743
I6
sS'block.thisRepN'
p1744
I1
sg1598
g1599
sS'stim.thisIndex'
p1745
g55
(g59
S'\x06\x00\x00\x00'
p1746
tp1747
Rp1748
sg31
NsS'block.thisN'
p1749
I1
sS'stim.thisN'
p1750
I6
sg1606
g1607
sg1608
g1609
sg21
g22
sg23
I2
sS'trials.thisIndex'
p1751
g1613
sS'stim.thisRepN'
p1752
I0
sg25
g30
sg1615
g267
sS'trials.thisRepN'
p1753
I0
sS'trials.thisN'
p1754
I0
sg1618
g55
(g79
S'\x07\x00\x00\x00\x00\x00\x00\x00'
p1755
tp1756
Rp1757
sg24
g11
sS'trials.thisTrialN'
p1758
I0
sS'block.thisIndex'
p1759
g1626
sg1627
g55
(g79
S'\x05\x00\x00\x00\x00\x00\x00\x00'
p1760
tp1761
Rp1762
sa(dp1763
S'block.thisTrialN'
p1764
I0
sS'stim.thisTrialN'
p1765
I7
sS'block.thisRepN'
p1766
I1
sg1598
g1599
sS'stim.thisIndex'
p1767
g55
(g59
S'\x07\x00\x00\x00'
p1768
tp1769
Rp1770
sg31
NsS'block.thisN'
p1771
I1
sS'stim.thisN'
p1772
I7
sg1606
g1607
sg1608
g1609
sg21
g22
sg23
I2
sS'trials.thisIndex'
p1773
g1613
sS'stim.thisRepN'
p1774
I0
sg25
g30
sg1615
g1302
sS'trials.thisRepN'
p1775
I0
sS'trials.thisN'
p1776
I0
sg1618
g55
(g79
S'\x08\x00\x00\x00\x00\x00\x00\x00'
p1777
tp1778
Rp1779
sg24
g11
sS'trials.thisTrialN'
p1780
I0
sS'block.thisIndex'
p1781
g1626
sg1627
g55
(g79
S'\x05\x00\x00\x00\x00\x00\x00\x00'
p1782
tp1783
Rp1784
sa(dp1785
S'block.thisTrialN'
p1786
I0
sS'stim.thisTrialN'
p1787
I8
sS'block.thisRepN'
p1788
I1
sg1598
g1599
sS'stim.thisIndex'
p1789
g55
(g59
S'\x08\x00\x00\x00'
p1790
tp1791
Rp1792
sg31
NsS'block.thisN'
p1793
I1
sS'stim.thisN'
p1794
I8
sg1606
g1607
sg1608
g1609
sg21
g22
sg23
I2
sS'trials.thisIndex'
p1795
g1613
sS'stim.thisRepN'
p1796
I0
sg25
g30
sg1615
g1255
sS'trials.thisRepN'
p1797
I0
sS'trials.thisN'
p1798
I0
sg1618
g55
(g79
S'\t\x00\x00\x00\x00\x00\x00\x00'
p1799
tp1800
Rp1801
sg24
g11
sS'trials.thisTrialN'
p1802
I0
sS'block.thisIndex'
p1803
g1626
sg1627
g55
(g79
S'\x05\x00\x00\x00\x00\x00\x00\x00'
p1804
tp1805
Rp1806
sa(dp1807
S'block.thisTrialN'
p1808
I0
sS'stim.thisTrialN'
p1809
I9
sS'block.thisRepN'
p1810
I1
sg1598
g1599
sS'stim.thisIndex'
p1811
g55
(g59
S'\t\x00\x00\x00'
p1812
tp1813
Rp1814
sg31
NsS'block.thisN'
p1815
I1
sS'stim.thisN'
p1816
I9
sg1606
g1607
sg1608
Vtarget
p1817
sg21
g22
sg23
I2
sS'trials.thisIndex'
p1818
g1613
sS'stim.thisRepN'
p1819
I0
sg25
g30
sg1615
g1100
sS'trials.thisRepN'
p1820
I0
sS'trials.thisN'
p1821
I0
sg1618
g55
(g79
S'\n\x00\x00\x00\x00\x00\x00\x00'
p1822
tp1823
Rp1824
sg24
g11
sS'trials.thisTrialN'
p1825
I0
sS'block.thisIndex'
p1826
g1626
sg1627
g55
(g79
S'\x05\x00\x00\x00\x00\x00\x00\x00'
p1827
tp1828
Rp1829
sa(dp1830
S'block.thisTrialN'
p1831
I0
sS'stim.thisTrialN'
p1832
I10
sS'block.thisRepN'
p1833
I1
sg1598
g1599
sS'stim.thisIndex'
p1834
g55
(g59
S'\n\x00\x00\x00'
p1835
tp1836
Rp1837
sg31
NsS'block.thisN'
p1838
I1
sS'stim.thisN'
p1839
I10
sg1606
g1607
sg1608
g1609
sg21
g22
sg23
I2
sS'trials.thisIndex'
p1840
g1613
sS'stim.thisRepN'
p1841
I0
sg25
g30
sg1615
g105
sS'trials.thisRepN'
p1842
I0
sS'trials.thisN'
p1843
I0
sg1618
g55
(g79
S'\x0b\x00\x00\x00\x00\x00\x00\x00'
p1844
tp1845
Rp1846
sg24
g11
sS'trials.thisTrialN'
p1847
I0
sS'block.thisIndex'
p1848
g1626
sg1627
g55
(g79
S'\x05\x00\x00\x00\x00\x00\x00\x00'
p1849
tp1850
Rp1851
sa(dp1852
S'block.thisTrialN'
p1853
I0
sS'stim.thisTrialN'
p1854
I11
sS'block.thisRepN'
p1855
I1
sg1598
g1599
sS'stim.thisIndex'
p1856
g55
(g59
S'\x0b\x00\x00\x00'
p1857
tp1858
Rp1859
sg31
NsS'block.thisN'
p1860
I1
sS'stim.thisN'
p1861
I11
sg1606
g1607
sg1608
g1609
sg21
g22
sg23
I2
sS'trials.thisIndex'
p1862
g1613
sS'stim.thisRepN'
p1863
I0
sg25
g30
sg1615
g128
sS'trials.thisRepN'
p1864
I0
sS'trials.thisN'
p1865
I0
sg1618
g55
(g79
S'\x0c\x00\x00\x00\x00\x00\x00\x00'
p1866
tp1867
Rp1868
sg24
g11
sS'trials.thisTrialN'
p1869
I0
sS'block.thisIndex'
p1870
g1626
sg1627
g55
(g79
S'\x05\x00\x00\x00\x00\x00\x00\x00'
p1871
tp1872
Rp1873
sa(dp1874
S'block.thisTrialN'
p1875
I0
sS'stim.thisTrialN'
p1876
I12
sS'block.thisRepN'
p1877
I1
sg1598
g1599
sS'stim.thisIndex'
p1878
g55
(g59
S'\x0c\x00\x00\x00'
p1879
tp1880
Rp1881
sg31
NsS'block.thisN'
p1882
I1
sS'stim.thisN'
p1883
I12
sg1606
g1607
sg1608
g1609
sg21
g22
sg23
I2
sS'trials.thisIndex'
p1884
g1613
sS'stim.thisRepN'
p1885
I0
sg25
g30
sg1615
g1123
sS'trials.thisRepN'
p1886
I0
sS'trials.thisN'
p1887
I0
sg1618
g55
(g79
S'\r\x00\x00\x00\x00\x00\x00\x00'
p1888
tp1889
Rp1890
sg24
g11
sS'trials.thisTrialN'
p1891
I0
sS'block.thisIndex'
p1892
g1626
sg1627
g55
(g79
S'\x05\x00\x00\x00\x00\x00\x00\x00'
p1893
tp1894
Rp1895
sa(dp1896
S'block.thisTrialN'
p1897
I0
sS'stim.thisTrialN'
p1898
I13
sS'block.thisRepN'
p1899
I1
sg1598
g1599
sS'stim.thisIndex'
p1900
g55
(g59
S'\r\x00\x00\x00'
p1901
tp1902
Rp1903
sg31
NsS'block.thisN'
p1904
I1
sS'stim.thisN'
p1905
I13
sg1606
g1607
sg1608
g1609
sg21
g22
sg23
I2
sS'trials.thisIndex'
p1906
g1613
sS'stim.thisRepN'
p1907
I0
sg25
g30
sg1615
g1123
sS'trials.thisRepN'
p1908
I0
sS'trials.thisN'
p1909
I0
sg1618
g55
(g79
S'\x0e\x00\x00\x00\x00\x00\x00\x00'
p1910
tp1911
Rp1912
sg24
g11
sS'trials.thisTrialN'
p1913
I0
sS'block.thisIndex'
p1914
g1626
sg1627
g55
(g79
S'\x05\x00\x00\x00\x00\x00\x00\x00'
p1915
tp1916
Rp1917
sa(dp1918
S'block.thisTrialN'
p1919
I0
sS'stim.thisTrialN'
p1920
I14
sS'block.thisRepN'
p1921
I1
sg1598
g1599
sS'stim.thisIndex'
p1922
g55
(g59
S'\x0e\x00\x00\x00'
p1923
tp1924
Rp1925
sg31
NsS'block.thisN'
p1926
I1
sS'stim.thisN'
p1927
I14
sg1606
g1607
sg1608
Vmask
p1928
sg21
g22
sg23
I2
sS'trials.thisIndex'
p1929
g1613
sS'stim.thisRepN'
p1930
I0
sg25
g30
sg1615
g357
sS'trials.thisRepN'
p1931
I0
sS'trials.thisN'
p1932
I0
sg1618
g55
(g79
S'\x0f\x00\x00\x00\x00\x00\x00\x00'
p1933
tp1934
Rp1935
sg24
g11
sS'trials.thisTrialN'
p1936
I0
sS'block.thisIndex'
p1937
g1626
sg1627
g55
(g79
S'\x05\x00\x00\x00\x00\x00\x00\x00'
p1938
tp1939
Rp1940
sa(dp1941
S'block.thisTrialN'
p1942
I0
sS'stim.thisTrialN'
p1943
I15
sS'block.thisRepN'
p1944
I1
sg1598
g1599
sS'stim.thisIndex'
p1945
g55
(g59
S'\x0f\x00\x00\x00'
p1946
tp1947
Rp1948
sg31
NsS'block.thisN'
p1949
I1
sS'stim.thisN'
p1950
I15
sg1606
g1607
sg1608
g1609
sg21
g22
sg23
I2
sS'trials.thisIndex'
p1951
g1613
sS'stim.thisRepN'
p1952
I0
sg25
g30
sg1615
g515
sS'trials.thisRepN'
p1953
I0
sS'trials.thisN'
p1954
I0
sg1618
g55
(g79
S'\x10\x00\x00\x00\x00\x00\x00\x00'
p1955
tp1956
Rp1957
sg24
g11
sS'trials.thisTrialN'
p1958
I0
sS'block.thisIndex'
p1959
g1626
sg1627
g55
(g79
S'\x05\x00\x00\x00\x00\x00\x00\x00'
p1960
tp1961
Rp1962
sa(dp1963
S'block.thisTrialN'
p1964
I0
sS'block.thisRepN'
p1965
I1
sg16
g439
sS'trials.thisRepN'
p1966
I0
sg15
F0.6064210000040475
sg25
g30
sS'block.thisN'
p1967
I1
sg31
NsS'trials.thisN'
p1968
I0
sg14
g439
sg24
g11
sS'trials.thisTrialN'
p1969
I0
sS'trials.thisIndex'
p1970
g1613
sg21
g22
sg23
I2
sS'block.thisIndex'
p1971
g1626
sg17
F0.31687300000339746
sa(dp1972
S'block.thisTrialN'
p1973
I0
sS'stim.thisTrialN'
p1974
I0
sS'block.thisRepN'
p1975
I1
sS'Tx'
p1976
Vt2
p1977
sS'stim.thisIndex'
p1978
g55
(g59
S'\x00\x00\x00\x00'
p1979
tp1980
Rp1981
sg31
NsS'block.thisN'
p1982
I1
sS'stim.thisN'
p1983
I0
sS'sep_dur'
p1984
Vlong
p1985
sS'cond'
p1986
Vdistractor
p1987
sg21
g22
sg23
I2
sS'trials.thisIndex'
p1988
g55
(g59
S'\x00\x00\x00\x00'
p1989
tp1990
Rp1991
sS'stim.thisRepN'
p1992
I0
sg25
g30
sS'stimulus'
p1993
g174
sS'trials.thisRepN'
p1994
I1
sS'trials.thisN'
p1995
I1
sS'trial'
p1996
g55
(g79
S'\x01\x00\x00\x00\x00\x00\x00\x00'
p1997
tp1998
Rp1999
sg24
g11
sS'trials.thisTrialN'
p2000
I0
sS'block.thisIndex'
p2001
g1626
sS'block'
p2002
g55
(g79
S'\x06\x00\x00\x00\x00\x00\x00\x00'
p2003
tp2004
Rp2005
sa(dp2006
S'block.thisTrialN'
p2007
I0
sS'stim.thisTrialN'
p2008
I1
sS'block.thisRepN'
p2009
I1
sg1976
g1977
sS'stim.thisIndex'
p2010
g55
(g59
S'\x01\x00\x00\x00'
p2011
tp2012
Rp2013
sg31
NsS'block.thisN'
p2014
I1
sS'stim.thisN'
p2015
I1
sg1984
g1985
sg1986
Vtarget
p2016
sg21
g22
sg23
I2
sS'trials.thisIndex'
p2017
g1991
sS'stim.thisRepN'
p2018
I0
sg25
g30
sg1993
g630
sS'trials.thisRepN'
p2019
I1
sS'trials.thisN'
p2020
I1
sg1996
g55
(g79
S'\x02\x00\x00\x00\x00\x00\x00\x00'
p2021
tp2022
Rp2023
sg24
g11
sS'trials.thisTrialN'
p2024
I0
sS'block.thisIndex'
p2025
g1626
sg2002
g55
(g79
S'\x06\x00\x00\x00\x00\x00\x00\x00'
p2026
tp2027
Rp2028
sa(dp2029
S'block.thisTrialN'
p2030
I0
sS'stim.thisTrialN'
p2031
I2
sS'block.thisRepN'
p2032
I1
sg1976
g1977
sS'stim.thisIndex'
p2033
g55
(g59
S'\x02\x00\x00\x00'
p2034
tp2035
Rp2036
sg31
NsS'block.thisN'
p2037
I1
sS'stim.thisN'
p2038
I2
sg1984
g1985
sg1986
g1987
sg21
g22
sg23
I2
sS'trials.thisIndex'
p2039
g1991
sS'stim.thisRepN'
p2040
I0
sg25
g30
sg1993
g697
sS'trials.thisRepN'
p2041
I1
sS'trials.thisN'
p2042
I1
sg1996
g55
(g79
S'\x03\x00\x00\x00\x00\x00\x00\x00'
p2043
tp2044
Rp2045
sg24
g11
sS'trials.thisTrialN'
p2046
I0
sS'block.thisIndex'
p2047
g1626
sg2002
g55
(g79
S'\x06\x00\x00\x00\x00\x00\x00\x00'
p2048
tp2049
Rp2050
sa(dp2051
S'block.thisTrialN'
p2052
I0
sS'stim.thisTrialN'
p2053
I3
sS'block.thisRepN'
p2054
I1
sg1976
g1977
sS'stim.thisIndex'
p2055
g55
(g59
S'\x03\x00\x00\x00'
p2056
tp2057
Rp2058
sg31
NsS'block.thisN'
p2059
I1
sS'stim.thisN'
p2060
I3
sg1984
g1985
sg1986
g1987
sg21
g22
sg23
I2
sS'trials.thisIndex'
p2061
g1991
sS'stim.thisRepN'
p2062
I0
sg25
g30
sg1993
g945
sS'trials.thisRepN'
p2063
I1
sS'trials.thisN'
p2064
I1
sg1996
g55
(g79
S'\x04\x00\x00\x00\x00\x00\x00\x00'
p2065
tp2066
Rp2067
sg24
g11
sS'trials.thisTrialN'
p2068
I0
sS'block.thisIndex'
p2069
g1626
sg2002
g55
(g79
S'\x06\x00\x00\x00\x00\x00\x00\x00'
p2070
tp2071
Rp2072
sa(dp2073
S'block.thisTrialN'
p2074
I0
sS'stim.thisTrialN'
p2075
I4
sS'block.thisRepN'
p2076
I1
sg1976
g1977
sS'stim.thisIndex'
p2077
g55
(g59
S'\x04\x00\x00\x00'
p2078
tp2079
Rp2080
sg31
NsS'block.thisN'
p2081
I1
sS'stim.thisN'
p2082
I4
sg1984
g1985
sg1986
g1987
sg21
g22
sg23
I2
sS'trials.thisIndex'
p2083
g1991
sS'stim.thisRepN'
p2084
I0
sg25
g30
sg1993
g1123
sS'trials.thisRepN'
p2085
I1
sS'trials.thisN'
p2086
I1
sg1996
g55
(g79
S'\x05\x00\x00\x00\x00\x00\x00\x00'
p2087
tp2088
Rp2089
sg24
g11
sS'trials.thisTrialN'
p2090
I0
sS'block.thisIndex'
p2091
g1626
sg2002
g55
(g79
S'\x06\x00\x00\x00\x00\x00\x00\x00'
p2092
tp2093
Rp2094
sa(dp2095
S'block.thisTrialN'
p2096
I0
sS'stim.thisTrialN'
p2097
I5
sS'block.thisRepN'
p2098
I1
sg1976
g1977
sS'stim.thisIndex'
p2099
g55
(g59
S'\x05\x00\x00\x00'
p2100
tp2101
Rp2102
sg31
NsS'block.thisN'
p2103
I1
sS'stim.thisN'
p2104
I5
sg1984
g1985
sg1986
g1987
sg21
g22
sg23
I2
sS'trials.thisIndex'
p2105
g1991
sS'stim.thisRepN'
p2106
I0
sg25
g30
sg1993
g197
sS'trials.thisRepN'
p2107
I1
sS'trials.thisN'
p2108
I1
sg1996
g55
(g79
S'\x06\x00\x00\x00\x00\x00\x00\x00'
p2109
tp2110
Rp2111
sg24
g11
sS'trials.thisTrialN'
p2112
I0
sS'block.thisIndex'
p2113
g1626
sg2002
g55
(g79
S'\x06\x00\x00\x00\x00\x00\x00\x00'
p2114
tp2115
Rp2116
sa(dp2117
S'block.thisTrialN'
p2118
I0
sS'stim.thisTrialN'
p2119
I6
sS'block.thisRepN'
p2120
I1
sg1976
g1977
sS'stim.thisIndex'
p2121
g55
(g59
S'\x06\x00\x00\x00'
p2122
tp2123
Rp2124
sg31
NsS'block.thisN'
p2125
I1
sS'stim.thisN'
p2126
I6
sg1984
g1985
sg1986
g1987
sg21
g22
sg23
I2
sS'trials.thisIndex'
p2127
g1991
sS'stim.thisRepN'
p2128
I0
sg25
g30
sg1993
g584
sS'trials.thisRepN'
p2129
I1
sS'trials.thisN'
p2130
I1
sg1996
g55
(g79
S'\x07\x00\x00\x00\x00\x00\x00\x00'
p2131
tp2132
Rp2133
sg24
g11
sS'trials.thisTrialN'
p2134
I0
sS'block.thisIndex'
p2135
g1626
sg2002
g55
(g79
S'\x06\x00\x00\x00\x00\x00\x00\x00'
p2136
tp2137
Rp2138
sa(dp2139
S'block.thisTrialN'
p2140
I0
sS'stim.thisTrialN'
p2141
I7
sS'block.thisRepN'
p2142
I1
sg1976
g1977
sS'stim.thisIndex'
p2143
g55
(g59
S'\x07\x00\x00\x00'
p2144
tp2145
Rp2146
sg31
NsS'block.thisN'
p2147
I1
sS'stim.thisN'
p2148
I7
sg1984
g1985
sg1986
g1987
sg21
g22
sg23
I2
sS'trials.thisIndex'
p2149
g1991
sS'stim.thisRepN'
p2150
I0
sg25
g30
sg1993
g151
sS'trials.thisRepN'
p2151
I1
sS'trials.thisN'
p2152
I1
sg1996
g55
(g79
S'\x08\x00\x00\x00\x00\x00\x00\x00'
p2153
tp2154
Rp2155
sg24
g11
sS'trials.thisTrialN'
p2156
I0
sS'block.thisIndex'
p2157
g1626
sg2002
g55
(g79
S'\x06\x00\x00\x00\x00\x00\x00\x00'
p2158
tp2159
Rp2160
sa(dp2161
S'block.thisTrialN'
p2162
I0
sS'stim.thisTrialN'
p2163
I8
sS'block.thisRepN'
p2164
I1
sg1976
g1977
sS'stim.thisIndex'
p2165
g55
(g59
S'\x08\x00\x00\x00'
p2166
tp2167
Rp2168
sg31
NsS'block.thisN'
p2169
I1
sS'stim.thisN'
p2170
I8
sg1984
g1985
sg1986
g1987
sg21
g22
sg23
I2
sS'trials.thisIndex'
p2171
g1991
sS'stim.thisRepN'
p2172
I0
sg25
g30
sg1993
g720
sS'trials.thisRepN'
p2173
I1
sS'trials.thisN'
p2174
I1
sg1996
g55
(g79
S'\t\x00\x00\x00\x00\x00\x00\x00'
p2175
tp2176
Rp2177
sg24
g11
sS'trials.thisTrialN'
p2178
I0
sS'block.thisIndex'
p2179
g1626
sg2002
g55
(g79
S'\x06\x00\x00\x00\x00\x00\x00\x00'
p2180
tp2181
Rp2182
sa(dp2183
S'block.thisTrialN'
p2184
I0
sS'stim.thisTrialN'
p2185
I9
sS'block.thisRepN'
p2186
I1
sg1976
g1977
sS'stim.thisIndex'
p2187
g55
(g59
S'\t\x00\x00\x00'
p2188
tp2189
Rp2190
sg31
NsS'block.thisN'
p2191
I1
sS'stim.thisN'
p2192
I9
sg1984
g1985
sg1986
g1987
sg21
g22
sg23
I2
sS'trials.thisIndex'
p2193
g1991
sS'stim.thisRepN'
p2194
I0
sg25
g30
sg1993
g875
sS'trials.thisRepN'
p2195
I1
sS'trials.thisN'
p2196
I1
sg1996
g55
(g79
S'\n\x00\x00\x00\x00\x00\x00\x00'
p2197
tp2198
Rp2199
sg24
g11
sS'trials.thisTrialN'
p2200
I0
sS'block.thisIndex'
p2201
g1626
sg2002
g55
(g79
S'\x06\x00\x00\x00\x00\x00\x00\x00'
p2202
tp2203
Rp2204
sa(dp2205
S'block.thisTrialN'
p2206
I0
sS'stim.thisTrialN'
p2207
I10
sS'block.thisRepN'
p2208
I1
sg1976
g1977
sS'stim.thisIndex'
p2209
g55
(g59
S'\n\x00\x00\x00'
p2210
tp2211
Rp2212
sg31
NsS'block.thisN'
p2213
I1
sS'stim.thisN'
p2214
I10
sg1984
g1985
sg1986
g2016
sg21
g22
sg23
I2
sS'trials.thisIndex'
p2215
g1991
sS'stim.thisRepN'
p2216
I0
sg25
g30
sg1993
V6
p2217
sS'trials.thisRepN'
p2218
I1
sS'trials.thisN'
p2219
I1
sg1996
g55
(g79
S'\x0b\x00\x00\x00\x00\x00\x00\x00'
p2220
tp2221
Rp2222
sg24
g11
sS'trials.thisTrialN'
p2223
I0
sS'block.thisIndex'
p2224
g1626
sg2002
g55
(g79
S'\x06\x00\x00\x00\x00\x00\x00\x00'
p2225
tp2226
Rp2227
sa(dp2228
S'block.thisTrialN'
p2229
I0
sS'stim.thisTrialN'
p2230
I11
sS'block.thisRepN'
p2231
I1
sg1976
g1977
sS'stim.thisIndex'
p2232
g55
(g59
S'\x0b\x00\x00\x00'
p2233
tp2234
Rp2235
sg31
NsS'block.thisN'
p2236
I1
sS'stim.thisN'
p2237
I11
sg1984
g1985
sg1986
g1987
sg21
g22
sg23
I2
sS'trials.thisIndex'
p2238
g1991
sS'stim.thisRepN'
p2239
I0
sg25
g30
sg1993
g1302
sS'trials.thisRepN'
p2240
I1
sS'trials.thisN'
p2241
I1
sg1996
g55
(g79
S'\x0c\x00\x00\x00\x00\x00\x00\x00'
p2242
tp2243
Rp2244
sg24
g11
sS'trials.thisTrialN'
p2245
I0
sS'block.thisIndex'
p2246
g1626
sg2002
g55
(g79
S'\x06\x00\x00\x00\x00\x00\x00\x00'
p2247
tp2248
Rp2249
sa(dp2250
S'block.thisTrialN'
p2251
I0
sS'stim.thisTrialN'
p2252
I12
sS'block.thisRepN'
p2253
I1
sg1976
g1977
sS'stim.thisIndex'
p2254
g55
(g59
S'\x0c\x00\x00\x00'
p2255
tp2256
Rp2257
sg31
NsS'block.thisN'
p2258
I1
sS'stim.thisN'
p2259
I12
sg1984
g1985
sg1986
g1987
sg21
g22
sg23
I2
sS'trials.thisIndex'
p2260
g1991
sS'stim.thisRepN'
p2261
I0
sg25
g30
sg1993
g811
sS'trials.thisRepN'
p2262
I1
sS'trials.thisN'
p2263
I1
sg1996
g55
(g79
S'\r\x00\x00\x00\x00\x00\x00\x00'
p2264
tp2265
Rp2266
sg24
g11
sS'trials.thisTrialN'
p2267
I0
sS'block.thisIndex'
p2268
g1626
sg2002
g55
(g79
S'\x06\x00\x00\x00\x00\x00\x00\x00'
p2269
tp2270
Rp2271
sa(dp2272
S'block.thisTrialN'
p2273
I0
sS'stim.thisTrialN'
p2274
I13
sS'block.thisRepN'
p2275
I1
sg1976
g1977
sS'stim.thisIndex'
p2276
g55
(g59
S'\r\x00\x00\x00'
p2277
tp2278
Rp2279
sg31
NsS'block.thisN'
p2280
I1
sS'stim.thisN'
p2281
I13
sg1984
g1985
sg1986
g1987
sg21
g22
sg23
I2
sS'trials.thisIndex'
p2282
g1991
sS'stim.thisRepN'
p2283
I0
sg25
g30
sg1993
g105
sS'trials.thisRepN'
p2284
I1
sS'trials.thisN'
p2285
I1
sg1996
g55
(g79
S'\x0e\x00\x00\x00\x00\x00\x00\x00'
p2286
tp2287
Rp2288
sg24
g11
sS'trials.thisTrialN'
p2289
I0
sS'block.thisIndex'
p2290
g1626
sg2002
g55
(g79
S'\x06\x00\x00\x00\x00\x00\x00\x00'
p2291
tp2292
Rp2293
sa(dp2294
S'block.thisTrialN'
p2295
I0
sS'stim.thisTrialN'
p2296
I14
sS'block.thisRepN'
p2297
I1
sg1976
g1977
sS'stim.thisIndex'
p2298
g55
(g59
S'\x0e\x00\x00\x00'
p2299
tp2300
Rp2301
sg31
NsS'block.thisN'
p2302
I1
sS'stim.thisN'
p2303
I14
sg1984
g1985
sg1986
g1987
sg21
g22
sg23
I2
sS'trials.thisIndex'
p2304
g1991
sS'stim.thisRepN'
p2305
I0
sg25
g30
sg1993
g538
sS'trials.thisRepN'
p2306
I1
sS'trials.thisN'
p2307
I1
sg1996
g55
(g79
S'\x0f\x00\x00\x00\x00\x00\x00\x00'
p2308
tp2309
Rp2310
sg24
g11
sS'trials.thisTrialN'
p2311
I0
sS'block.thisIndex'
p2312
g1626
sg2002
g55
(g79
S'\x06\x00\x00\x00\x00\x00\x00\x00'
p2313
tp2314
Rp2315
sa(dp2316
S'block.thisTrialN'
p2317
I0
sS'stim.thisTrialN'
p2318
I15
sS'block.thisRepN'
p2319
I1
sg1976
g1977
sS'stim.thisIndex'
p2320
g55
(g59
S'\x0f\x00\x00\x00'
p2321
tp2322
Rp2323
sg31
NsS'block.thisN'
p2324
I1
sS'stim.thisN'
p2325
I15
sg1984
g1985
sg1986
g1987
sg21
g22
sg23
I2
sS'trials.thisIndex'
p2326
g1991
sS'stim.thisRepN'
p2327
I0
sg25
g30
sg1993
g811
sS'trials.thisRepN'
p2328
I1
sS'trials.thisN'
p2329
I1
sg1996
g55
(g79
S'\x10\x00\x00\x00\x00\x00\x00\x00'
p2330
tp2331
Rp2332
sg24
g11
sS'trials.thisTrialN'
p2333
I0
sS'block.thisIndex'
p2334
g1626
sg2002
g55
(g79
S'\x06\x00\x00\x00\x00\x00\x00\x00'
p2335
tp2336
Rp2337
sa(dp2338
S'block.thisTrialN'
p2339
I0
sS'block.thisRepN'
p2340
I1
sg16
g439
sS'trials.thisRepN'
p2341
I1
sg15
F0.6097085000074003
sg25
g30
sS'block.thisN'
p2342
I1
sg31
NsS'trials.thisN'
p2343
I1
sg14
g439
sg24
g11
sS'trials.thisTrialN'
p2344
I0
sS'trials.thisIndex'
p2345
g1991
sg21
g22
sg23
I2
sS'block.thisIndex'
p2346
g1626
sg17
F0.23641050000151154
sa(dp2347
S'block.thisTrialN'
p2348
I0
sS'stim.thisTrialN'
p2349
I0
sS'block.thisRepN'
p2350
I1
sS'Tx'
p2351
Vt2
p2352
sS'stim.thisIndex'
p2353
g55
(g59
S'\x00\x00\x00\x00'
p2354
tp2355
Rp2356
sg31
NsS'block.thisN'
p2357
I1
sS'stim.thisN'
p2358
I0
sS'sep_dur'
p2359
Vlong
p2360
sS'cond'
p2361
Vdistractor
p2362
sg21
g22
sg23
I2
sS'trials.thisIndex'
p2363
g55
(g59
S'\x00\x00\x00\x00'
p2364
tp2365
Rp2366
sS'stim.thisRepN'
p2367
I0
sg25
g30
sS'stimulus'
p2368
g1302
sS'trials.thisRepN'
p2369
I2
sS'trials.thisN'
p2370
I2
sS'trial'
p2371
g55
(g79
S'\x01\x00\x00\x00\x00\x00\x00\x00'
p2372
tp2373
Rp2374
sg24
g11
sS'trials.thisTrialN'
p2375
I0
sS'block.thisIndex'
p2376
g1626
sS'block'
p2377
g55
(g79
S'\x07\x00\x00\x00\x00\x00\x00\x00'
p2378
tp2379
Rp2380
sa(dp2381
S'block.thisTrialN'
p2382
I0
sS'stim.thisTrialN'
p2383
I1
sS'block.thisRepN'
p2384
I1
sg2351
g2352
sS'stim.thisIndex'
p2385
g55
(g59
S'\x01\x00\x00\x00'
p2386
tp2387
Rp2388
sg31
NsS'block.thisN'
p2389
I1
sS'stim.thisN'
p2390
I1
sg2359
g2360
sg2361
g2362
sg21
g22
sg23
I2
sS'trials.thisIndex'
p2391
g2366
sS'stim.thisRepN'
p2392
I0
sg25
g30
sg2368
g811
sS'trials.thisRepN'
p2393
I2
sS'trials.thisN'
p2394
I2
sg2371
g55
(g79
S'\x02\x00\x00\x00\x00\x00\x00\x00'
p2395
tp2396
Rp2397
sg24
g11
sS'trials.thisTrialN'
p2398
I0
sS'block.thisIndex'
p2399
g1626
sg2377
g55
(g79
S'\x07\x00\x00\x00\x00\x00\x00\x00'
p2400
tp2401
Rp2402
sa(dp2403
S'block.thisTrialN'
p2404
I0
sS'stim.thisTrialN'
p2405
I2
sS'block.thisRepN'
p2406
I1
sg2351
g2352
sS'stim.thisIndex'
p2407
g55
(g59
S'\x02\x00\x00\x00'
p2408
tp2409
Rp2410
sg31
NsS'block.thisN'
p2411
I1
sS'stim.thisN'
p2412
I2
sg2359
g2360
sg2361
g2362
sg21
g22
sg23
I2
sS'trials.thisIndex'
p2413
g2366
sS'stim.thisRepN'
p2414
I0
sg25
g30
sg2368
g74
sS'trials.thisRepN'
p2415
I2
sS'trials.thisN'
p2416
I2
sg2371
g55
(g79
S'\x03\x00\x00\x00\x00\x00\x00\x00'
p2417
tp2418
Rp2419
sg24
g11
sS'trials.thisTrialN'
p2420
I0
sS'block.thisIndex'
p2421
g1626
sg2377
g55
(g79
S'\x07\x00\x00\x00\x00\x00\x00\x00'
p2422
tp2423
Rp2424
sa(dp2425
S'block.thisTrialN'
p2426
I0
sS'stim.thisTrialN'
p2427
I3
sS'block.thisRepN'
p2428
I1
sg2351
g2352
sS'stim.thisIndex'
p2429
g55
(g59
S'\x03\x00\x00\x00'
p2430
tp2431
Rp2432
sg31
NsS'block.thisN'
p2433
I1
sS'stim.thisN'
p2434
I3
sg2359
g2360
sg2361
g2362
sg21
g22
sg23
I2
sS'trials.thisIndex'
p2435
g2366
sS'stim.thisRepN'
p2436
I0
sg25
g30
sg2368
g875
sS'trials.thisRepN'
p2437
I2
sS'trials.thisN'
p2438
I2
sg2371
g55
(g79
S'\x04\x00\x00\x00\x00\x00\x00\x00'
p2439
tp2440
Rp2441
sg24
g11
sS'trials.thisTrialN'
p2442
I0
sS'block.thisIndex'
p2443
g1626
sg2377
g55
(g79
S'\x07\x00\x00\x00\x00\x00\x00\x00'
p2444
tp2445
Rp2446
sa(dp2447
S'block.thisTrialN'
p2448
I0
sS'stim.thisTrialN'
p2449
I4
sS'block.thisRepN'
p2450
I1
sg2351
g2352
sS'stim.thisIndex'
p2451
g55
(g59
S'\x04\x00\x00\x00'
p2452
tp2453
Rp2454
sg31
NsS'block.thisN'
p2455
I1
sS'stim.thisN'
p2456
I4
sg2359
g2360
sg2361
g2362
sg21
g22
sg23
I2
sS'trials.thisIndex'
p2457
g2366
sS'stim.thisRepN'
p2458
I0
sg25
g30
sg2368
g1370
sS'trials.thisRepN'
p2459
I2
sS'trials.thisN'
p2460
I2
sg2371
g55
(g79
S'\x05\x00\x00\x00\x00\x00\x00\x00'
p2461
tp2462
Rp2463
sg24
g11
sS'trials.thisTrialN'
p2464
I0
sS'block.thisIndex'
p2465
g1626
sg2377
g55
(g79
S'\x07\x00\x00\x00\x00\x00\x00\x00'
p2466
tp2467
Rp2468
sa(dp2469
S'block.thisTrialN'
p2470
I0
sS'stim.thisTrialN'
p2471
I5
sS'block.thisRepN'
p2472
I1
sg2351
g2352
sS'stim.thisIndex'
p2473
g55
(g59
S'\x05\x00\x00\x00'
p2474
tp2475
Rp2476
sg31
NsS'block.thisN'
p2477
I1
sS'stim.thisN'
p2478
I5
sg2359
g2360
sg2361
Vtarget
p2479
sg21
g22
sg23
I2
sS'trials.thisIndex'
p2480
g2366
sS'stim.thisRepN'
p2481
I0
sg25
g30
sg2368
V3
p2482
sS'trials.thisRepN'
p2483
I2
sS'trials.thisN'
p2484
I2
sg2371
g55
(g79
S'\x06\x00\x00\x00\x00\x00\x00\x00'
p2485
tp2486
Rp2487
sg24
g11
sS'trials.thisTrialN'
p2488
I0
sS'block.thisIndex'
p2489
g1626
sg2377
g55
(g79
S'\x07\x00\x00\x00\x00\x00\x00\x00'
p2490
tp2491
Rp2492
sa(dp2493
S'block.thisTrialN'
p2494
I0
sS'stim.thisTrialN'
p2495
I6
sS'block.thisRepN'
p2496
I1
sg2351
g2352
sS'stim.thisIndex'
p2497
g55
(g59
S'\x06\x00\x00\x00'
p2498
tp2499
Rp2500
sg31
NsS'block.thisN'
p2501
I1
sS'stim.thisN'
p2502
I6
sg2359
g2360
sg2361
g2362
sg21
g22
sg23
I2
sS'trials.thisIndex'
p2503
g2366
sS'stim.thisRepN'
p2504
I0
sg25
g30
sg2368
g875
sS'trials.thisRepN'
p2505
I2
sS'trials.thisN'
p2506
I2
sg2371
g55
(g79
S'\x07\x00\x00\x00\x00\x00\x00\x00'
p2507
tp2508
Rp2509
sg24
g11
sS'trials.thisTrialN'
p2510
I0
sS'block.thisIndex'
p2511
g1626
sg2377
g55
(g79
S'\x07\x00\x00\x00\x00\x00\x00\x00'
p2512
tp2513
Rp2514
sa(dp2515
S'block.thisTrialN'
p2516
I0
sS'stim.thisTrialN'
p2517
I7
sS'block.thisRepN'
p2518
I1
sg2351
g2352
sS'stim.thisIndex'
p2519
g55
(g59
S'\x07\x00\x00\x00'
p2520
tp2521
Rp2522
sg31
NsS'block.thisN'
p2523
I1
sS'stim.thisN'
p2524
I7
sg2359
g2360
sg2361
g2362
sg21
g22
sg23
I2
sS'trials.thisIndex'
p2525
g2366
sS'stim.thisRepN'
p2526
I0
sg25
g30
sg2368
g1302
sS'trials.thisRepN'
p2527
I2
sS'trials.thisN'
p2528
I2
sg2371
g55
(g79
S'\x08\x00\x00\x00\x00\x00\x00\x00'
p2529
tp2530
Rp2531
sg24
g11
sS'trials.thisTrialN'
p2532
I0
sS'block.thisIndex'
p2533
g1626
sg2377
g55
(g79
S'\x07\x00\x00\x00\x00\x00\x00\x00'
p2534
tp2535
Rp2536
sa(dp2537
S'block.thisTrialN'
p2538
I0
sS'stim.thisTrialN'
p2539
I8
sS'block.thisRepN'
p2540
I1
sg2351
g2352
sS'stim.thisIndex'
p2541
g55
(g59
S'\x08\x00\x00\x00'
p2542
tp2543
Rp2544
sg31
NsS'block.thisN'
p2545
I1
sS'stim.thisN'
p2546
I8
sg2359
g2360
sg2361
g2362
sg21
g22
sg23
I2
sS'trials.thisIndex'
p2547
g2366
sS'stim.thisRepN'
p2548
I0
sg25
g30
sg2368
g174
sS'trials.thisRepN'
p2549
I2
sS'trials.thisN'
p2550
I2
sg2371
g55
(g79
S'\t\x00\x00\x00\x00\x00\x00\x00'
p2551
tp2552
Rp2553
sg24
g11
sS'trials.thisTrialN'
p2554
I0
sS'block.thisIndex'
p2555
g1626
sg2377
g55
(g79
S'\x07\x00\x00\x00\x00\x00\x00\x00'
p2556
tp2557
Rp2558
sa(dp2559
S'block.thisTrialN'
p2560
I0
sS'stim.thisTrialN'
p2561
I9
sS'block.thisRepN'
p2562
I1
sg2351
g2352
sS'stim.thisIndex'
p2563
g55
(g59
S'\t\x00\x00\x00'
p2564
tp2565
Rp2566
sg31
NsS'block.thisN'
p2567
I1
sS'stim.thisN'
p2568
I9
sg2359
g2360
sg2361
g2362
sg21
g22
sg23
I2
sS'trials.thisIndex'
p2569
g2366
sS'stim.thisRepN'
p2570
I0
sg25
g30
sg2368
g1302
sS'trials.thisRepN'
p2571
I2
sS'trials.thisN'
p2572
I2
sg2371
g55
(g79
S'\n\x00\x00\x00\x00\x00\x00\x00'
p2573
tp2574
Rp2575
sg24
g11
sS'trials.thisTrialN'
p2576
I0
sS'block.thisIndex'
p2577
g1626
sg2377
g55
(g79
S'\x07\x00\x00\x00\x00\x00\x00\x00'
p2578
tp2579
Rp2580
sa(dp2581
S'block.thisTrialN'
p2582
I0
sS'stim.thisTrialN'
p2583
I10
sS'block.thisRepN'
p2584
I1
sg2351
g2352
sS'stim.thisIndex'
p2585
g55
(g59
S'\n\x00\x00\x00'
p2586
tp2587
Rp2588
sg31
NsS'block.thisN'
p2589
I1
sS'stim.thisN'
p2590
I10
sg2359
g2360
sg2361
g2362
sg21
g22
sg23
I2
sS'trials.thisIndex'
p2591
g2366
sS'stim.thisRepN'
p2592
I0
sg25
g30
sg2368
g403
sS'trials.thisRepN'
p2593
I2
sS'trials.thisN'
p2594
I2
sg2371
g55
(g79
S'\x0b\x00\x00\x00\x00\x00\x00\x00'
p2595
tp2596
Rp2597
sg24
g11
sS'trials.thisTrialN'
p2598
I0
sS'block.thisIndex'
p2599
g1626
sg2377
g55
(g79
S'\x07\x00\x00\x00\x00\x00\x00\x00'
p2600
tp2601
Rp2602
sa(dp2603
S'block.thisTrialN'
p2604
I0
sS'stim.thisTrialN'
p2605
I11
sS'block.thisRepN'
p2606
I1
sg2351
g2352
sS'stim.thisIndex'
p2607
g55
(g59
S'\x0b\x00\x00\x00'
p2608
tp2609
Rp2610
sg31
NsS'block.thisN'
p2611
I1
sS'stim.thisN'
p2612
I11
sg2359
g2360
sg2361
g2362
sg21
g22
sg23
I2
sS'trials.thisIndex'
p2613
g2366
sS'stim.thisRepN'
p2614
I0
sg25
g30
sg2368
g174
sS'trials.thisRepN'
p2615
I2
sS'trials.thisN'
p2616
I2
sg2371
g55
(g79
S'\x0c\x00\x00\x00\x00\x00\x00\x00'
p2617
tp2618
Rp2619
sg24
g11
sS'trials.thisTrialN'
p2620
I0
sS'block.thisIndex'
p2621
g1626
sg2377
g55
(g79
S'\x07\x00\x00\x00\x00\x00\x00\x00'
p2622
tp2623
Rp2624
sa(dp2625
S'block.thisTrialN'
p2626
I0
sS'stim.thisTrialN'
p2627
I12
sS'block.thisRepN'
p2628
I1
sg2351
g2352
sS'stim.thisIndex'
p2629
g55
(g59
S'\x0c\x00\x00\x00'
p2630
tp2631
Rp2632
sg31
NsS'block.thisN'
p2633
I1
sS'stim.thisN'
p2634
I12
sg2359
g2360
sg2361
g2362
sg21
g22
sg23
I2
sS'trials.thisIndex'
p2635
g2366
sS'stim.thisRepN'
p2636
I0
sg25
g30
sg2368
g561
sS'trials.thisRepN'
p2637
I2
sS'trials.thisN'
p2638
I2
sg2371
g55
(g79
S'\r\x00\x00\x00\x00\x00\x00\x00'
p2639
tp2640
Rp2641
sg24
g11
sS'trials.thisTrialN'
p2642
I0
sS'block.thisIndex'
p2643
g1626
sg2377
g55
(g79
S'\x07\x00\x00\x00\x00\x00\x00\x00'
p2644
tp2645
Rp2646
sa(dp2647
S'block.thisTrialN'
p2648
I0
sS'stim.thisTrialN'
p2649
I13
sS'block.thisRepN'
p2650
I1
sg2351
g2352
sS'stim.thisIndex'
p2651
g55
(g59
S'\r\x00\x00\x00'
p2652
tp2653
Rp2654
sg31
NsS'block.thisN'
p2655
I1
sS'stim.thisN'
p2656
I13
sg2359
g2360
sg2361
g2362
sg21
g22
sg23
I2
sS'trials.thisIndex'
p2657
g2366
sS'stim.thisRepN'
p2658
I0
sg25
g30
sg2368
g515
sS'trials.thisRepN'
p2659
I2
sS'trials.thisN'
p2660
I2
sg2371
g55
(g79
S'\x0e\x00\x00\x00\x00\x00\x00\x00'
p2661
tp2662
Rp2663
sg24
g11
sS'trials.thisTrialN'
p2664
I0
sS'block.thisIndex'
p2665
g1626
sg2377
g55
(g79
S'\x07\x00\x00\x00\x00\x00\x00\x00'
p2666
tp2667
Rp2668
sa(dp2669
S'block.thisTrialN'
p2670
I0
sS'stim.thisTrialN'
p2671
I14
sS'block.thisRepN'
p2672
I1
sg2351
g2352
sS'stim.thisIndex'
p2673
g55
(g59
S'\x0e\x00\x00\x00'
p2674
tp2675
Rp2676
sg31
NsS'block.thisN'
p2677
I1
sS'stim.thisN'
p2678
I14
sg2359
g2360
sg2361
g2479
sg21
g22
sg23
I2
sS'trials.thisIndex'
p2679
g2366
sS'stim.thisRepN'
p2680
I0
sg25
g30
sg2368
g244
sS'trials.thisRepN'
p2681
I2
sS'trials.thisN'
p2682
I2
sg2371
g55
(g79
S'\x0f\x00\x00\x00\x00\x00\x00\x00'
p2683
tp2684
Rp2685
sg24
g11
sS'trials.thisTrialN'
p2686
I0
sS'block.thisIndex'
p2687
g1626
sg2377
g55
(g79
S'\x07\x00\x00\x00\x00\x00\x00\x00'
p2688
tp2689
Rp2690
sa(dp2691
S'block.thisTrialN'
p2692
I0
sS'stim.thisTrialN'
p2693
I15
sS'block.thisRepN'
p2694
I1
sg2351
g2352
sS'stim.thisIndex'
p2695
g55
(g59
S'\x0f\x00\x00\x00'
p2696
tp2697
Rp2698
sg31
NsS'block.thisN'
p2699
I1
sS'stim.thisN'
p2700
I15
sg2359
g2360
sg2361
g2362
sg21
g22
sg23
I2
sS'trials.thisIndex'
p2701
g2366
sS'stim.thisRepN'
p2702
I0
sg25
g30
sg2368
g697
sS'trials.thisRepN'
p2703
I2
sS'trials.thisN'
p2704
I2
sg2371
g55
(g79
S'\x10\x00\x00\x00\x00\x00\x00\x00'
p2705
tp2706
Rp2707
sg24
g11
sS'trials.thisTrialN'
p2708
I0
sS'block.thisIndex'
p2709
g1626
sg2377
g55
(g79
S'\x07\x00\x00\x00\x00\x00\x00\x00'
p2710
tp2711
Rp2712
sa(dp2713
S'block.thisTrialN'
p2714
I0
sS'stim.thisTrialN'
p2715
I16
sS'block.thisRepN'
p2716
I1
sg2351
g2352
sS'stim.thisIndex'
p2717
g55
(g59
S'\x10\x00\x00\x00'
p2718
tp2719
Rp2720
sg31
NsS'block.thisN'
p2721
I1
sS'stim.thisN'
p2722
I16
sg2359
g2360
sg2361
g2362
sg21
g22
sg23
I2
sS'trials.thisIndex'
p2723
g2366
sS'stim.thisRepN'
p2724
I0
sg25
g30
sg2368
g1213
sS'trials.thisRepN'
p2725
I2
sS'trials.thisN'
p2726
I2
sg2371
g55
(g79
S'\x11\x00\x00\x00\x00\x00\x00\x00'
p2727
tp2728
Rp2729
sg24
g11
sS'trials.thisTrialN'
p2730
I0
sS'block.thisIndex'
p2731
g1626
sg2377
g55
(g79
S'\x07\x00\x00\x00\x00\x00\x00\x00'
p2732
tp2733
Rp2734
sa(dp2735
S'block.thisTrialN'
p2736
I0
sS'stim.thisTrialN'
p2737
I17
sS'block.thisRepN'
p2738
I1
sg2351
g2352
sS'stim.thisIndex'
p2739
g55
(g59
S'\x11\x00\x00\x00'
p2740
tp2741
Rp2742
sg31
NsS'block.thisN'
p2743
I1
sS'stim.thisN'
p2744
I17
sg2359
g2360
sg2361
g2362
sg21
g22
sg23
I2
sS'trials.thisIndex'
p2745
g2366
sS'stim.thisRepN'
p2746
I0
sg25
g30
sg2368
g766
sS'trials.thisRepN'
p2747
I2
sS'trials.thisN'
p2748
I2
sg2371
g55
(g79
S'\x12\x00\x00\x00\x00\x00\x00\x00'
p2749
tp2750
Rp2751
sg24
g11
sS'trials.thisTrialN'
p2752
I0
sS'block.thisIndex'
p2753
g1626
sg2377
g55
(g79
S'\x07\x00\x00\x00\x00\x00\x00\x00'
p2754
tp2755
Rp2756
sa(dp2757
S'block.thisTrialN'
p2758
I0
sS'block.thisRepN'
p2759
I1
sg16
g439
sS'trials.thisRepN'
p2760
I2
sg15
F0.29380529999616556
sg25
g30
sS'block.thisN'
p2761
I1
sg31
NsS'trials.thisN'
p2762
I2
sg14
g439
sg24
g11
sS'trials.thisTrialN'
p2763
I0
sS'trials.thisIndex'
p2764
g2366
sg21
g22
sg23
I2
sS'block.thisIndex'
p2765
g1626
sg17
F0.21833679999690503
sa(dp2766
S'block.thisTrialN'
p2767
I0
sS'stim.thisTrialN'
p2768
I0
sS'block.thisRepN'
p2769
I1
sS'Tx'
p2770
Vt1
p2771
sS'stim.thisIndex'
p2772
g55
(g59
S'\x00\x00\x00\x00'
p2773
tp2774
Rp2775
sg31
NsS'block.thisN'
p2776
I1
sS'stim.thisN'
p2777
I0
sS'sep_dur'
p2778
Vshort
p2779
sS'cond'
p2780
Vdistractor
p2781
sg21
g22
sg23
I2
sS'trials.thisIndex'
p2782
g55
(g59
S'\x00\x00\x00\x00'
p2783
tp2784
Rp2785
sS'stim.thisRepN'
p2786
I0
sg25
g30
sS'stimulus'
p2787
g811
sS'trials.thisRepN'
p2788
I3
sS'trials.thisN'
p2789
I3
sS'trial'
p2790
g55
(g79
S'\x01\x00\x00\x00\x00\x00\x00\x00'
p2791
tp2792
Rp2793
sg24
g11
sS'trials.thisTrialN'
p2794
I0
sS'block.thisIndex'
p2795
g1626
sS'block'
p2796
g55
(g79
S'\x08\x00\x00\x00\x00\x00\x00\x00'
p2797
tp2798
Rp2799
sa(dp2800
S'block.thisTrialN'
p2801
I0
sS'stim.thisTrialN'
p2802
I1
sS'block.thisRepN'
p2803
I1
sg2770
g2771
sS'stim.thisIndex'
p2804
g55
(g59
S'\x01\x00\x00\x00'
p2805
tp2806
Rp2807
sg31
NsS'block.thisN'
p2808
I1
sS'stim.thisN'
p2809
I1
sg2778
g2779
sg2780
g2781
sg21
g22
sg23
I2
sS'trials.thisIndex'
p2810
g2785
sS'stim.thisRepN'
p2811
I0
sg25
g30
sg2787
g1123
sS'trials.thisRepN'
p2812
I3
sS'trials.thisN'
p2813
I3
sg2790
g55
(g79
S'\x02\x00\x00\x00\x00\x00\x00\x00'
p2814
tp2815
Rp2816
sg24
g11
sS'trials.thisTrialN'
p2817
I0
sS'block.thisIndex'
p2818
g1626
sg2796
g55
(g79
S'\x08\x00\x00\x00\x00\x00\x00\x00'
p2819
tp2820
Rp2821
sa(dp2822
S'block.thisTrialN'
p2823
I0
sS'stim.thisTrialN'
p2824
I2
sS'block.thisRepN'
p2825
I1
sg2770
g2771
sS'stim.thisIndex'
p2826
g55
(g59
S'\x02\x00\x00\x00'
p2827
tp2828
Rp2829
sg31
NsS'block.thisN'
p2830
I1
sS'stim.thisN'
p2831
I2
sg2778
g2779
sg2780
g2781
sg21
g22
sg23
I2
sS'trials.thisIndex'
p2832
g2785
sS'stim.thisRepN'
p2833
I0
sg25
g30
sg2787
g1213
sS'trials.thisRepN'
p2834
I3
sS'trials.thisN'
p2835
I3
sg2790
g55
(g79
S'\x03\x00\x00\x00\x00\x00\x00\x00'
p2836
tp2837
Rp2838
sg24
g11
sS'trials.thisTrialN'
p2839
I0
sS'block.thisIndex'
p2840
g1626
sg2796
g55
(g79
S'\x08\x00\x00\x00\x00\x00\x00\x00'
p2841
tp2842
Rp2843
sa(dp2844
S'block.thisTrialN'
p2845
I0
sS'stim.thisTrialN'
p2846
I3
sS'block.thisRepN'
p2847
I1
sg2770
g2771
sS'stim.thisIndex'
p2848
g55
(g59
S'\x03\x00\x00\x00'
p2849
tp2850
Rp2851
sg31
NsS'block.thisN'
p2852
I1
sS'stim.thisN'
p2853
I3
sg2778
g2779
sg2780
g2781
sg21
g22
sg23
I2
sS'trials.thisIndex'
p2854
g2785
sS'stim.thisRepN'
p2855
I0
sg25
g30
sg2787
g105
sS'trials.thisRepN'
p2856
I3
sS'trials.thisN'
p2857
I3
sg2790
g55
(g79
S'\x04\x00\x00\x00\x00\x00\x00\x00'
p2858
tp2859
Rp2860
sg24
g11
sS'trials.thisTrialN'
p2861
I0
sS'block.thisIndex'
p2862
g1626
sg2796
g55
(g79
S'\x08\x00\x00\x00\x00\x00\x00\x00'
p2863
tp2864
Rp2865
sa(dp2866
S'block.thisTrialN'
p2867
I0
sS'stim.thisTrialN'
p2868
I4
sS'block.thisRepN'
p2869
I1
sg2770
g2771
sS'stim.thisIndex'
p2870
g55
(g59
S'\x04\x00\x00\x00'
p2871
tp2872
Rp2873
sg31
NsS'block.thisN'
p2874
I1
sS'stim.thisN'
p2875
I4
sg2778
g2779
sg2780
g2781
sg21
g22
sg23
I2
sS'trials.thisIndex'
p2876
g2785
sS'stim.thisRepN'
p2877
I0
sg25
g30
sg2787
g1213
sS'trials.thisRepN'
p2878
I3
sS'trials.thisN'
p2879
I3
sg2790
g55
(g79
S'\x05\x00\x00\x00\x00\x00\x00\x00'
p2880
tp2881
Rp2882
sg24
g11
sS'trials.thisTrialN'
p2883
I0
sS'block.thisIndex'
p2884
g1626
sg2796
g55
(g79
S'\x08\x00\x00\x00\x00\x00\x00\x00'
p2885
tp2886
Rp2887
sa(dp2888
S'block.thisTrialN'
p2889
I0
sS'stim.thisTrialN'
p2890
I5
sS'block.thisRepN'
p2891
I1
sg2770
g2771
sS'stim.thisIndex'
p2892
g55
(g59
S'\x05\x00\x00\x00'
p2893
tp2894
Rp2895
sg31
NsS'block.thisN'
p2896
I1
sS'stim.thisN'
p2897
I5
sg2778
g2779
sg2780
Vtarget
p2898
sg21
g22
sg23
I2
sS'trials.thisIndex'
p2899
g2785
sS'stim.thisRepN'
p2900
I0
sg25
g30
sg2787
g1100
sS'trials.thisRepN'
p2901
I3
sS'trials.thisN'
p2902
I3
sg2790
g55
(g79
S'\x06\x00\x00\x00\x00\x00\x00\x00'
p2903
tp2904
Rp2905
sg24
g11
sS'trials.thisTrialN'
p2906
I0
sS'block.thisIndex'
p2907
g1626
sg2796
g55
(g79
S'\x08\x00\x00\x00\x00\x00\x00\x00'
p2908
tp2909
Rp2910
sa(dp2911
S'block.thisTrialN'
p2912
I0
sS'stim.thisTrialN'
p2913
I6
sS'block.thisRepN'
p2914
I1
sg2770
g2771
sS'stim.thisIndex'
p2915
g55
(g59
S'\x06\x00\x00\x00'
p2916
tp2917
Rp2918
sg31
NsS'block.thisN'
p2919
I1
sS'stim.thisN'
p2920
I6
sg2778
g2779
sg2780
g2781
sg21
g22
sg23
I2
sS'trials.thisIndex'
p2921
g2785
sS'stim.thisRepN'
p2922
I0
sg25
g30
sg2787
g380
sS'trials.thisRepN'
p2923
I3
sS'trials.thisN'
p2924
I3
sg2790
g55
(g79
S'\x07\x00\x00\x00\x00\x00\x00\x00'
p2925
tp2926
Rp2927
sg24
g11
sS'trials.thisTrialN'
p2928
I0
sS'block.thisIndex'
p2929
g1626
sg2796
g55
(g79
S'\x08\x00\x00\x00\x00\x00\x00\x00'
p2930
tp2931
Rp2932
sa(dp2933
S'block.thisTrialN'
p2934
I0
sS'stim.thisTrialN'
p2935
I7
sS'block.thisRepN'
p2936
I1
sg2770
g2771
sS'stim.thisIndex'
p2937
g55
(g59
S'\x07\x00\x00\x00'
p2938
tp2939
Rp2940
sg31
NsS'block.thisN'
p2941
I1
sS'stim.thisN'
p2942
I7
sg2778
g2779
sg2780
g2781
sg21
g22
sg23
I2
sS'trials.thisIndex'
p2943
g2785
sS'stim.thisRepN'
p2944
I0
sg25
g30
sg2787
g1370
sS'trials.thisRepN'
p2945
I3
sS'trials.thisN'
p2946
I3
sg2790
g55
(g79
S'\x08\x00\x00\x00\x00\x00\x00\x00'
p2947
tp2948
Rp2949
sg24
g11
sS'trials.thisTrialN'
p2950
I0
sS'block.thisIndex'
p2951
g1626
sg2796
g55
(g79
S'\x08\x00\x00\x00\x00\x00\x00\x00'
p2952
tp2953
Rp2954
sa(dp2955
S'block.thisTrialN'
p2956
I0
sS'stim.thisTrialN'
p2957
I8
sS'block.thisRepN'
p2958
I1
sg2770
g2771
sS'stim.thisIndex'
p2959
g55
(g59
S'\x08\x00\x00\x00'
p2960
tp2961
Rp2962
sg31
NsS'block.thisN'
p2963
I1
sS'stim.thisN'
p2964
I8
sg2778
g2779
sg2780
g2781
sg21
g22
sg23
I2
sS'trials.thisIndex'
p2965
g2785
sS'stim.thisRepN'
p2966
I0
sg25
g30
sg2787
g403
sS'trials.thisRepN'
p2967
I3
sS'trials.thisN'
p2968
I3
sg2790
g55
(g79
S'\t\x00\x00\x00\x00\x00\x00\x00'
p2969
tp2970
Rp2971
sg24
g11
sS'trials.thisTrialN'
p2972
I0
sS'block.thisIndex'
p2973
g1626
sg2796
g55
(g79
S'\x08\x00\x00\x00\x00\x00\x00\x00'
p2974
tp2975
Rp2976
sa(dp2977
S'block.thisTrialN'
p2978
I0
sS'stim.thisTrialN'
p2979
I9
sS'block.thisRepN'
p2980
I1
sg2770
g2771
sS'stim.thisIndex'
p2981
g55
(g59
S'\t\x00\x00\x00'
p2982
tp2983
Rp2984
sg31
NsS'block.thisN'
p2985
I1
sS'stim.thisN'
p2986
I9
sg2778
g2779
sg2780
g2781
sg21
g22
sg23
I2
sS'trials.thisIndex'
p2987
g2785
sS'stim.thisRepN'
p2988
I0
sg25
g30
sg2787
g74
sS'trials.thisRepN'
p2989
I3
sS'trials.thisN'
p2990
I3
sg2790
g55
(g79
S'\n\x00\x00\x00\x00\x00\x00\x00'
p2991
tp2992
Rp2993
sg24
g11
sS'trials.thisTrialN'
p2994
I0
sS'block.thisIndex'
p2995
g1626
sg2796
g55
(g79
S'\x08\x00\x00\x00\x00\x00\x00\x00'
p2996
tp2997
Rp2998
sa(dp2999
S'block.thisTrialN'
p3000
I0
sS'stim.thisTrialN'
p3001
I10
sS'block.thisRepN'
p3002
I1
sg2770
g2771
sS'stim.thisIndex'
p3003
g55
(g59
S'\n\x00\x00\x00'
p3004
tp3005
Rp3006
sg31
NsS'block.thisN'
p3007
I1
sS'stim.thisN'
p3008
I10
sg2778
g2779
sg2780
Vmask
p3009
sg21
g22
sg23
I2
sS'trials.thisIndex'
p3010
g2785
sS'stim.thisRepN'
p3011
I0
sg25
g30
sg2787
g357
sS'trials.thisRepN'
p3012
I3
sS'trials.thisN'
p3013
I3
sg2790
g55
(g79
S'\x0b\x00\x00\x00\x00\x00\x00\x00'
p3014
tp3015
Rp3016
sg24
g11
sS'trials.thisTrialN'
p3017
I0
sS'block.thisIndex'
p3018
g1626
sg2796
g55
(g79
S'\x08\x00\x00\x00\x00\x00\x00\x00'
p3019
tp3020
Rp3021
sa(dp3022
S'block.thisTrialN'
p3023
I0
sS'stim.thisTrialN'
p3024
I11
sS'block.thisRepN'
p3025
I1
sg2770
g2771
sS'stim.thisIndex'
p3026
g55
(g59
S'\x0b\x00\x00\x00'
p3027
tp3028
Rp3029
sg31
NsS'block.thisN'
p3030
I1
sS'stim.thisN'
p3031
I11
sg2778
g2779
sg2780
g2781
sg21
g22
sg23
I2
sS'trials.thisIndex'
p3032
g2785
sS'stim.thisRepN'
p3033
I0
sg25
g30
sg2787
g1213
sS'trials.thisRepN'
p3034
I3
sS'trials.thisN'
p3035
I3
sg2790
g55
(g79
S'\x0c\x00\x00\x00\x00\x00\x00\x00'
p3036
tp3037
Rp3038
sg24
g11
sS'trials.thisTrialN'
p3039
I0
sS'block.thisIndex'
p3040
g1626
sg2796
g55
(g79
S'\x08\x00\x00\x00\x00\x00\x00\x00'
p3041
tp3042
Rp3043
sa(dp3044
S'block.thisTrialN'
p3045
I0
sS'stim.thisTrialN'
p3046
I12
sS'block.thisRepN'
p3047
I1
sg2770
g2771
sS'stim.thisIndex'
p3048
g55
(g59
S'\x0c\x00\x00\x00'
p3049
tp3050
Rp3051
sg31
NsS'block.thisN'
p3052
I1
sS'stim.thisN'
p3053
I12
sg2778
g2779
sg2780
g2781
sg21
g22
sg23
I2
sS'trials.thisIndex'
p3054
g2785
sS'stim.thisRepN'
p3055
I0
sg25
g30
sg2787
g74
sS'trials.thisRepN'
p3056
I3
sS'trials.thisN'
p3057
I3
sg2790
g55
(g79
S'\r\x00\x00\x00\x00\x00\x00\x00'
p3058
tp3059
Rp3060
sg24
g11
sS'trials.thisTrialN'
p3061
I0
sS'block.thisIndex'
p3062
g1626
sg2796
g55
(g79
S'\x08\x00\x00\x00\x00\x00\x00\x00'
p3063
tp3064
Rp3065
sa(dp3066
S'block.thisTrialN'
p3067
I0
sS'stim.thisTrialN'
p3068
I13
sS'block.thisRepN'
p3069
I1
sg2770
g2771
sS'stim.thisIndex'
p3070
g55
(g59
S'\r\x00\x00\x00'
p3071
tp3072
Rp3073
sg31
NsS'block.thisN'
p3074
I1
sS'stim.thisN'
p3075
I13
sg2778
g2779
sg2780
g2781
sg21
g22
sg23
I2
sS'trials.thisIndex'
p3076
g2785
sS'stim.thisRepN'
p3077
I0
sg25
g30
sg2787
g1302
sS'trials.thisRepN'
p3078
I3
sS'trials.thisN'
p3079
I3
sg2790
g55
(g79
S'\x0e\x00\x00\x00\x00\x00\x00\x00'
p3080
tp3081
Rp3082
sg24
g11
sS'trials.thisTrialN'
p3083
I0
sS'block.thisIndex'
p3084
g1626
sg2796
g55
(g79
S'\x08\x00\x00\x00\x00\x00\x00\x00'
p3085
tp3086
Rp3087
sa(dp3088
S'block.thisTrialN'
p3089
I0
sS'stim.thisTrialN'
p3090
I14
sS'block.thisRepN'
p3091
I1
sg2770
g2771
sS'stim.thisIndex'
p3092
g55
(g59
S'\x0e\x00\x00\x00'
p3093
tp3094
Rp3095
sg31
NsS'block.thisN'
p3096
I1
sS'stim.thisN'
p3097
I14
sg2778
g2779
sg2780
g2781
sg21
g22
sg23
I2
sS'trials.thisIndex'
p3098
g2785
sS'stim.thisRepN'
p3099
I0
sg25
g30
sg2787
g697
sS'trials.thisRepN'
p3100
I3
sS'trials.thisN'
p3101
I3
sg2790
g55
(g79
S'\x0f\x00\x00\x00\x00\x00\x00\x00'
p3102
tp3103
Rp3104
sg24
g11
sS'trials.thisTrialN'
p3105
I0
sS'block.thisIndex'
p3106
g1626
sg2796
g55
(g79
S'\x08\x00\x00\x00\x00\x00\x00\x00'
p3107
tp3108
Rp3109
sa(dp3110
S'block.thisTrialN'
p3111
I0
sS'stim.thisTrialN'
p3112
I15
sS'block.thisRepN'
p3113
I1
sg2770
g2771
sS'stim.thisIndex'
p3114
g55
(g59
S'\x0f\x00\x00\x00'
p3115
tp3116
Rp3117
sg31
NsS'block.thisN'
p3118
I1
sS'stim.thisN'
p3119
I15
sg2778
g2779
sg2780
g2781
sg21
g22
sg23
I2
sS'trials.thisIndex'
p3120
g2785
sS'stim.thisRepN'
p3121
I0
sg25
g30
sg2787
g538
sS'trials.thisRepN'
p3122
I3
sS'trials.thisN'
p3123
I3
sg2790
g55
(g79
S'\x10\x00\x00\x00\x00\x00\x00\x00'
p3124
tp3125
Rp3126
sg24
g11
sS'trials.thisTrialN'
p3127
I0
sS'block.thisIndex'
p3128
g1626
sg2796
g55
(g79
S'\x08\x00\x00\x00\x00\x00\x00\x00'
p3129
tp3130
Rp3131
sa(dp3132
S'block.thisTrialN'
p3133
I0
sS'stim.thisTrialN'
p3134
I16
sS'block.thisRepN'
p3135
I1
sg2770
g2771
sS'stim.thisIndex'
p3136
g55
(g59
S'\x10\x00\x00\x00'
p3137
tp3138
Rp3139
sg31
NsS'block.thisN'
p3140
I1
sS'stim.thisN'
p3141
I16
sg2778
g2779
sg2780
g2781
sg21
g22
sg23
I2
sS'trials.thisIndex'
p3142
g2785
sS'stim.thisRepN'
p3143
I0
sg25
g30
sg2787
g151
sS'trials.thisRepN'
p3144
I3
sS'trials.thisN'
p3145
I3
sg2790
g55
(g79
S'\x11\x00\x00\x00\x00\x00\x00\x00'
p3146
tp3147
Rp3148
sg24
g11
sS'trials.thisTrialN'
p3149
I0
sS'block.thisIndex'
p3150
g1626
sg2796
g55
(g79
S'\x08\x00\x00\x00\x00\x00\x00\x00'
p3151
tp3152
Rp3153
sa(dp3154
S'block.thisTrialN'
p3155
I0
sS'stim.thisTrialN'
p3156
I17
sS'block.thisRepN'
p3157
I1
sg2770
g2771
sS'stim.thisIndex'
p3158
g55
(g59
S'\x11\x00\x00\x00'
p3159
tp3160
Rp3161
sg31
NsS'block.thisN'
p3162
I1
sS'stim.thisN'
p3163
I17
sg2778
g2779
sg2780
g2781
sg21
g22
sg23
I2
sS'trials.thisIndex'
p3164
g2785
sS'stim.thisRepN'
p3165
I0
sg25
g30
sg2787
g875
sS'trials.thisRepN'
p3166
I3
sS'trials.thisN'
p3167
I3
sg2790
g55
(g79
S'\x12\x00\x00\x00\x00\x00\x00\x00'
p3168
tp3169
Rp3170
sg24
g11
sS'trials.thisTrialN'
p3171
I0
sS'block.thisIndex'
p3172
g1626
sg2796
g55
(g79
S'\x08\x00\x00\x00\x00\x00\x00\x00'
p3173
tp3174
Rp3175
sa(dp3176
S'block.thisTrialN'
p3177
I0
sS'block.thisRepN'
p3178
I1
sg16
g439
sS'trials.thisRepN'
p3179
I3
sg15
F0.7840548000094714
sg25
g30
sS'block.thisN'
p3180
I1
sg31
NsS'trials.thisN'
p3181
I3
sg14
g439
sg24
g11
sS'trials.thisTrialN'
p3182
I0
sS'trials.thisIndex'
p3183
g2785
sg21
g22
sg23
I2
sS'block.thisIndex'
p3184
g1626
sg17
F0.21987099999387283
sa(dp3185
S'block.thisTrialN'
p3186
I0
sS'block.thisRepN'
p3187
I1
sg31
Nsg25
g30
sS'block.thisN'
p3188
I1
sg24
g11
sg21
g22
sg23
I2
sS'block.thisIndex'
p3189
g1626
sasS'loops'
p3190
(lp3191
g0
(cpsychopy.data.trial
TrialHandler
p3192
g2
Ntp3193
Rp3194
(dp3195
S'origin'
p3196
NsS'thisTrial'
p3197
(lp3198
sS'_exp'
p3199
I525659440
sg10
S'block'
p3200
sg6
I-1
sS'thisRepN'
p3201
I2
sg18
I01
sg19
g20
sS'data'
p3202
g0
(cpsychopy.data.base
DataHandler
p3203
c__builtin__
dict
p3204
(dp3205
S'ran'
p3206
cnumpy.ma.core
_mareconstruct
p3207
(cnumpy.ma.core
MaskedArray
p3208
cnumpy
ndarray
p3209
(I0
tp3210
S'b'
p3211
tp3212
Rp3213
(I1
(I1
I2
tp3214
g56
(S'f4'
p3215
I0
I1
tp3216
Rp3217
(I3
S'<'
p3218
NNNI-1
I-1
I0
tp3219
bI00
S'\x00\x00\x80?\x00\x00\x80?'
p3220
S'\x00\x00'
p3221
Ntp3222
bsS'order'
p3223
g3207
(g3208
g3209
g3210
g3211
tp3224
Rp3225
(I1
(I1
I2
tp3226
g3217
I00
S'\x00\x00\x00\x00\x00\x00\x80?'
p3227
S'\x00\x00'
p3228
Ntp3229
bstp3230
Rp3231
(dp3232
S'isNumeric'
p3233
(dp3234
g3206
I01
sg3223
I01
ssS'trials'
p3235
g3194
sS'dataTypes'
p3236
(lp3237
g3206
ag3223
asS'dataShape'
p3238
(lp3239
I1
aI2
asbsS'method'
p3240
S'random'
p3241
sS'sequenceIndices'
p3242
cnumpy.core.multiarray
_reconstruct
p3243
(g3209
(I0
tp3244
g3211
tp3245
Rp3246
(I1
(I1
I2
tp3247
g59
I00
S'\x00\x00\x00\x00\x00\x00\x00\x00'
p3248
tp3249
bsS'finished'
p3250
I01
sS'nReps'
p3251
I2
sS'nRemaining'
p3252
I-1
sS'trialList'
p3253
(lp3254
NasS'seed'
p3255
NsS'thisIndex'
p3256
g1626
sS'thisN'
p3257
I2
sS'thisTrialN'
p3258
I0
sS'nTotal'
p3259
I2
sbag0
(g3192
g2
Ntp3260
Rp3261
(dp3262
g3196
Nsg3197
(lp3263
sg3199
I525659440
sg10
g3235
sg6
I-1
sg3201
I4
sg18
I01
sg19
g20
sg3202
g0
(g3203
g3204
(dp3264
g14
g3243
(g3209
(I0
tp3265
g3211
tp3266
Rp3267
(I1
(I1
I4
tp3268
g56
(S'O4'
p3269
I0
I1
tp3270
Rp3271
(I3
S'|'
p3272
NNNI-1
I-1
I63
tp3273
bI00
(lp3274
g439
ag439
ag439
ag439
atp3275
bsg16
g3243
(g3209
(I0
tp3276
g3211
tp3277
Rp3278
(I1
(I1
I4
tp3279
g3271
I00
(lp3280
g439
ag439
ag439
ag439
atp3281
bsg3206
g3207
(g3208
g3209
g3210
g3211
tp3282
Rp3283
(I1
(I1
I4
tp3284
g3217
I00
S'\x00\x00\x80?\x00\x00\x80?\x00\x00\x80?\x00\x00\x80?'
p3285
S'\x00\x00\x00\x00'
p3286
Ntp3287
bsg15
g3207
(g3208
g3209
g3210
g3211
tp3288
Rp3289
(I1
(I1
I4
tp3290
g3217
I00
S'H*9?\xb1\xab\xa8>W`\xe3>\x08\xe3h?'
p3291
S'\x00\x00\x00\x00'
p3292
Ntp3293
bsg3223
g3207
(g3208
g3209
g3210
g3211
tp3294
Rp3295
(I1
(I1
I4
tp3296
g3217
I00
S'\x00\x00\x00\x00\x00\x00\x80?\x00\x00\x00@\x00\x00@@'
p3297
S'\x00\x00\x00\x00'
p3298
Ntp3299
bsg17
g3207
(g3208
g3209
g3210
g3211
tp3300
Rp3301
(I1
(I1
I4
tp3302
g3217
I00
S'\xf5\x19{>\x01\x10\\>\n<\x82>\xcbM\xa3>'
p3303
S'\x00\x00\x00\x00'
p3304
Ntp3305
bstp3306
Rp3307
(dp3308
g3233
(dp3309
g16
I00
sg3206
I01
sg15
I01
sg14
I00
sg3223
I01
sg17
I01
ssg3235
g3261
sg3236
(lp3310
g3206
ag3223
ag14
ag15
ag16
ag17
asg3238
(lp3311
I1
aI4
asbsg3240
S'sequential'
p3312
sg3242
g3243
(g3209
(I0
tp3313
g3211
tp3314
Rp3315
(I1
(I1
I4
tp3316
g59
I00
S'\x00\x00\x00\x00\x00\x00\x00\x00\x00\x00\x00\x00\x00\x00\x00\x00'
p3317
tp3318
bsg3250
I01
sg3251
I4
sg3252
I-1
sg3253
(lp3319
Nasg3255
Nsg3256
g1252
sg3257
I4
sg3258
I0
sg3259
I4
sbag0
(g3192
g2
Ntp3320
Rp3321
(dp3322
g3196
Nsg3197
(lp3323
sg3199
I525659440
sg10
S'stim'
p3324
sg6
I-1
sg3201
I1
sg18
I01
sg19
g20
sg3202
g0
(g3203
g3204
(dp3325
g3206
g3207
(g3208
g3209
g3210
g3211
tp3326
Rp3327
(I1
(I16
I1
tp3328
g3217
I00
S'\x00\x00\x80?\x00\x00\x80?\x00\x00\x80?\x00\x00\x80?\x00\x00\x80?\x00\x00\x80?\x00\x00\x80?\x00\x00\x80?\x00\x00\x80?\x00\x00\x80?\x00\x00\x80?\x00\x00\x80?\x00\x00\x80?\x00\x00\x80?\x00\x00\x80?\x00\x00\x80?'
p3329
S'\x00\x00\x00\x00\x00\x00\x00\x00\x00\x00\x00\x00\x00\x00\x00\x00'
p3330
Ntp3331
bsg3223
g3207
(g3208
g3209
g3210
g3211
tp3332
Rp3333
(I1
(I16
I1
tp3334
g3217
I00
S'\x00\x00\x00\x00\x00\x00\x80?\x00\x00\x00@\x00\x00@@\x00\x00\x80@\x00\x00\xa0@\x00\x00\xc0@\x00\x00\xe0@\x00\x00\x00A\x00\x00\x10A\x00\x00 A\x00\x000A\x00\x00@A\x00\x00PA\x00\x00`A\x00\x00pA'
p3335
S'\x00\x00\x00\x00\x00\x00\x00\x00\x00\x00\x00\x00\x00\x00\x00\x00'
p3336
Ntp3337
bstp3338
Rp3339
(dp3340
g3233
(dp3341
g3206
I01
sg3223
I01
ssg3235
g3321
sg3236
(lp3342
g3206
ag3223
asg3238
(lp3343
I16
aI1
asbsg3240
g3312
sg3242
g3243
(g3209
(I0
tp3344
g3211
tp3345
Rp3346
(I1
(I16
I1
tp3347
g59
I00
S'\x00\x00\x00\x00\x01\x00\x00\x00\x02\x00\x00\x00\x03\x00\x00\x00\x04\x00\x00\x00\x05\x00\x00\x00\x06\x00\x00\x00\x07\x00\x00\x00\x08\x00\x00\x00\t\x00\x00\x00\n\x00\x00\x00\x0b\x00\x00\x00\x0c\x00\x00\x00\r\x00\x00\x00\x0e\x00\x00\x00\x0f\x00\x00\x00'
p3348
tp3349
bsg3250
I01
sg3251
I1
sg3252
I-1
sg3253
(lp3350
ccollections
OrderedDict
p3351
((lp3352
(lp3353
g41
ag92
aa(lp3354
g42
ag67
aa(lp3355
g43
ag53
aa(lp3356
g44
ag84
aa(lp3357
g45
ag74
aa(lp3358
g46
ag68
aatp3359
Rp3360
ag3351
((lp3361
(lp3362
g41
ag115
aa(lp3363
g42
ag67
aa(lp3364
g43
ag53
aa(lp3365
g44
ag110
aa(lp3366
g45
ag105
aa(lp3367
g46
ag68
aatp3368
Rp3369
ag3351
((lp3370
(lp3371
g41
ag138
aa(lp3372
g42
ag67
aa(lp3373
g43
ag53
aa(lp3374
g44
ag133
aa(lp3375
g45
ag128
aa(lp3376
g46
ag68
aatp3377
Rp3378
ag3351
((lp3379
(lp3380
g41
ag161
aa(lp3381
g42
ag67
aa(lp3382
g43
ag53
aa(lp3383
g44
ag156
aa(lp3384
g45
ag151
aa(lp3385
g46
ag68
aatp3386
Rp3387
ag3351
((lp3388
(lp3389
g41
ag184
aa(lp3390
g42
ag67
aa(lp3391
g43
ag53
aa(lp3392
g44
ag179
aa(lp3393
g45
ag174
aa(lp3394
g46
ag68
aatp3395
Rp3396
ag3351
((lp3397
(lp3398
g41
ag207
aa(lp3399
g42
ag67
aa(lp3400
g43
ag53
aa(lp3401
g44
ag202
aa(lp3402
g45
ag197
aa(lp3403
g46
ag68
aatp3404
Rp3405
ag3351
((lp3406
(lp3407
g41
ag230
aa(lp3408
g42
ag67
aa(lp3409
g43
ag53
aa(lp3410
g44
ag225
aa(lp3411
g45
ag220
aa(lp3412
g46
ag68
aatp3413
Rp3414
ag3351
((lp3415
(lp3416
g41
ag254
aa(lp3417
g42
ag67
aa(lp3418
g43
ag53
aa(lp3419
g44
ag249
aa(lp3420
g45
ag244
aa(lp3421
g46
ag241
aatp3422
Rp3423
ag3351
((lp3424
(lp3425
g41
ag277
aa(lp3426
g42
ag67
aa(lp3427
g43
ag53
aa(lp3428
g44
ag272
aa(lp3429
g45
ag267
aa(lp3430
g46
ag68
aatp3431
Rp3432
ag3351
((lp3433
(lp3434
g41
ag299
aa(lp3435
g42
ag67
aa(lp3436
g43
ag53
aa(lp3437
g44
ag294
aa(lp3438
g45
ag174
aa(lp3439
g46
ag68
aatp3440
Rp3441
ag3351
((lp3442
(lp3443
g41
ag321
aa(lp3444
g42
ag67
aa(lp3445
g43
ag53
aa(lp3446
g44
ag316
aa(lp3447
g45
ag220
aa(lp3448
g46
ag68
aatp3449
Rp3450
ag3351
((lp3451
(lp3452
g41
ag343
aa(lp3453
g42
ag67
aa(lp3454
g43
ag53
aa(lp3455
g44
ag338
aa(lp3456
g45
ag74
aa(lp3457
g46
ag68
aatp3458
Rp3459
ag3351
((lp3460
(lp3461
g41
ag367
aa(lp3462
g42
ag67
aa(lp3463
g43
ag53
aa(lp3464
g44
ag362
aa(lp3465
g45
ag357
aa(lp3466
g46
ag354
aatp3467
Rp3468
ag3351
((lp3469
(lp3470
g41
ag390
aa(lp3471
g42
ag67
aa(lp3472
g43
ag53
aa(lp3473
g44
ag385
aa(lp3474
g45
ag380
aa(lp3475
g46
ag68
aatp3476
Rp3477
ag3351
((lp3478
(lp3479
g41
ag413
aa(lp3480
g42
ag67
aa(lp3481
g43
ag53
aa(lp3482
g44
ag408
aa(lp3483
g45
ag403
aa(lp3484
g46
ag68
aatp3485
Rp3486
ag3351
((lp3487
(lp3488
g41
ag435
aa(lp3489
g42
ag67
aa(lp3490
g43
ag53
aa(lp3491
g44
ag430
aa(lp3492
g45
ag174
aa(lp3493
g46
ag68
aatp3494
Rp3495
asg3255
Nsg3256
g421
sg3257
I16
sg3258
I0
sg3259
I16
sbag0
(g3192
g2
Ntp3496
Rp3497
(dp3498
g3196
Nsg3197
(lp3499
sg3199
I525659440
sg10
g3324
sg6
I-1
sg3201
I1
sg18
I01
sg19
g20
sg3202
g0
(g3203
g3204
(dp3500
g3206
g3207
(g3208
g3209
g3210
g3211
tp3501
Rp3502
(I1
(I17
I1
tp3503
g3217
I00
S'\x00\x00\x80?\x00\x00\x80?\x00\x00\x80?\x00\x00\x80?\x00\x00\x80?\x00\x00\x80?\x00\x00\x80?\x00\x00\x80?\x00\x00\x80?\x00\x00\x80?\x00\x00\x80?\x00\x00\x80?\x00\x00\x80?\x00\x00\x80?\x00\x00\x80?\x00\x00\x80?\x00\x00\x80?'
p3504
S'\x00\x00\x00\x00\x00\x00\x00\x00\x00\x00\x00\x00\x00\x00\x00\x00\x00'
p3505
Ntp3506
bsg3223
g3207
(g3208
g3209
g3210
g3211
tp3507
Rp3508
(I1
(I17
I1
tp3509
g3217
I00
S'\x00\x00\x00\x00\x00\x00\x80?\x00\x00\x00@\x00\x00@@\x00\x00\x80@\x00\x00\xa0@\x00\x00\xc0@\x00\x00\xe0@\x00\x00\x00A\x00\x00\x10A\x00\x00 A\x00\x000A\x00\x00@A\x00\x00PA\x00\x00`A\x00\x00pA\x00\x00\x80A'
p3510
S'\x00\x00\x00\x00\x00\x00\x00\x00\x00\x00\x00\x00\x00\x00\x00\x00\x00'
p3511
Ntp3512
bstp3513
Rp3514
(dp3515
g3233
(dp3516
g3206
I01
sg3223
I01
ssg3235
g3497
sg3236
(lp3517
g3206
ag3223
asg3238
(lp3518
I17
aI1
asbsg3240
g3312
sg3242
g3243
(g3209
(I0
tp3519
g3211
tp3520
Rp3521
(I1
(I17
I1
tp3522
g59
I00
S'\x00\x00\x00\x00\x01\x00\x00\x00\x02\x00\x00\x00\x03\x00\x00\x00\x04\x00\x00\x00\x05\x00\x00\x00\x06\x00\x00\x00\x07\x00\x00\x00\x08\x00\x00\x00\t\x00\x00\x00\n\x00\x00\x00\x0b\x00\x00\x00\x0c\x00\x00\x00\r\x00\x00\x00\x0e\x00\x00\x00\x0f\x00\x00\x00\x10\x00\x00\x00'
p3523
tp3524
bsg3250
I01
sg3251
I1
sg3252
I-1
sg3253
(lp3525
g3351
((lp3526
(lp3527
g477
ag480
aa(lp3528
g458
ag459
aa(lp3529
g450
ag451
aa(lp3530
g471
ag474
aa(lp3531
g467
ag468
aa(lp3532
g460
ag461
aatp3533
Rp3534
ag3351
((lp3535
(lp3536
g477
ag502
aa(lp3537
g458
ag459
aa(lp3538
g450
ag451
aa(lp3539
g471
ag497
aa(lp3540
g467
ag468
aa(lp3541
g460
ag461
aatp3542
Rp3543
ag3351
((lp3544
(lp3545
g477
ag525
aa(lp3546
g458
ag459
aa(lp3547
g450
ag451
aa(lp3548
g471
ag520
aa(lp3549
g467
ag515
aa(lp3550
g460
ag461
aatp3551
Rp3552
ag3351
((lp3553
(lp3554
g477
ag548
aa(lp3555
g458
ag459
aa(lp3556
g450
ag451
aa(lp3557
g471
ag543
aa(lp3558
g467
ag538
aa(lp3559
g460
ag461
aatp3560
Rp3561
ag3351
((lp3562
(lp3563
g477
ag571
aa(lp3564
g458
ag459
aa(lp3565
g450
ag451
aa(lp3566
g471
ag566
aa(lp3567
g467
ag561
aa(lp3568
g460
ag461
aatp3569
Rp3570
ag3351
((lp3571
(lp3572
g477
ag594
aa(lp3573
g458
ag459
aa(lp3574
g450
ag451
aa(lp3575
g471
ag589
aa(lp3576
g467
ag584
aa(lp3577
g460
ag461
aatp3578
Rp3579
ag3351
((lp3580
(lp3581
g477
ag616
aa(lp3582
g458
ag459
aa(lp3583
g450
ag451
aa(lp3584
g471
ag611
aa(lp3585
g467
ag403
aa(lp3586
g460
ag461
aatp3587
Rp3588
ag3351
((lp3589
(lp3590
g477
ag640
aa(lp3591
g458
ag459
aa(lp3592
g450
ag451
aa(lp3593
g471
ag635
aa(lp3594
g467
ag630
aa(lp3595
g460
ag627
aatp3596
Rp3597
ag3351
((lp3598
(lp3599
g477
ag662
aa(lp3600
g458
ag459
aa(lp3601
g450
ag451
aa(lp3602
g471
ag657
aa(lp3603
g467
ag220
aa(lp3604
g460
ag461
aatp3605
Rp3606
ag3351
((lp3607
(lp3608
g477
ag684
aa(lp3609
g458
ag459
aa(lp3610
g450
ag451
aa(lp3611
g471
ag679
aa(lp3612
g467
ag538
aa(lp3613
g460
ag461
aatp3614
Rp3615
ag3351
((lp3616
(lp3617
g477
ag707
aa(lp3618
g458
ag459
aa(lp3619
g450
ag451
aa(lp3620
g471
ag702
aa(lp3621
g467
ag697
aa(lp3622
g460
ag461
aatp3623
Rp3624
ag3351
((lp3625
(lp3626
g477
ag730
aa(lp3627
g458
ag459
aa(lp3628
g450
ag451
aa(lp3629
g471
ag725
aa(lp3630
g467
ag720
aa(lp3631
g460
ag461
aatp3632
Rp3633
ag3351
((lp3634
(lp3635
g477
ag753
aa(lp3636
g458
ag459
aa(lp3637
g450
ag451
aa(lp3638
g471
ag748
aa(lp3639
g467
ag357
aa(lp3640
g460
ag741
aatp3641
Rp3642
ag3351
((lp3643
(lp3644
g477
ag776
aa(lp3645
g458
ag459
aa(lp3646
g450
ag451
aa(lp3647
g471
ag771
aa(lp3648
g467
ag766
aa(lp3649
g460
ag461
aatp3650
Rp3651
ag3351
((lp3652
(lp3653
g477
ag798
aa(lp3654
g458
ag459
aa(lp3655
g450
ag451
aa(lp3656
g471
ag793
aa(lp3657
g467
ag468
aa(lp3658
g460
ag461
aatp3659
Rp3660
ag3351
((lp3661
(lp3662
g477
ag821
aa(lp3663
g458
ag459
aa(lp3664
g450
ag451
aa(lp3665
g471
ag816
aa(lp3666
g467
ag811
aa(lp3667
g460
ag461
aatp3668
Rp3669
ag3351
((lp3670
(lp3671
g477
ag843
aa(lp3672
g458
ag459
aa(lp3673
g450
ag451
aa(lp3674
g471
ag838
aa(lp3675
g467
ag538
aa(lp3676
g460
ag461
aatp3677
Rp3678
asg3255
Nsg3256
g829
sg3257
I17
sg3258
I0
sg3259
I17
sbag0
(g3192
g2
Ntp3679
Rp3680
(dp3681
g3196
Nsg3197
(lp3682
sg3199
I525659440
sg10
g3324
sg6
I-1
sg3201
I1
sg18
I01
sg19
g20
sg3202
g0
(g3203
g3204
(dp3683
g3206
g3207
(g3208
g3209
g3210
g3211
tp3684
Rp3685
(I1
(I16
I1
tp3686
g3217
I00
S'\x00\x00\x80?\x00\x00\x80?\x00\x00\x80?\x00\x00\x80?\x00\x00\x80?\x00\x00\x80?\x00\x00\x80?\x00\x00\x80?\x00\x00\x80?\x00\x00\x80?\x00\x00\x80?\x00\x00\x80?\x00\x00\x80?\x00\x00\x80?\x00\x00\x80?\x00\x00\x80?'
p3687
S'\x00\x00\x00\x00\x00\x00\x00\x00\x00\x00\x00\x00\x00\x00\x00\x00'
p3688
Ntp3689
bsg3223
g3207
(g3208
g3209
g3210
g3211
tp3690
Rp3691
(I1
(I16
I1
tp3692
g3217
I00
S'\x00\x00\x00\x00\x00\x00\x80?\x00\x00\x00@\x00\x00@@\x00\x00\x80@\x00\x00\xa0@\x00\x00\xc0@\x00\x00\xe0@\x00\x00\x00A\x00\x00\x10A\x00\x00 A\x00\x000A\x00\x00@A\x00\x00PA\x00\x00`A\x00\x00pA'
p3693
S'\x00\x00\x00\x00\x00\x00\x00\x00\x00\x00\x00\x00\x00\x00\x00\x00'
p3694
Ntp3695
bstp3696
Rp3697
(dp3698
g3233
(dp3699
g3206
I01
sg3223
I01
ssg3235
g3680
sg3236
(lp3700
g3206
ag3223
asg3238
(lp3701
I16
aI1
asbsg3240
g3312
sg3242
g3243
(g3209
(I0
tp3702
g3211
tp3703
Rp3704
(I1
(I16
I1
tp3705
g59
I00
S'\x00\x00\x00\x00\x01\x00\x00\x00\x02\x00\x00\x00\x03\x00\x00\x00\x04\x00\x00\x00\x05\x00\x00\x00\x06\x00\x00\x00\x07\x00\x00\x00\x08\x00\x00\x00\t\x00\x00\x00\n\x00\x00\x00\x0b\x00\x00\x00\x0c\x00\x00\x00\r\x00\x00\x00\x0e\x00\x00\x00\x0f\x00\x00\x00'
p3706
tp3707
bsg3250
I01
sg3251
I1
sg3252
I-1
sg3253
(lp3708
g3351
((lp3709
(lp3710
g884
ag887
aa(lp3711
g865
ag866
aa(lp3712
g857
ag858
aa(lp3713
g878
ag881
aa(lp3714
g874
ag875
aa(lp3715
g867
ag868
aatp3716
Rp3717
ag3351
((lp3718
(lp3719
g884
ag910
aa(lp3720
g865
ag866
aa(lp3721
g857
ag858
aa(lp3722
g878
ag905
aa(lp3723
g874
ag244
aa(lp3724
g867
ag898
aatp3725
Rp3726
ag3351
((lp3727
(lp3728
g884
ag932
aa(lp3729
g865
ag866
aa(lp3730
g857
ag858
aa(lp3731
g878
ag927
aa(lp3732
g874
ag766
aa(lp3733
g867
ag868
aatp3734
Rp3735
ag3351
((lp3736
(lp3737
g884
ag955
aa(lp3738
g865
ag866
aa(lp3739
g857
ag858
aa(lp3740
g878
ag950
aa(lp3741
g874
ag945
aa(lp3742
g867
ag868
aatp3743
Rp3744
ag3351
((lp3745
(lp3746
g884
ag977
aa(lp3747
g865
ag866
aa(lp3748
g857
ag858
aa(lp3749
g878
ag972
aa(lp3750
g874
ag697
aa(lp3751
g867
ag868
aatp3752
Rp3753
ag3351
((lp3754
(lp3755
g884
ag999
aa(lp3756
g865
ag866
aa(lp3757
g857
ag858
aa(lp3758
g878
ag994
aa(lp3759
g874
ag380
aa(lp3760
g867
ag868
aatp3761
Rp3762
ag3351
((lp3763
(lp3764
g884
ag1021
aa(lp3765
g865
ag866
aa(lp3766
g857
ag858
aa(lp3767
g878
ag1016
aa(lp3768
g874
ag584
aa(lp3769
g867
ag868
aatp3770
Rp3771
ag3351
((lp3772
(lp3773
g884
ag1043
aa(lp3774
g865
ag866
aa(lp3775
g857
ag858
aa(lp3776
g878
ag1038
aa(lp3777
g874
ag766
aa(lp3778
g867
ag868
aatp3779
Rp3780
ag3351
((lp3781
(lp3782
g884
ag1065
aa(lp3783
g865
ag866
aa(lp3784
g857
ag858
aa(lp3785
g878
ag1060
aa(lp3786
g874
ag267
aa(lp3787
g867
ag868
aatp3788
Rp3789
ag3351
((lp3790
(lp3791
g884
ag1087
aa(lp3792
g865
ag866
aa(lp3793
g857
ag858
aa(lp3794
g878
ag1082
aa(lp3795
g874
ag403
aa(lp3796
g867
ag868
aatp3797
Rp3798
ag3351
((lp3799
(lp3800
g884
ag1110
aa(lp3801
g865
ag866
aa(lp3802
g857
ag858
aa(lp3803
g878
ag1105
aa(lp3804
g874
ag1100
aa(lp3805
g867
ag898
aatp3806
Rp3807
ag3351
((lp3808
(lp3809
g884
ag1133
aa(lp3810
g865
ag866
aa(lp3811
g857
ag858
aa(lp3812
g878
ag1128
aa(lp3813
g874
ag1123
aa(lp3814
g867
ag868
aatp3815
Rp3816
ag3351
((lp3817
(lp3818
g884
ag1156
aa(lp3819
g865
ag866
aa(lp3820
g857
ag858
aa(lp3821
g878
ag1151
aa(lp3822
g874
ag357
aa(lp3823
g867
ag1144
aatp3824
Rp3825
ag3351
((lp3826
(lp3827
g884
ag1178
aa(lp3828
g865
ag866
aa(lp3829
g857
ag858
aa(lp3830
g878
ag1173
aa(lp3831
g874
ag220
aa(lp3832
g867
ag868
aatp3833
Rp3834
ag3351
((lp3835
(lp3836
g884
ag1200
aa(lp3837
g865
ag866
aa(lp3838
g857
ag858
aa(lp3839
g878
ag1195
aa(lp3840
g874
ag811
aa(lp3841
g867
ag868
aatp3842
Rp3843
ag3351
((lp3844
(lp3845
g884
ag1223
aa(lp3846
g865
ag866
aa(lp3847
g857
ag858
aa(lp3848
g878
ag1218
aa(lp3849
g874
ag1213
aa(lp3850
g867
ag868
aatp3851
Rp3852
asg3255
Nsg3256
g1208
sg3257
I16
sg3258
I0
sg3259
I16
sbag0
(g3192
g2
Ntp3853
Rp3854
(dp3855
g3196
Nsg3197
(lp3856
sg3199
I525659440
sg10
g3324
sg6
I-1
sg3201
I1
sg18
I01
sg19
g20
sg3202
g0
(g3203
g3204
(dp3857
g3206
g3207
(g3208
g3209
g3210
g3211
tp3858
Rp3859
(I1
(I15
I1
tp3860
g3217
I00
S'\x00\x00\x80?\x00\x00\x80?\x00\x00\x80?\x00\x00\x80?\x00\x00\x80?\x00\x00\x80?\x00\x00\x80?\x00\x00\x80?\x00\x00\x80?\x00\x00\x80?\x00\x00\x80?\x00\x00\x80?\x00\x00\x80?\x00\x00\x80?\x00\x00\x80?'
p3861
S'\x00\x00\x00\x00\x00\x00\x00\x00\x00\x00\x00\x00\x00\x00\x00'
p3862
Ntp3863
bsg3223
g3207
(g3208
g3209
g3210
g3211
tp3864
Rp3865
(I1
(I15
I1
tp3866
g3217
I00
S'\x00\x00\x00\x00\x00\x00\x80?\x00\x00\x00@\x00\x00@@\x00\x00\x80@\x00\x00\xa0@\x00\x00\xc0@\x00\x00\xe0@\x00\x00\x00A\x00\x00\x10A\x00\x00 A\x00\x000A\x00\x00@A\x00\x00PA\x00\x00`A'
p3867
S'\x00\x00\x00\x00\x00\x00\x00\x00\x00\x00\x00\x00\x00\x00\x00'
p3868
Ntp3869
bstp3870
Rp3871
(dp3872
g3233
(dp3873
g3206
I01
sg3223
I01
ssg3235
g3854
sg3236
(lp3874
g3206
ag3223
asg3238
(lp3875
I15
aI1
asbsg3240
g3312
sg3242
g3243
(g3209
(I0
tp3876
g3211
tp3877
Rp3878
(I1
(I15
I1
tp3879
g59
I00
S'\x00\x00\x00\x00\x01\x00\x00\x00\x02\x00\x00\x00\x03\x00\x00\x00\x04\x00\x00\x00\x05\x00\x00\x00\x06\x00\x00\x00\x07\x00\x00\x00\x08\x00\x00\x00\t\x00\x00\x00\n\x00\x00\x00\x0b\x00\x00\x00\x0c\x00\x00\x00\r\x00\x00\x00\x0e\x00\x00\x00'
p3880
tp3881
bsg3250
I01
sg3251
I1
sg3252
I-1
sg3253
(lp3882
g3351
((lp3883
(lp3884
g1264
ag1267
aa(lp3885
g1245
ag1246
aa(lp3886
g1237
ag1238
aa(lp3887
g1258
ag1261
aa(lp3888
g1254
ag1255
aa(lp3889
g1247
ag1248
aatp3890
Rp3891
ag3351
((lp3892
(lp3893
g1264
ag1289
aa(lp3894
g1245
ag1246
aa(lp3895
g1237
ag1238
aa(lp3896
g1258
ag1284
aa(lp3897
g1254
ag403
aa(lp3898
g1247
ag1248
aatp3899
Rp3900
ag3351
((lp3901
(lp3902
g1264
ag1312
aa(lp3903
g1245
ag1246
aa(lp3904
g1237
ag1238
aa(lp3905
g1258
ag1307
aa(lp3906
g1254
ag1302
aa(lp3907
g1247
ag1248
aatp3908
Rp3909
ag3351
((lp3910
(lp3911
g1264
ag1334
aa(lp3912
g1245
ag1246
aa(lp3913
g1237
ag1238
aa(lp3914
g1258
ag1329
aa(lp3915
g1254
ag766
aa(lp3916
g1247
ag1248
aatp3917
Rp3918
ag3351
((lp3919
(lp3920
g1264
ag1357
aa(lp3921
g1245
ag1246
aa(lp3922
g1237
ag1238
aa(lp3923
g1258
ag1352
aa(lp3924
g1254
ag244
aa(lp3925
g1247
ag1345
aatp3926
Rp3927
ag3351
((lp3928
(lp3929
g1264
ag1380
aa(lp3930
g1245
ag1246
aa(lp3931
g1237
ag1238
aa(lp3932
g1258
ag1375
aa(lp3933
g1254
ag1370
aa(lp3934
g1247
ag1248
aatp3935
Rp3936
ag3351
((lp3937
(lp3938
g1264
ag1402
aa(lp3939
g1245
ag1246
aa(lp3940
g1237
ag1238
aa(lp3941
g1258
ag1397
aa(lp3942
g1254
ag1302
aa(lp3943
g1247
ag1248
aatp3944
Rp3945
ag3351
((lp3946
(lp3947
g1264
ag1424
aa(lp3948
g1245
ag1246
aa(lp3949
g1237
ag1238
aa(lp3950
g1258
ag1419
aa(lp3951
g1254
ag468
aa(lp3952
g1247
ag1248
aatp3953
Rp3954
ag3351
((lp3955
(lp3956
g1264
ag1446
aa(lp3957
g1245
ag1246
aa(lp3958
g1237
ag1238
aa(lp3959
g1258
ag1441
aa(lp3960
g1254
ag584
aa(lp3961
g1247
ag1248
aatp3962
Rp3963
ag3351
((lp3964
(lp3965
g1264
ag1469
aa(lp3966
g1245
ag1246
aa(lp3967
g1237
ag1238
aa(lp3968
g1258
ag1464
aa(lp3969
g1254
ag357
aa(lp3970
g1247
ag1457
aatp3971
Rp3972
ag3351
((lp3973
(lp3974
g1264
ag1491
aa(lp3975
g1245
ag1246
aa(lp3976
g1237
ag1238
aa(lp3977
g1258
ag1486
aa(lp3978
g1254
ag1370
aa(lp3979
g1247
ag1248
aatp3980
Rp3981
ag3351
((lp3982
(lp3983
g1264
ag1513
aa(lp3984
g1245
ag1246
aa(lp3985
g1237
ag1238
aa(lp3986
g1258
ag1508
aa(lp3987
g1254
ag697
aa(lp3988
g1247
ag1248
aatp3989
Rp3990
ag3351
((lp3991
(lp3992
g1264
ag1535
aa(lp3993
g1245
ag1246
aa(lp3994
g1237
ag1238
aa(lp3995
g1258
ag1530
aa(lp3996
g1254
ag220
aa(lp3997
g1247
ag1248
aatp3998
Rp3999
ag3351
((lp4000
(lp4001
g1264
ag1557
aa(lp4002
g1245
ag1246
aa(lp4003
g1237
ag1238
aa(lp4004
g1258
ag1552
aa(lp4005
g1254
ag1370
aa(lp4006
g1247
ag1248
aatp4007
Rp4008
ag3351
((lp4009
(lp4010
g1264
ag1579
aa(lp4011
g1245
ag1246
aa(lp4012
g1237
ag1238
aa(lp4013
g1258
ag1574
aa(lp4014
g1254
ag766
aa(lp4015
g1247
ag1248
aatp4016
Rp4017
asg3255
Nsg3256
g1565
sg3257
I15
sg3258
I0
sg3259
I15
sbag0
(g3192
g2
Ntp4018
Rp4019
(dp4020
g3196
Nsg3197
(lp4021
sg3199
I525659440
sg10
g3235
sg6
I-1
sg3201
I4
sg18
I01
sg19
g20
sg3202
g0
(g3203
g3204
(dp4022
g14
g3243
(g3209
(I0
tp4023
g3211
tp4024
Rp4025
(I1
(I1
I4
tp4026
g3271
I00
(lp4027
g439
ag439
ag439
ag439
atp4028
bsg16
g3243
(g3209
(I0
tp4029
g3211
tp4030
Rp4031
(I1
(I1
I4
tp4032
g3271
I00
(lp4033
g439
ag439
ag439
ag439
atp4034
bsg3206
g3207
(g3208
g3209
g3210
g3211
tp4035
Rp4036
(I1
(I1
I4
tp4037
g3217
I00
S'\x00\x00\x80?\x00\x00\x80?\x00\x00\x80?\x00\x00\x80?'
p4038
S'\x00\x00\x00\x00'
p4039
Ntp4040
bsg15
g3207
(g3208
g3209
g3210
g3211
tp4041
Rp4042
(I1
(I1
I4
tp4043
g3217
I00
S'h>\x1b?\xdb\x15\x1c?\xa6m\x96>\xd1\xb7H?'
p4044
S'\x00\x00\x00\x00'
p4045
Ntp4046
bsg3223
g3207
(g3208
g3209
g3210
g3211
tp4047
Rp4048
(I1
(I1
I4
tp4049
g3217
I00
S'\x00\x00\x00\x00\x00\x00\x80?\x00\x00\x00@\x00\x00@@'
p4050
S'\x00\x00\x00\x00'
p4051
Ntp4052
bsg17
g3207
(g3208
g3209
g3210
g3211
tp4053
Rp4054
(I1
(I1
I4
tp4055
g3217
I00
S'.=\xa2>\x98\x15r>\xaf\x93_>\xdd%a>'
p4056
S'\x00\x00\x00\x00'
p4057
Ntp4058
bstp4059
Rp4060
(dp4061
g3233
(dp4062
g16
I00
sg3206
I01
sg15
I01
sg14
I00
sg3223
I01
sg17
I01
ssg3235
g4019
sg3236
(lp4063
g3206
ag3223
ag14
ag15
ag16
ag17
asg3238
(lp4064
I1
aI4
asbsg3240
g3312
sg3242
g3243
(g3209
(I0
tp4065
g3211
tp4066
Rp4067
(I1
(I1
I4
tp4068
g59
I00
S'\x00\x00\x00\x00\x00\x00\x00\x00\x00\x00\x00\x00\x00\x00\x00\x00'
p4069
tp4070
bsg3250
I01
sg3251
I4
sg3252
I-1
sg3253
(lp4071
Nasg3255
Nsg3256
g2785
sg3257
I4
sg3258
I0
sg3259
I4
sbag0
(g3192
g2
Ntp4072
Rp4073
(dp4074
g3196
Nsg3197
(lp4075
sg3199
I525659440
sg10
g3324
sg6
I-1
sg3201
I1
sg18
I01
sg19
g20
sg3202
g0
(g3203
g3204
(dp4076
g3206
g3207
(g3208
g3209
g3210
g3211
tp4077
Rp4078
(I1
(I16
I1
tp4079
g3217
I00
S'\x00\x00\x80?\x00\x00\x80?\x00\x00\x80?\x00\x00\x80?\x00\x00\x80?\x00\x00\x80?\x00\x00\x80?\x00\x00\x80?\x00\x00\x80?\x00\x00\x80?\x00\x00\x80?\x00\x00\x80?\x00\x00\x80?\x00\x00\x80?\x00\x00\x80?\x00\x00\x80?'
p4080
S'\x00\x00\x00\x00\x00\x00\x00\x00\x00\x00\x00\x00\x00\x00\x00\x00'
p4081
Ntp4082
bsg3223
g3207
(g3208
g3209
g3210
g3211
tp4083
Rp4084
(I1
(I16
I1
tp4085
g3217
I00
S'\x00\x00\x00\x00\x00\x00\x80?\x00\x00\x00@\x00\x00@@\x00\x00\x80@\x00\x00\xa0@\x00\x00\xc0@\x00\x00\xe0@\x00\x00\x00A\x00\x00\x10A\x00\x00 A\x00\x000A\x00\x00@A\x00\x00PA\x00\x00`A\x00\x00pA'
p4086
S'\x00\x00\x00\x00\x00\x00\x00\x00\x00\x00\x00\x00\x00\x00\x00\x00'
p4087
Ntp4088
bstp4089
Rp4090
(dp4091
g3233
(dp4092
g3206
I01
sg3223
I01
ssg3235
g4073
sg3236
(lp4093
g3206
ag3223
asg3238
(lp4094
I16
aI1
asbsg3240
g3312
sg3242
g3243
(g3209
(I0
tp4095
g3211
tp4096
Rp4097
(I1
(I16
I1
tp4098
g59
I00
S'\x00\x00\x00\x00\x01\x00\x00\x00\x02\x00\x00\x00\x03\x00\x00\x00\x04\x00\x00\x00\x05\x00\x00\x00\x06\x00\x00\x00\x07\x00\x00\x00\x08\x00\x00\x00\t\x00\x00\x00\n\x00\x00\x00\x0b\x00\x00\x00\x0c\x00\x00\x00\r\x00\x00\x00\x0e\x00\x00\x00\x0f\x00\x00\x00'
p4099
tp4100
bsg3250
I01
sg3251
I1
sg3252
I-1
sg3253
(lp4101
g3351
((lp4102
(lp4103
g1627
ag1630
aa(lp4104
g1606
ag1607
aa(lp4105
g1598
ag1599
aa(lp4106
g1618
ag1621
aa(lp4107
g1615
ag74
aa(lp4108
g1608
ag1609
aatp4109
Rp4110
ag3351
((lp4111
(lp4112
g1627
ag1652
aa(lp4113
g1606
ag1607
aa(lp4114
g1598
ag1599
aa(lp4115
g1618
ag1647
aa(lp4116
g1615
ag811
aa(lp4117
g1608
ag1609
aatp4118
Rp4119
ag3351
((lp4120
(lp4121
g1627
ag1674
aa(lp4122
g1606
ag1607
aa(lp4123
g1598
ag1599
aa(lp4124
g1618
ag1669
aa(lp4125
g1615
ag561
aa(lp4126
g1608
ag1609
aatp4127
Rp4128
ag3351
((lp4129
(lp4130
g1627
ag1696
aa(lp4131
g1606
ag1607
aa(lp4132
g1598
ag1599
aa(lp4133
g1618
ag1691
aa(lp4134
g1615
ag1213
aa(lp4135
g1608
ag1609
aatp4136
Rp4137
ag3351
((lp4138
(lp4139
g1627
ag1718
aa(lp4140
g1606
ag1607
aa(lp4141
g1598
ag1599
aa(lp4142
g1618
ag1713
aa(lp4143
g1615
ag267
aa(lp4144
g1608
ag1609
aatp4145
Rp4146
ag3351
((lp4147
(lp4148
g1627
ag1740
aa(lp4149
g1606
ag1607
aa(lp4150
g1598
ag1599
aa(lp4151
g1618
ag1735
aa(lp4152
g1615
ag1213
aa(lp4153
g1608
ag1609
aatp4154
Rp4155
ag3351
((lp4156
(lp4157
g1627
ag1762
aa(lp4158
g1606
ag1607
aa(lp4159
g1598
ag1599
aa(lp4160
g1618
ag1757
aa(lp4161
g1615
ag267
aa(lp4162
g1608
ag1609
aatp4163
Rp4164
ag3351
((lp4165
(lp4166
g1627
ag1784
aa(lp4167
g1606
ag1607
aa(lp4168
g1598
ag1599
aa(lp4169
g1618
ag1779
aa(lp4170
g1615
ag1302
aa(lp4171
g1608
ag1609
aatp4172
Rp4173
ag3351
((lp4174
(lp4175
g1627
ag1806
aa(lp4176
g1606
ag1607
aa(lp4177
g1598
ag1599
aa(lp4178
g1618
ag1801
aa(lp4179
g1615
ag1255
aa(lp4180
g1608
ag1609
aatp4181
Rp4182
ag3351
((lp4183
(lp4184
g1627
ag1829
aa(lp4185
g1606
ag1607
aa(lp4186
g1598
ag1599
aa(lp4187
g1618
ag1824
aa(lp4188
g1615
ag1100
aa(lp4189
g1608
ag1817
aatp4190
Rp4191
ag3351
((lp4192
(lp4193
g1627
ag1851
aa(lp4194
g1606
ag1607
aa(lp4195
g1598
ag1599
aa(lp4196
g1618
ag1846
aa(lp4197
g1615
ag105
aa(lp4198
g1608
ag1609
aatp4199
Rp4200
ag3351
((lp4201
(lp4202
g1627
ag1873
aa(lp4203
g1606
ag1607
aa(lp4204
g1598
ag1599
aa(lp4205
g1618
ag1868
aa(lp4206
g1615
ag128
aa(lp4207
g1608
ag1609
aatp4208
Rp4209
ag3351
((lp4210
(lp4211
g1627
ag1895
aa(lp4212
g1606
ag1607
aa(lp4213
g1598
ag1599
aa(lp4214
g1618
ag1890
aa(lp4215
g1615
ag1123
aa(lp4216
g1608
ag1609
aatp4217
Rp4218
ag3351
((lp4219
(lp4220
g1627
ag1917
aa(lp4221
g1606
ag1607
aa(lp4222
g1598
ag1599
aa(lp4223
g1618
ag1912
aa(lp4224
g1615
ag1123
aa(lp4225
g1608
ag1609
aatp4226
Rp4227
ag3351
((lp4228
(lp4229
g1627
ag1940
aa(lp4230
g1606
ag1607
aa(lp4231
g1598
ag1599
aa(lp4232
g1618
ag1935
aa(lp4233
g1615
ag357
aa(lp4234
g1608
ag1928
aatp4235
Rp4236
ag3351
((lp4237
(lp4238
g1627
ag1962
aa(lp4239
g1606
ag1607
aa(lp4240
g1598
ag1599
aa(lp4241
g1618
ag1957
aa(lp4242
g1615
ag515
aa(lp4243
g1608
ag1609
aatp4244
Rp4245
asg3255
Nsg3256
g1948
sg3257
I16
sg3258
I0
sg3259
I16
sbag0
(g3192
g2
Ntp4246
Rp4247
(dp4248
g3196
Nsg3197
(lp4249
sg3199
I525659440
sg10
g3324
sg6
I-1
sg3201
I1
sg18
I01
sg19
g20
sg3202
g0
(g3203
g3204
(dp4250
g3206
g3207
(g3208
g3209
g3210
g3211
tp4251
Rp4252
(I1
(I16
I1
tp4253
g3217
I00
S'\x00\x00\x80?\x00\x00\x80?\x00\x00\x80?\x00\x00\x80?\x00\x00\x80?\x00\x00\x80?\x00\x00\x80?\x00\x00\x80?\x00\x00\x80?\x00\x00\x80?\x00\x00\x80?\x00\x00\x80?\x00\x00\x80?\x00\x00\x80?\x00\x00\x80?\x00\x00\x80?'
p4254
S'\x00\x00\x00\x00\x00\x00\x00\x00\x00\x00\x00\x00\x00\x00\x00\x00'
p4255
Ntp4256
bsg3223
g3207
(g3208
g3209
g3210
g3211
tp4257
Rp4258
(I1
(I16
I1
tp4259
g3217
I00
S'\x00\x00\x00\x00\x00\x00\x80?\x00\x00\x00@\x00\x00@@\x00\x00\x80@\x00\x00\xa0@\x00\x00\xc0@\x00\x00\xe0@\x00\x00\x00A\x00\x00\x10A\x00\x00 A\x00\x000A\x00\x00@A\x00\x00PA\x00\x00`A\x00\x00pA'
p4260
S'\x00\x00\x00\x00\x00\x00\x00\x00\x00\x00\x00\x00\x00\x00\x00\x00'
p4261
Ntp4262
bstp4263
Rp4264
(dp4265
g3233
(dp4266
g3206
I01
sg3223
I01
ssg3235
g4247
sg3236
(lp4267
g3206
ag3223
asg3238
(lp4268
I16
aI1
asbsg3240
g3312
sg3242
g3243
(g3209
(I0
tp4269
g3211
tp4270
Rp4271
(I1
(I16
I1
tp4272
g59
I00
S'\x00\x00\x00\x00\x01\x00\x00\x00\x02\x00\x00\x00\x03\x00\x00\x00\x04\x00\x00\x00\x05\x00\x00\x00\x06\x00\x00\x00\x07\x00\x00\x00\x08\x00\x00\x00\t\x00\x00\x00\n\x00\x00\x00\x0b\x00\x00\x00\x0c\x00\x00\x00\r\x00\x00\x00\x0e\x00\x00\x00\x0f\x00\x00\x00'
p4273
tp4274
bsg3250
I01
sg3251
I1
sg3252
I-1
sg3253
(lp4275
g3351
((lp4276
(lp4277
g2002
ag2005
aa(lp4278
g1984
ag1985
aa(lp4279
g1976
ag1977
aa(lp4280
g1996
ag1999
aa(lp4281
g1993
ag174
aa(lp4282
g1986
ag1987
aatp4283
Rp4284
ag3351
((lp4285
(lp4286
g2002
ag2028
aa(lp4287
g1984
ag1985
aa(lp4288
g1976
ag1977
aa(lp4289
g1996
ag2023
aa(lp4290
g1993
ag630
aa(lp4291
g1986
ag2016
aatp4292
Rp4293
ag3351
((lp4294
(lp4295
g2002
ag2050
aa(lp4296
g1984
ag1985
aa(lp4297
g1976
ag1977
aa(lp4298
g1996
ag2045
aa(lp4299
g1993
ag697
aa(lp4300
g1986
ag1987
aatp4301
Rp4302
ag3351
((lp4303
(lp4304
g2002
ag2072
aa(lp4305
g1984
ag1985
aa(lp4306
g1976
ag1977
aa(lp4307
g1996
ag2067
aa(lp4308
g1993
ag945
aa(lp4309
g1986
ag1987
aatp4310
Rp4311
ag3351
((lp4312
(lp4313
g2002
ag2094
aa(lp4314
g1984
ag1985
aa(lp4315
g1976
ag1977
aa(lp4316
g1996
ag2089
aa(lp4317
g1993
ag1123
aa(lp4318
g1986
ag1987
aatp4319
Rp4320
ag3351
((lp4321
(lp4322
g2002
ag2116
aa(lp4323
g1984
ag1985
aa(lp4324
g1976
ag1977
aa(lp4325
g1996
ag2111
aa(lp4326
g1993
ag197
aa(lp4327
g1986
ag1987
aatp4328
Rp4329
ag3351
((lp4330
(lp4331
g2002
ag2138
aa(lp4332
g1984
ag1985
aa(lp4333
g1976
ag1977
aa(lp4334
g1996
ag2133
aa(lp4335
g1993
ag584
aa(lp4336
g1986
ag1987
aatp4337
Rp4338
ag3351
((lp4339
(lp4340
g2002
ag2160
aa(lp4341
g1984
ag1985
aa(lp4342
g1976
ag1977
aa(lp4343
g1996
ag2155
aa(lp4344
g1993
ag151
aa(lp4345
g1986
ag1987
aatp4346
Rp4347
ag3351
((lp4348
(lp4349
g2002
ag2182
aa(lp4350
g1984
ag1985
aa(lp4351
g1976
ag1977
aa(lp4352
g1996
ag2177
aa(lp4353
g1993
ag720
aa(lp4354
g1986
ag1987
aatp4355
Rp4356
ag3351
((lp4357
(lp4358
g2002
ag2204
aa(lp4359
g1984
ag1985
aa(lp4360
g1976
ag1977
aa(lp4361
g1996
ag2199
aa(lp4362
g1993
ag875
aa(lp4363
g1986
ag1987
aatp4364
Rp4365
ag3351
((lp4366
(lp4367
g2002
ag2227
aa(lp4368
g1984
ag1985
aa(lp4369
g1976
ag1977
aa(lp4370
g1996
ag2222
aa(lp4371
g1993
ag2217
aa(lp4372
g1986
ag2016
aatp4373
Rp4374
ag3351
((lp4375
(lp4376
g2002
ag2249
aa(lp4377
g1984
ag1985
aa(lp4378
g1976
ag1977
aa(lp4379
g1996
ag2244
aa(lp4380
g1993
ag1302
aa(lp4381
g1986
ag1987
aatp4382
Rp4383
ag3351
((lp4384
(lp4385
g2002
ag2271
aa(lp4386
g1984
ag1985
aa(lp4387
g1976
ag1977
aa(lp4388
g1996
ag2266
aa(lp4389
g1993
ag811
aa(lp4390
g1986
ag1987
aatp4391
Rp4392
ag3351
((lp4393
(lp4394
g2002
ag2293
aa(lp4395
g1984
ag1985
aa(lp4396
g1976
ag1977
aa(lp4397
g1996
ag2288
aa(lp4398
g1993
ag105
aa(lp4399
g1986
ag1987
aatp4400
Rp4401
ag3351
((lp4402
(lp4403
g2002
ag2315
aa(lp4404
g1984
ag1985
aa(lp4405
g1976
ag1977
aa(lp4406
g1996
ag2310
aa(lp4407
g1993
ag538
aa(lp4408
g1986
ag1987
aatp4409
Rp4410
ag3351
((lp4411
(lp4412
g2002
ag2337
aa(lp4413
g1984
ag1985
aa(lp4414
g1976
ag1977
aa(lp4415
g1996
ag2332
aa(lp4416
g1993
ag811
aa(lp4417
g1986
ag1987
aatp4418
Rp4419
asg3255
Nsg3256
g2323
sg3257
I16
sg3258
I0
sg3259
I16
sbag0
(g3192
g2
Ntp4420
Rp4421
(dp4422
g3196
Nsg3197
(lp4423
sg3199
I525659440
sg10
g3324
sg6
I-1
sg3201
I1
sg18
I01
sg19
g20
sg3202
g0
(g3203
g3204
(dp4424
g3206
g3207
(g3208
g3209
g3210
g3211
tp4425
Rp4426
(I1
(I18
I1
tp4427
g3217
I00
S'\x00\x00\x80?\x00\x00\x80?\x00\x00\x80?\x00\x00\x80?\x00\x00\x80?\x00\x00\x80?\x00\x00\x80?\x00\x00\x80?\x00\x00\x80?\x00\x00\x80?\x00\x00\x80?\x00\x00\x80?\x00\x00\x80?\x00\x00\x80?\x00\x00\x80?\x00\x00\x80?\x00\x00\x80?\x00\x00\x80?'
p4428
S'\x00\x00\x00\x00\x00\x00\x00\x00\x00\x00\x00\x00\x00\x00\x00\x00\x00\x00'
p4429
Ntp4430
bsg3223
g3207
(g3208
g3209
g3210
g3211
tp4431
Rp4432
(I1
(I18
I1
tp4433
g3217
I00
S'\x00\x00\x00\x00\x00\x00\x80?\x00\x00\x00@\x00\x00@@\x00\x00\x80@\x00\x00\xa0@\x00\x00\xc0@\x00\x00\xe0@\x00\x00\x00A\x00\x00\x10A\x00\x00 A\x00\x000A\x00\x00@A\x00\x00PA\x00\x00`A\x00\x00pA\x00\x00\x80A\x00\x00\x88A'
p4434
S'\x00\x00\x00\x00\x00\x00\x00\x00\x00\x00\x00\x00\x00\x00\x00\x00\x00\x00'
p4435
Ntp4436
bstp4437
Rp4438
(dp4439
g3233
(dp4440
g3206
I01
sg3223
I01
ssg3235
g4421
sg3236
(lp4441
g3206
ag3223
asg3238
(lp4442
I18
aI1
asbsg3240
g3312
sg3242
g3243
(g3209
(I0
tp4443
g3211
tp4444
Rp4445
(I1
(I18
I1
tp4446
g59
I00
S'\x00\x00\x00\x00\x01\x00\x00\x00\x02\x00\x00\x00\x03\x00\x00\x00\x04\x00\x00\x00\x05\x00\x00\x00\x06\x00\x00\x00\x07\x00\x00\x00\x08\x00\x00\x00\t\x00\x00\x00\n\x00\x00\x00\x0b\x00\x00\x00\x0c\x00\x00\x00\r\x00\x00\x00\x0e\x00\x00\x00\x0f\x00\x00\x00\x10\x00\x00\x00\x11\x00\x00\x00'
p4447
tp4448
bsg3250
I01
sg3251
I1
sg3252
I-1
sg3253
(lp4449
g3351
((lp4450
(lp4451
g2377
ag2380
aa(lp4452
g2359
ag2360
aa(lp4453
g2351
ag2352
aa(lp4454
g2371
ag2374
aa(lp4455
g2368
ag1302
aa(lp4456
g2361
ag2362
aatp4457
Rp4458
ag3351
((lp4459
(lp4460
g2377
ag2402
aa(lp4461
g2359
ag2360
aa(lp4462
g2351
ag2352
aa(lp4463
g2371
ag2397
aa(lp4464
g2368
ag811
aa(lp4465
g2361
ag2362
aatp4466
Rp4467
ag3351
((lp4468
(lp4469
g2377
ag2424
aa(lp4470
g2359
ag2360
aa(lp4471
g2351
ag2352
aa(lp4472
g2371
ag2419
aa(lp4473
g2368
ag74
aa(lp4474
g2361
ag2362
aatp4475
Rp4476
ag3351
((lp4477
(lp4478
g2377
ag2446
aa(lp4479
g2359
ag2360
aa(lp4480
g2351
ag2352
aa(lp4481
g2371
ag2441
aa(lp4482
g2368
ag875
aa(lp4483
g2361
ag2362
aatp4484
Rp4485
ag3351
((lp4486
(lp4487
g2377
ag2468
aa(lp4488
g2359
ag2360
aa(lp4489
g2351
ag2352
aa(lp4490
g2371
ag2463
aa(lp4491
g2368
ag1370
aa(lp4492
g2361
ag2362
aatp4493
Rp4494
ag3351
((lp4495
(lp4496
g2377
ag2492
aa(lp4497
g2359
ag2360
aa(lp4498
g2351
ag2352
aa(lp4499
g2371
ag2487
aa(lp4500
g2368
ag2482
aa(lp4501
g2361
ag2479
aatp4502
Rp4503
ag3351
((lp4504
(lp4505
g2377
ag2514
aa(lp4506
g2359
ag2360
aa(lp4507
g2351
ag2352
aa(lp4508
g2371
ag2509
aa(lp4509
g2368
ag875
aa(lp4510
g2361
ag2362
aatp4511
Rp4512
ag3351
((lp4513
(lp4514
g2377
ag2536
aa(lp4515
g2359
ag2360
aa(lp4516
g2351
ag2352
aa(lp4517
g2371
ag2531
aa(lp4518
g2368
ag1302
aa(lp4519
g2361
ag2362
aatp4520
Rp4521
ag3351
((lp4522
(lp4523
g2377
ag2558
aa(lp4524
g2359
ag2360
aa(lp4525
g2351
ag2352
aa(lp4526
g2371
ag2553
aa(lp4527
g2368
ag174
aa(lp4528
g2361
ag2362
aatp4529
Rp4530
ag3351
((lp4531
(lp4532
g2377
ag2580
aa(lp4533
g2359
ag2360
aa(lp4534
g2351
ag2352
aa(lp4535
g2371
ag2575
aa(lp4536
g2368
ag1302
aa(lp4537
g2361
ag2362
aatp4538
Rp4539
ag3351
((lp4540
(lp4541
g2377
ag2602
aa(lp4542
g2359
ag2360
aa(lp4543
g2351
ag2352
aa(lp4544
g2371
ag2597
aa(lp4545
g2368
ag403
aa(lp4546
g2361
ag2362
aatp4547
Rp4548
ag3351
((lp4549
(lp4550
g2377
ag2624
aa(lp4551
g2359
ag2360
aa(lp4552
g2351
ag2352
aa(lp4553
g2371
ag2619
aa(lp4554
g2368
ag174
aa(lp4555
g2361
ag2362
aatp4556
Rp4557
ag3351
((lp4558
(lp4559
g2377
ag2646
aa(lp4560
g2359
ag2360
aa(lp4561
g2351
ag2352
aa(lp4562
g2371
ag2641
aa(lp4563
g2368
ag561
aa(lp4564
g2361
ag2362
aatp4565
Rp4566
ag3351
((lp4567
(lp4568
g2377
ag2668
aa(lp4569
g2359
ag2360
aa(lp4570
g2351
ag2352
aa(lp4571
g2371
ag2663
aa(lp4572
g2368
ag515
aa(lp4573
g2361
ag2362
aatp4574
Rp4575
ag3351
((lp4576
(lp4577
g2377
ag2690
aa(lp4578
g2359
ag2360
aa(lp4579
g2351
ag2352
aa(lp4580
g2371
ag2685
aa(lp4581
g2368
ag244
aa(lp4582
g2361
ag2479
aatp4583
Rp4584
ag3351
((lp4585
(lp4586
g2377
ag2712
aa(lp4587
g2359
ag2360
aa(lp4588
g2351
ag2352
aa(lp4589
g2371
ag2707
aa(lp4590
g2368
ag697
aa(lp4591
g2361
ag2362
aatp4592
Rp4593
ag3351
((lp4594
(lp4595
g2377
ag2734
aa(lp4596
g2359
ag2360
aa(lp4597
g2351
ag2352
aa(lp4598
g2371
ag2729
aa(lp4599
g2368
ag1213
aa(lp4600
g2361
ag2362
aatp4601
Rp4602
ag3351
((lp4603
(lp4604
g2377
ag2756
aa(lp4605
g2359
ag2360
aa(lp4606
g2351
ag2352
aa(lp4607
g2371
ag2751
aa(lp4608
g2368
ag766
aa(lp4609
g2361
ag2362
aatp4610
Rp4611
asg3255
Nsg3256
g2742
sg3257
I18
sg3258
I0
sg3259
I18
sbag0
(g3192
g2
Ntp4612
Rp4613
(dp4614
g3196
Nsg3197
(lp4615
sg3199
I525659440
sg10
g3324
sg6
I-1
sg3201
I1
sg18
I01
sg19
g20
sg3202
g0
(g3203
g3204
(dp4616
g3206
g3207
(g3208
g3209
g3210
g3211
tp4617
Rp4618
(I1
(I18
I1
tp4619
g3217
I00
S'\x00\x00\x80?\x00\x00\x80?\x00\x00\x80?\x00\x00\x80?\x00\x00\x80?\x00\x00\x80?\x00\x00\x80?\x00\x00\x80?\x00\x00\x80?\x00\x00\x80?\x00\x00\x80?\x00\x00\x80?\x00\x00\x80?\x00\x00\x80?\x00\x00\x80?\x00\x00\x80?\x00\x00\x80?\x00\x00\x80?'
p4620
S'\x00\x00\x00\x00\x00\x00\x00\x00\x00\x00\x00\x00\x00\x00\x00\x00\x00\x00'
p4621
Ntp4622
bsg3223
g3207
(g3208
g3209
g3210
g3211
tp4623
Rp4624
(I1
(I18
I1
tp4625
g3217
I00
S'\x00\x00\x00\x00\x00\x00\x80?\x00\x00\x00@\x00\x00@@\x00\x00\x80@\x00\x00\xa0@\x00\x00\xc0@\x00\x00\xe0@\x00\x00\x00A\x00\x00\x10A\x00\x00 A\x00\x000A\x00\x00@A\x00\x00PA\x00\x00`A\x00\x00pA\x00\x00\x80A\x00\x00\x88A'
p4626
S'\x00\x00\x00\x00\x00\x00\x00\x00\x00\x00\x00\x00\x00\x00\x00\x00\x00\x00'
p4627
Ntp4628
bstp4629
Rp4630
(dp4631
g3233
(dp4632
g3206
I01
sg3223
I01
ssg3235
g4613
sg3236
(lp4633
g3206
ag3223
asg3238
(lp4634
I18
aI1
asbsg3240
g3312
sg3242
g3243
(g3209
(I0
tp4635
g3211
tp4636
Rp4637
(I1
(I18
I1
tp4638
g59
I00
S'\x00\x00\x00\x00\x01\x00\x00\x00\x02\x00\x00\x00\x03\x00\x00\x00\x04\x00\x00\x00\x05\x00\x00\x00\x06\x00\x00\x00\x07\x00\x00\x00\x08\x00\x00\x00\t\x00\x00\x00\n\x00\x00\x00\x0b\x00\x00\x00\x0c\x00\x00\x00\r\x00\x00\x00\x0e\x00\x00\x00\x0f\x00\x00\x00\x10\x00\x00\x00\x11\x00\x00\x00'
p4639
tp4640
bsg3250
I01
sg3251
I1
sg3252
I-1
sg3253
(lp4641
g3351
((lp4642
(lp4643
g2796
ag2799
aa(lp4644
g2778
ag2779
aa(lp4645
g2770
ag2771
aa(lp4646
g2790
ag2793
aa(lp4647
g2787
ag811
aa(lp4648
g2780
ag2781
aatp4649
Rp4650
ag3351
((lp4651
(lp4652
g2796
ag2821
aa(lp4653
g2778
ag2779
aa(lp4654
g2770
ag2771
aa(lp4655
g2790
ag2816
aa(lp4656
g2787
ag1123
aa(lp4657
g2780
ag2781
aatp4658
Rp4659
ag3351
((lp4660
(lp4661
g2796
ag2843
aa(lp4662
g2778
ag2779
aa(lp4663
g2770
ag2771
aa(lp4664
g2790
ag2838
aa(lp4665
g2787
ag1213
aa(lp4666
g2780
ag2781
aatp4667
Rp4668
ag3351
((lp4669
(lp4670
g2796
ag2865
aa(lp4671
g2778
ag2779
aa(lp4672
g2770
ag2771
aa(lp4673
g2790
ag2860
aa(lp4674
g2787
ag105
aa(lp4675
g2780
ag2781
aatp4676
Rp4677
ag3351
((lp4678
(lp4679
g2796
ag2887
aa(lp4680
g2778
ag2779
aa(lp4681
g2770
ag2771
aa(lp4682
g2790
ag2882
aa(lp4683
g2787
ag1213
aa(lp4684
g2780
ag2781
aatp4685
Rp4686
ag3351
((lp4687
(lp4688
g2796
ag2910
aa(lp4689
g2778
ag2779
aa(lp4690
g2770
ag2771
aa(lp4691
g2790
ag2905
aa(lp4692
g2787
ag1100
aa(lp4693
g2780
ag2898
aatp4694
Rp4695
ag3351
((lp4696
(lp4697
g2796
ag2932
aa(lp4698
g2778
ag2779
aa(lp4699
g2770
ag2771
aa(lp4700
g2790
ag2927
aa(lp4701
g2787
ag380
aa(lp4702
g2780
ag2781
aatp4703
Rp4704
ag3351
((lp4705
(lp4706
g2796
ag2954
aa(lp4707
g2778
ag2779
aa(lp4708
g2770
ag2771
aa(lp4709
g2790
ag2949
aa(lp4710
g2787
ag1370
aa(lp4711
g2780
ag2781
aatp4712
Rp4713
ag3351
((lp4714
(lp4715
g2796
ag2976
aa(lp4716
g2778
ag2779
aa(lp4717
g2770
ag2771
aa(lp4718
g2790
ag2971
aa(lp4719
g2787
ag403
aa(lp4720
g2780
ag2781
aatp4721
Rp4722
ag3351
((lp4723
(lp4724
g2796
ag2998
aa(lp4725
g2778
ag2779
aa(lp4726
g2770
ag2771
aa(lp4727
g2790
ag2993
aa(lp4728
g2787
ag74
aa(lp4729
g2780
ag2781
aatp4730
Rp4731
ag3351
((lp4732
(lp4733
g2796
ag3021
aa(lp4734
g2778
ag2779
aa(lp4735
g2770
ag2771
aa(lp4736
g2790
ag3016
aa(lp4737
g2787
ag357
aa(lp4738
g2780
ag3009
aatp4739
Rp4740
ag3351
((lp4741
(lp4742
g2796
ag3043
aa(lp4743
g2778
ag2779
aa(lp4744
g2770
ag2771
aa(lp4745
g2790
ag3038
aa(lp4746
g2787
ag1213
aa(lp4747
g2780
ag2781
aatp4748
Rp4749
ag3351
((lp4750
(lp4751
g2796
ag3065
aa(lp4752
g2778
ag2779
aa(lp4753
g2770
ag2771
aa(lp4754
g2790
ag3060
aa(lp4755
g2787
ag74
aa(lp4756
g2780
ag2781
aatp4757
Rp4758
ag3351
((lp4759
(lp4760
g2796
ag3087
aa(lp4761
g2778
ag2779
aa(lp4762
g2770
ag2771
aa(lp4763
g2790
ag3082
aa(lp4764
g2787
ag1302
aa(lp4765
g2780
ag2781
aatp4766
Rp4767
ag3351
((lp4768
(lp4769
g2796
ag3109
aa(lp4770
g2778
ag2779
aa(lp4771
g2770
ag2771
aa(lp4772
g2790
ag3104
aa(lp4773
g2787
ag697
aa(lp4774
g2780
ag2781
aatp4775
Rp4776
ag3351
((lp4777
(lp4778
g2796
ag3131
aa(lp4779
g2778
ag2779
aa(lp4780
g2770
ag2771
aa(lp4781
g2790
ag3126
aa(lp4782
g2787
ag538
aa(lp4783
g2780
ag2781
aatp4784
Rp4785
ag3351
((lp4786
(lp4787
g2796
ag3153
aa(lp4788
g2778
ag2779
aa(lp4789
g2770
ag2771
aa(lp4790
g2790
ag3148
aa(lp4791
g2787
ag151
aa(lp4792
g2780
ag2781
aatp4793
Rp4794
ag3351
((lp4795
(lp4796
g2796
ag3175
aa(lp4797
g2778
ag2779
aa(lp4798
g2770
ag2771
aa(lp4799
g2790
ag3170
aa(lp4800
g2787
ag875
aa(lp4801
g2780
ag2781
aatp4802
Rp4803
asg3255
Nsg3256
g3161
sg3257
I18
sg3258
I0
sg3259
I18
sbasS'savePickle'
p4804
I00
sb.