ccopy_reg
_reconstructor
p0
(cpsychopy.data.experiment
ExperimentHandler
p1
c__builtin__
object
p2
Ntp3
Rp4
(dp5
S'originPath'
p6
NsS'dataFileName'
p7
VC:\u005cUsers\u005center\u005cOneDrive - University of Toronto\u005cLabs\u005cInzlicht Lab\u005coutside_project\u005cexperiment\u005cpsychoPy_scripts\u005crsvp\u005cdata/John_rsvp_1010_r3
p8
sS'runtimeInfo'
p9
NsS'name'
p10
Vrsvp
p11
sS'dataNames'
p12
(lp13
S'usr_input_t1.keys'
p14
aS'usr_input_t1.rt'
p15
aS'usr_input_t2.keys'
p16
aS'usr_input_t2.rt'
p17
asS'autoLog'
p18
I01
sS'extraInfo'
p19
(dp20
S'date'
p21
V2018_Oct_17_1559
p22
sVparticipant
p23
g0
(cfuture.types.newstr
newstr
p24
c__builtin__
unicode
p25
V1010
p26
tp27
Rp28
sS'expName'
p29
g11
sVrun
p30
g0
(g24
g25
Vr3
p31
tp32
Rp33
sS'frameRate'
p34
cnumpy.core.multiarray
scalar
p35
(cnumpy
dtype
p36
(S'f8'
p37
I0
I1
tp38
Rp39
(I3
S'<'
p40
NNNI-1
I-1
I0
tp41
bS'v\x06N\xa4\xb9\xdbM@'
p42
tp43
Rp44
ssS'loopsUnfinished'
p45
(lp46
sS'saveWideText'
p47
I00
sS'thisEntry'
p48
(dp49
sS'version'
p50
S''
p51
sS'_paramNamesSoFar'
p52
(lp53
S'block'
p54
aS'sep_dur'
p55
aS'Tx'
p56
aS'trial'
p57
aS'stimulus'
p58
aS'cond'
p59
asS'entries'
p60
(lp61
(dp62
S'block.thisTrialN'
p63
I0
sS'stim.thisTrialN'
p64
I0
sS'block.thisRepN'
p65
I0
sg56
Vt1
p66
sS'stim.thisIndex'
p67
g35
(g36
(S'i4'
p68
I0
I1
tp69
Rp70
(I3
S'<'
p71
NNNI-1
I-1
I0
tp72
bS'\x00\x00\x00\x00'
p73
tp74
Rp75
sg34
g44
sS'block.thisN'
p76
I0
sS'stim.thisN'
p77
I0
sg55
Vshort
p78
sg59
Vdistractor
p79
sg21
g22
sg30
g33
sS'trials.thisIndex'
p80
g35
(g70
S'\x00\x00\x00\x00'
p81
tp82
Rp83
sS'stim.thisRepN'
p84
I0
sg23
g28
sg58
VZ
p85
sS'trials.thisRepN'
p86
I0
sS'trials.thisN'
p87
I0
sg57
g35
(g36
(S'i8'
p88
I0
I1
tp89
Rp90
(I3
S'<'
p91
NNNI-1
I-1
I0
tp92
bS'\x01\x00\x00\x00\x00\x00\x00\x00'
p93
tp94
Rp95
sg29
g11
sS'trials.thisTrialN'
p96
I0
sS'block.thisIndex'
p97
g35
(g70
S'\x00\x00\x00\x00'
p98
tp99
Rp100
sg54
g35
(g90
S'\x01\x00\x00\x00\x00\x00\x00\x00'
p101
tp102
Rp103
sa(dp104
S'block.thisTrialN'
p105
I0
sS'stim.thisTrialN'
p106
I1
sS'block.thisRepN'
p107
I0
sg56
g66
sS'stim.thisIndex'
p108
g35
(g70
S'\x01\x00\x00\x00'
p109
tp110
Rp111
sg34
g44
sS'block.thisN'
p112
I0
sS'stim.thisN'
p113
I1
sg55
g78
sg59
Vtarget
p114
sg21
g22
sg30
g33
sS'trials.thisIndex'
p115
g83
sS'stim.thisRepN'
p116
I0
sg23
g28
sg58
V1
p117
sS'trials.thisRepN'
p118
I0
sS'trials.thisN'
p119
I0
sg57
g35
(g90
S'\x02\x00\x00\x00\x00\x00\x00\x00'
p120
tp121
Rp122
sg29
g11
sS'trials.thisTrialN'
p123
I0
sS'block.thisIndex'
p124
g100
sg54
g35
(g90
S'\x01\x00\x00\x00\x00\x00\x00\x00'
p125
tp126
Rp127
sa(dp128
S'block.thisTrialN'
p129
I0
sS'stim.thisTrialN'
p130
I2
sS'block.thisRepN'
p131
I0
sg56
g66
sS'stim.thisIndex'
p132
g35
(g70
S'\x02\x00\x00\x00'
p133
tp134
Rp135
sg34
g44
sS'block.thisN'
p136
I0
sS'stim.thisN'
p137
I2
sg55
g78
sg59
g79
sg21
g22
sg30
g33
sS'trials.thisIndex'
p138
g83
sS'stim.thisRepN'
p139
I0
sg23
g28
sg58
VT
p140
sS'trials.thisRepN'
p141
I0
sS'trials.thisN'
p142
I0
sg57
g35
(g90
S'\x03\x00\x00\x00\x00\x00\x00\x00'
p143
tp144
Rp145
sg29
g11
sS'trials.thisTrialN'
p146
I0
sS'block.thisIndex'
p147
g100
sg54
g35
(g90
S'\x01\x00\x00\x00\x00\x00\x00\x00'
p148
tp149
Rp150
sa(dp151
S'block.thisTrialN'
p152
I0
sS'stim.thisTrialN'
p153
I3
sS'block.thisRepN'
p154
I0
sg56
g66
sS'stim.thisIndex'
p155
g35
(g70
S'\x03\x00\x00\x00'
p156
tp157
Rp158
sg34
g44
sS'block.thisN'
p159
I0
sS'stim.thisN'
p160
I3
sg55
g78
sg59
g79
sg21
g22
sg30
g33
sS'trials.thisIndex'
p161
g83
sS'stim.thisRepN'
p162
I0
sg23
g28
sg58
VI
p163
sS'trials.thisRepN'
p164
I0
sS'trials.thisN'
p165
I0
sg57
g35
(g90
S'\x04\x00\x00\x00\x00\x00\x00\x00'
p166
tp167
Rp168
sg29
g11
sS'trials.thisTrialN'
p169
I0
sS'block.thisIndex'
p170
g100
sg54
g35
(g90
S'\x01\x00\x00\x00\x00\x00\x00\x00'
p171
tp172
Rp173
sa(dp174
S'block.thisTrialN'
p175
I0
sS'stim.thisTrialN'
p176
I4
sS'block.thisRepN'
p177
I0
sg56
g66
sS'stim.thisIndex'
p178
g35
(g70
S'\x04\x00\x00\x00'
p179
tp180
Rp181
sg34
g44
sS'block.thisN'
p182
I0
sS'stim.thisN'
p183
I4
sg55
g78
sg59
g79
sg21
g22
sg30
g33
sS'trials.thisIndex'
p184
g83
sS'stim.thisRepN'
p185
I0
sg23
g28
sg58
VO
p186
sS'trials.thisRepN'
p187
I0
sS'trials.thisN'
p188
I0
sg57
g35
(g90
S'\x05\x00\x00\x00\x00\x00\x00\x00'
p189
tp190
Rp191
sg29
g11
sS'trials.thisTrialN'
p192
I0
sS'block.thisIndex'
p193
g100
sg54
g35
(g90
S'\x01\x00\x00\x00\x00\x00\x00\x00'
p194
tp195
Rp196
sa(dp197
S'block.thisTrialN'
p198
I0
sS'stim.thisTrialN'
p199
I5
sS'block.thisRepN'
p200
I0
sg56
g66
sS'stim.thisIndex'
p201
g35
(g70
S'\x05\x00\x00\x00'
p202
tp203
Rp204
sg34
g44
sS'block.thisN'
p205
I0
sS'stim.thisN'
p206
I5
sg55
g78
sg59
g79
sg21
g22
sg30
g33
sS'trials.thisIndex'
p207
g83
sS'stim.thisRepN'
p208
I0
sg23
g28
sg58
VV
p209
sS'trials.thisRepN'
p210
I0
sS'trials.thisN'
p211
I0
sg57
g35
(g90
S'\x06\x00\x00\x00\x00\x00\x00\x00'
p212
tp213
Rp214
sg29
g11
sS'trials.thisTrialN'
p215
I0
sS'block.thisIndex'
p216
g100
sg54
g35
(g90
S'\x01\x00\x00\x00\x00\x00\x00\x00'
p217
tp218
Rp219
sa(dp220
S'block.thisTrialN'
p221
I0
sS'stim.thisTrialN'
p222
I6
sS'block.thisRepN'
p223
I0
sg56
g66
sS'stim.thisIndex'
p224
g35
(g70
S'\x06\x00\x00\x00'
p225
tp226
Rp227
sg34
g44
sS'block.thisN'
p228
I0
sS'stim.thisN'
p229
I6
sg55
g78
sg59
Vmask
p230
sg21
g22
sg30
g33
sS'trials.thisIndex'
p231
g83
sS'stim.thisRepN'
p232
I0
sg23
g28
sg58
V 
p233
sS'trials.thisRepN'
p234
I0
sS'trials.thisN'
p235
I0
sg57
g35
(g90
S'\x07\x00\x00\x00\x00\x00\x00\x00'
p236
tp237
Rp238
sg29
g11
sS'trials.thisTrialN'
p239
I0
sS'block.thisIndex'
p240
g100
sg54
g35
(g90
S'\x01\x00\x00\x00\x00\x00\x00\x00'
p241
tp242
Rp243
sa(dp244
S'block.thisTrialN'
p245
I0
sS'stim.thisTrialN'
p246
I7
sS'block.thisRepN'
p247
I0
sg56
g66
sS'stim.thisIndex'
p248
g35
(g70
S'\x07\x00\x00\x00'
p249
tp250
Rp251
sg34
g44
sS'block.thisN'
p252
I0
sS'stim.thisN'
p253
I7
sg55
g78
sg59
g79
sg21
g22
sg30
g33
sS'trials.thisIndex'
p254
g83
sS'stim.thisRepN'
p255
I0
sg23
g28
sg58
VL
p256
sS'trials.thisRepN'
p257
I0
sS'trials.thisN'
p258
I0
sg57
g35
(g90
S'\x08\x00\x00\x00\x00\x00\x00\x00'
p259
tp260
Rp261
sg29
g11
sS'trials.thisTrialN'
p262
I0
sS'block.thisIndex'
p263
g100
sg54
g35
(g90
S'\x01\x00\x00\x00\x00\x00\x00\x00'
p264
tp265
Rp266
sa(dp267
S'block.thisTrialN'
p268
I0
sS'stim.thisTrialN'
p269
I8
sS'block.thisRepN'
p270
I0
sg56
g66
sS'stim.thisIndex'
p271
g35
(g70
S'\x08\x00\x00\x00'
p272
tp273
Rp274
sg34
g44
sS'block.thisN'
p275
I0
sS'stim.thisN'
p276
I8
sg55
g78
sg59
g79
sg21
g22
sg30
g33
sS'trials.thisIndex'
p277
g83
sS'stim.thisRepN'
p278
I0
sg23
g28
sg58
VM
p279
sS'trials.thisRepN'
p280
I0
sS'trials.thisN'
p281
I0
sg57
g35
(g90
S'\t\x00\x00\x00\x00\x00\x00\x00'
p282
tp283
Rp284
sg29
g11
sS'trials.thisTrialN'
p285
I0
sS'block.thisIndex'
p286
g100
sg54
g35
(g90
S'\x01\x00\x00\x00\x00\x00\x00\x00'
p287
tp288
Rp289
sa(dp290
S'block.thisTrialN'
p291
I0
sS'stim.thisTrialN'
p292
I9
sS'block.thisRepN'
p293
I0
sg56
g66
sS'stim.thisIndex'
p294
g35
(g70
S'\t\x00\x00\x00'
p295
tp296
Rp297
sg34
g44
sS'block.thisN'
p298
I0
sS'stim.thisN'
p299
I9
sg55
g78
sg59
g79
sg21
g22
sg30
g33
sS'trials.thisIndex'
p300
g83
sS'stim.thisRepN'
p301
I0
sg23
g28
sg58
VK
p302
sS'trials.thisRepN'
p303
I0
sS'trials.thisN'
p304
I0
sg57
g35
(g90
S'\n\x00\x00\x00\x00\x00\x00\x00'
p305
tp306
Rp307
sg29
g11
sS'trials.thisTrialN'
p308
I0
sS'block.thisIndex'
p309
g100
sg54
g35
(g90
S'\x01\x00\x00\x00\x00\x00\x00\x00'
p310
tp311
Rp312
sa(dp313
S'block.thisTrialN'
p314
I0
sS'stim.thisTrialN'
p315
I10
sS'block.thisRepN'
p316
I0
sg56
g66
sS'stim.thisIndex'
p317
g35
(g70
S'\n\x00\x00\x00'
p318
tp319
Rp320
sg34
g44
sS'block.thisN'
p321
I0
sS'stim.thisN'
p322
I10
sg55
g78
sg59
g79
sg21
g22
sg30
g33
sS'trials.thisIndex'
p323
g83
sS'stim.thisRepN'
p324
I0
sg23
g28
sg58
VA
p325
sS'trials.thisRepN'
p326
I0
sS'trials.thisN'
p327
I0
sg57
g35
(g90
S'\x0b\x00\x00\x00\x00\x00\x00\x00'
p328
tp329
Rp330
sg29
g11
sS'trials.thisTrialN'
p331
I0
sS'block.thisIndex'
p332
g100
sg54
g35
(g90
S'\x01\x00\x00\x00\x00\x00\x00\x00'
p333
tp334
Rp335
sa(dp336
S'block.thisTrialN'
p337
I0
sS'stim.thisTrialN'
p338
I11
sS'block.thisRepN'
p339
I0
sg56
g66
sS'stim.thisIndex'
p340
g35
(g70
S'\x0b\x00\x00\x00'
p341
tp342
Rp343
sg34
g44
sS'block.thisN'
p344
I0
sS'stim.thisN'
p345
I11
sg55
g78
sg59
g79
sg21
g22
sg30
g33
sS'trials.thisIndex'
p346
g83
sS'stim.thisRepN'
p347
I0
sg23
g28
sg58
VJ
p348
sS'trials.thisRepN'
p349
I0
sS'trials.thisN'
p350
I0
sg57
g35
(g90
S'\x0c\x00\x00\x00\x00\x00\x00\x00'
p351
tp352
Rp353
sg29
g11
sS'trials.thisTrialN'
p354
I0
sS'block.thisIndex'
p355
g100
sg54
g35
(g90
S'\x01\x00\x00\x00\x00\x00\x00\x00'
p356
tp357
Rp358
sa(dp359
S'block.thisTrialN'
p360
I0
sS'stim.thisTrialN'
p361
I12
sS'block.thisRepN'
p362
I0
sg56
g66
sS'stim.thisIndex'
p363
g35
(g70
S'\x0c\x00\x00\x00'
p364
tp365
Rp366
sg34
g44
sS'block.thisN'
p367
I0
sS'stim.thisN'
p368
I12
sg55
g78
sg59
g79
sg21
g22
sg30
g33
sS'trials.thisIndex'
p369
g83
sS'stim.thisRepN'
p370
I0
sg23
g28
sg58
VY
p371
sS'trials.thisRepN'
p372
I0
sS'trials.thisN'
p373
I0
sg57
g35
(g90
S'\r\x00\x00\x00\x00\x00\x00\x00'
p374
tp375
Rp376
sg29
g11
sS'trials.thisTrialN'
p377
I0
sS'block.thisIndex'
p378
g100
sg54
g35
(g90
S'\x01\x00\x00\x00\x00\x00\x00\x00'
p379
tp380
Rp381
sa(dp382
S'block.thisTrialN'
p383
I0
sS'stim.thisTrialN'
p384
I13
sS'block.thisRepN'
p385
I0
sg56
g66
sS'stim.thisIndex'
p386
g35
(g70
S'\r\x00\x00\x00'
p387
tp388
Rp389
sg34
g44
sS'block.thisN'
p390
I0
sS'stim.thisN'
p391
I13
sg55
g78
sg59
g79
sg21
g22
sg30
g33
sS'trials.thisIndex'
p392
g83
sS'stim.thisRepN'
p393
I0
sg23
g28
sg58
g256
sS'trials.thisRepN'
p394
I0
sS'trials.thisN'
p395
I0
sg57
g35
(g90
S'\x0e\x00\x00\x00\x00\x00\x00\x00'
p396
tp397
Rp398
sg29
g11
sS'trials.thisTrialN'
p399
I0
sS'block.thisIndex'
p400
g100
sg54
g35
(g90
S'\x01\x00\x00\x00\x00\x00\x00\x00'
p401
tp402
Rp403
sa(dp404
S'block.thisTrialN'
p405
I0
sS'stim.thisTrialN'
p406
I14
sS'block.thisRepN'
p407
I0
sg56
g66
sS'stim.thisIndex'
p408
g35
(g70
S'\x0e\x00\x00\x00'
p409
tp410
Rp411
sg34
g44
sS'block.thisN'
p412
I0
sS'stim.thisN'
p413
I14
sg55
g78
sg59
g79
sg21
g22
sg30
g33
sS'trials.thisIndex'
p414
g83
sS'stim.thisRepN'
p415
I0
sg23
g28
sg58
VD
p416
sS'trials.thisRepN'
p417
I0
sS'trials.thisN'
p418
I0
sg57
g35
(g90
S'\x0f\x00\x00\x00\x00\x00\x00\x00'
p419
tp420
Rp421
sg29
g11
sS'trials.thisTrialN'
p422
I0
sS'block.thisIndex'
p423
g100
sg54
g35
(g90
S'\x01\x00\x00\x00\x00\x00\x00\x00'
p424
tp425
Rp426
sa(dp427
S'block.thisTrialN'
p428
I0
sS'stim.thisTrialN'
p429
I15
sS'block.thisRepN'
p430
I0
sg56
g66
sS'stim.thisIndex'
p431
g35
(g70
S'\x0f\x00\x00\x00'
p432
tp433
Rp434
sg34
g44
sS'block.thisN'
p435
I0
sS'stim.thisN'
p436
I15
sg55
g78
sg59
g79
sg21
g22
sg30
g33
sS'trials.thisIndex'
p437
g83
sS'stim.thisRepN'
p438
I0
sg23
g28
sg58
VE
p439
sS'trials.thisRepN'
p440
I0
sS'trials.thisN'
p441
I0
sg57
g35
(g90
S'\x10\x00\x00\x00\x00\x00\x00\x00'
p442
tp443
Rp444
sg29
g11
sS'trials.thisTrialN'
p445
I0
sS'block.thisIndex'
p446
g100
sg54
g35
(g90
S'\x01\x00\x00\x00\x00\x00\x00\x00'
p447
tp448
Rp449
sa(dp450
S'block.thisTrialN'
p451
I0
sS'stim.thisTrialN'
p452
I16
sS'block.thisRepN'
p453
I0
sg56
g66
sS'stim.thisIndex'
p454
g35
(g70
S'\x10\x00\x00\x00'
p455
tp456
Rp457
sg34
g44
sS'block.thisN'
p458
I0
sS'stim.thisN'
p459
I16
sg55
g78
sg59
g79
sg21
g22
sg30
g33
sS'trials.thisIndex'
p460
g83
sS'stim.thisRepN'
p461
I0
sg23
g28
sg58
VF
p462
sS'trials.thisRepN'
p463
I0
sS'trials.thisN'
p464
I0
sg57
g35
(g90
S'\x11\x00\x00\x00\x00\x00\x00\x00'
p465
tp466
Rp467
sg29
g11
sS'trials.thisTrialN'
p468
I0
sS'block.thisIndex'
p469
g100
sg54
g35
(g90
S'\x01\x00\x00\x00\x00\x00\x00\x00'
p470
tp471
Rp472
sa(dp473
S'block.thisTrialN'
p474
I0
sS'stim.thisTrialN'
p475
I17
sS'block.thisRepN'
p476
I0
sg56
g66
sS'stim.thisIndex'
p477
g35
(g70
S'\x11\x00\x00\x00'
p478
tp479
Rp480
sg34
g44
sS'block.thisN'
p481
I0
sS'stim.thisN'
p482
I17
sg55
g78
sg59
g79
sg21
g22
sg30
g33
sS'trials.thisIndex'
p483
g83
sS'stim.thisRepN'
p484
I0
sg23
g28
sg58
g325
sS'trials.thisRepN'
p485
I0
sS'trials.thisN'
p486
I0
sg57
g35
(g90
S'\x12\x00\x00\x00\x00\x00\x00\x00'
p487
tp488
Rp489
sg29
g11
sS'trials.thisTrialN'
p490
I0
sS'block.thisIndex'
p491
g100
sg54
g35
(g90
S'\x01\x00\x00\x00\x00\x00\x00\x00'
p492
tp493
Rp494
sa(dp495
S'block.thisTrialN'
p496
I0
sS'block.thisRepN'
p497
I0
sg16
S'7'
p498
sS'trials.thisRepN'
p499
I0
sg15
F1.1006168248131871
sS'block.thisN'
p500
I0
sg34
g44
sS'trials.thisN'
p501
I0
sg14
g498
sg29
g11
sS'trials.thisTrialN'
p502
I0
sg30
g33
sS'trials.thisIndex'
p503
g83
sg21
g22
sg23
g28
sS'block.thisIndex'
p504
g100
sg17
F0.11524374812142923
sa(dp505
S'block.thisTrialN'
p506
I0
sS'stim.thisTrialN'
p507
I0
sS'block.thisRepN'
p508
I0
sS'Tx'
p509
Vt2
p510
sS'stim.thisIndex'
p511
g35
(g70
S'\x00\x00\x00\x00'
p512
tp513
Rp514
sg34
g44
sS'block.thisN'
p515
I0
sS'stim.thisN'
p516
I0
sS'sep_dur'
p517
Vlong
p518
sS'cond'
p519
Vdistractor
p520
sg21
g22
sg30
g33
sS'trials.thisIndex'
p521
g35
(g70
S'\x00\x00\x00\x00'
p522
tp523
Rp524
sS'stim.thisRepN'
p525
I0
sg23
g28
sS'stimulus'
p526
g140
sS'trials.thisRepN'
p527
I1
sS'trials.thisN'
p528
I1
sS'trial'
p529
g35
(g90
S'\x01\x00\x00\x00\x00\x00\x00\x00'
p530
tp531
Rp532
sg29
g11
sS'trials.thisTrialN'
p533
I0
sS'block.thisIndex'
p534
g100
sS'block'
p535
g35
(g90
S'\x02\x00\x00\x00\x00\x00\x00\x00'
p536
tp537
Rp538
sa(dp539
S'block.thisTrialN'
p540
I0
sS'stim.thisTrialN'
p541
I1
sS'block.thisRepN'
p542
I0
sg509
g510
sS'stim.thisIndex'
p543
g35
(g70
S'\x01\x00\x00\x00'
p544
tp545
Rp546
sg34
g44
sS'block.thisN'
p547
I0
sS'stim.thisN'
p548
I1
sg517
g518
sg519
g520
sg21
g22
sg30
g33
sS'trials.thisIndex'
p549
g524
sS'stim.thisRepN'
p550
I0
sg23
g28
sg526
g439
sS'trials.thisRepN'
p551
I1
sS'trials.thisN'
p552
I1
sg529
g35
(g90
S'\x02\x00\x00\x00\x00\x00\x00\x00'
p553
tp554
Rp555
sg29
g11
sS'trials.thisTrialN'
p556
I0
sS'block.thisIndex'
p557
g100
sg535
g35
(g90
S'\x02\x00\x00\x00\x00\x00\x00\x00'
p558
tp559
Rp560
sa(dp561
S'block.thisTrialN'
p562
I0
sS'stim.thisTrialN'
p563
I2
sS'block.thisRepN'
p564
I0
sg509
g510
sS'stim.thisIndex'
p565
g35
(g70
S'\x02\x00\x00\x00'
p566
tp567
Rp568
sg34
g44
sS'block.thisN'
p569
I0
sS'stim.thisN'
p570
I2
sg517
g518
sg519
g520
sg21
g22
sg30
g33
sS'trials.thisIndex'
p571
g524
sS'stim.thisRepN'
p572
I0
sg23
g28
sg526
VG
p573
sS'trials.thisRepN'
p574
I1
sS'trials.thisN'
p575
I1
sg529
g35
(g90
S'\x03\x00\x00\x00\x00\x00\x00\x00'
p576
tp577
Rp578
sg29
g11
sS'trials.thisTrialN'
p579
I0
sS'block.thisIndex'
p580
g100
sg535
g35
(g90
S'\x02\x00\x00\x00\x00\x00\x00\x00'
p581
tp582
Rp583
sa(dp584
S'block.thisTrialN'
p585
I0
sS'stim.thisTrialN'
p586
I3
sS'block.thisRepN'
p587
I0
sg509
g510
sS'stim.thisIndex'
p588
g35
(g70
S'\x03\x00\x00\x00'
p589
tp590
Rp591
sg34
g44
sS'block.thisN'
p592
I0
sS'stim.thisN'
p593
I3
sg517
g518
sg519
Vmask
p594
sg21
g22
sg30
g33
sS'trials.thisIndex'
p595
g524
sS'stim.thisRepN'
p596
I0
sg23
g28
sg526
g233
sS'trials.thisRepN'
p597
I1
sS'trials.thisN'
p598
I1
sg529
g35
(g90
S'\x04\x00\x00\x00\x00\x00\x00\x00'
p599
tp600
Rp601
sg29
g11
sS'trials.thisTrialN'
p602
I0
sS'block.thisIndex'
p603
g100
sg535
g35
(g90
S'\x02\x00\x00\x00\x00\x00\x00\x00'
p604
tp605
Rp606
sa(dp607
S'block.thisTrialN'
p608
I0
sS'stim.thisTrialN'
p609
I4
sS'block.thisRepN'
p610
I0
sg509
g510
sS'stim.thisIndex'
p611
g35
(g70
S'\x04\x00\x00\x00'
p612
tp613
Rp614
sg34
g44
sS'block.thisN'
p615
I0
sS'stim.thisN'
p616
I4
sg517
g518
sg519
Vtarget
p617
sg21
g22
sg30
g33
sS'trials.thisIndex'
p618
g524
sS'stim.thisRepN'
p619
I0
sg23
g28
sg526
V8
p620
sS'trials.thisRepN'
p621
I1
sS'trials.thisN'
p622
I1
sg529
g35
(g90
S'\x05\x00\x00\x00\x00\x00\x00\x00'
p623
tp624
Rp625
sg29
g11
sS'trials.thisTrialN'
p626
I0
sS'block.thisIndex'
p627
g100
sg535
g35
(g90
S'\x02\x00\x00\x00\x00\x00\x00\x00'
p628
tp629
Rp630
sa(dp631
S'block.thisTrialN'
p632
I0
sS'stim.thisTrialN'
p633
I5
sS'block.thisRepN'
p634
I0
sg509
g510
sS'stim.thisIndex'
p635
g35
(g70
S'\x05\x00\x00\x00'
p636
tp637
Rp638
sg34
g44
sS'block.thisN'
p639
I0
sS'stim.thisN'
p640
I5
sg517
g518
sg519
g520
sg21
g22
sg30
g33
sS'trials.thisIndex'
p641
g524
sS'stim.thisRepN'
p642
I0
sg23
g28
sg526
VX
p643
sS'trials.thisRepN'
p644
I1
sS'trials.thisN'
p645
I1
sg529
g35
(g90
S'\x06\x00\x00\x00\x00\x00\x00\x00'
p646
tp647
Rp648
sg29
g11
sS'trials.thisTrialN'
p649
I0
sS'block.thisIndex'
p650
g100
sg535
g35
(g90
S'\x02\x00\x00\x00\x00\x00\x00\x00'
p651
tp652
Rp653
sa(dp654
S'block.thisTrialN'
p655
I0
sS'stim.thisTrialN'
p656
I6
sS'block.thisRepN'
p657
I0
sg509
g510
sS'stim.thisIndex'
p658
g35
(g70
S'\x06\x00\x00\x00'
p659
tp660
Rp661
sg34
g44
sS'block.thisN'
p662
I0
sS'stim.thisN'
p663
I6
sg517
g518
sg519
g520
sg21
g22
sg30
g33
sS'trials.thisIndex'
p664
g524
sS'stim.thisRepN'
p665
I0
sg23
g28
sg526
VB
p666
sS'trials.thisRepN'
p667
I1
sS'trials.thisN'
p668
I1
sg529
g35
(g90
S'\x07\x00\x00\x00\x00\x00\x00\x00'
p669
tp670
Rp671
sg29
g11
sS'trials.thisTrialN'
p672
I0
sS'block.thisIndex'
p673
g100
sg535
g35
(g90
S'\x02\x00\x00\x00\x00\x00\x00\x00'
p674
tp675
Rp676
sa(dp677
S'block.thisTrialN'
p678
I0
sS'stim.thisTrialN'
p679
I7
sS'block.thisRepN'
p680
I0
sg509
g510
sS'stim.thisIndex'
p681
g35
(g70
S'\x07\x00\x00\x00'
p682
tp683
Rp684
sg34
g44
sS'block.thisN'
p685
I0
sS'stim.thisN'
p686
I7
sg517
g518
sg519
g520
sg21
g22
sg30
g33
sS'trials.thisIndex'
p687
g524
sS'stim.thisRepN'
p688
I0
sg23
g28
sg526
VN
p689
sS'trials.thisRepN'
p690
I1
sS'trials.thisN'
p691
I1
sg529
g35
(g90
S'\x08\x00\x00\x00\x00\x00\x00\x00'
p692
tp693
Rp694
sg29
g11
sS'trials.thisTrialN'
p695
I0
sS'block.thisIndex'
p696
g100
sg535
g35
(g90
S'\x02\x00\x00\x00\x00\x00\x00\x00'
p697
tp698
Rp699
sa(dp700
S'block.thisTrialN'
p701
I0
sS'stim.thisTrialN'
p702
I8
sS'block.thisRepN'
p703
I0
sg509
g510
sS'stim.thisIndex'
p704
g35
(g70
S'\x08\x00\x00\x00'
p705
tp706
Rp707
sg34
g44
sS'block.thisN'
p708
I0
sS'stim.thisN'
p709
I8
sg517
g518
sg519
g520
sg21
g22
sg30
g33
sS'trials.thisIndex'
p710
g524
sS'stim.thisRepN'
p711
I0
sg23
g28
sg526
VQ
p712
sS'trials.thisRepN'
p713
I1
sS'trials.thisN'
p714
I1
sg529
g35
(g90
S'\t\x00\x00\x00\x00\x00\x00\x00'
p715
tp716
Rp717
sg29
g11
sS'trials.thisTrialN'
p718
I0
sS'block.thisIndex'
p719
g100
sg535
g35
(g90
S'\x02\x00\x00\x00\x00\x00\x00\x00'
p720
tp721
Rp722
sa(dp723
S'block.thisTrialN'
p724
I0
sS'stim.thisTrialN'
p725
I9
sS'block.thisRepN'
p726
I0
sg509
g510
sS'stim.thisIndex'
p727
g35
(g70
S'\t\x00\x00\x00'
p728
tp729
Rp730
sg34
g44
sS'block.thisN'
p731
I0
sS'stim.thisN'
p732
I9
sg517
g518
sg519
g520
sg21
g22
sg30
g33
sS'trials.thisIndex'
p733
g524
sS'stim.thisRepN'
p734
I0
sg23
g28
sg526
g573
sS'trials.thisRepN'
p735
I1
sS'trials.thisN'
p736
I1
sg529
g35
(g90
S'\n\x00\x00\x00\x00\x00\x00\x00'
p737
tp738
Rp739
sg29
g11
sS'trials.thisTrialN'
p740
I0
sS'block.thisIndex'
p741
g100
sg535
g35
(g90
S'\x02\x00\x00\x00\x00\x00\x00\x00'
p742
tp743
Rp744
sa(dp745
S'block.thisTrialN'
p746
I0
sS'stim.thisTrialN'
p747
I10
sS'block.thisRepN'
p748
I0
sg509
g510
sS'stim.thisIndex'
p749
g35
(g70
S'\n\x00\x00\x00'
p750
tp751
Rp752
sg34
g44
sS'block.thisN'
p753
I0
sS'stim.thisN'
p754
I10
sg517
g518
sg519
g520
sg21
g22
sg30
g33
sS'trials.thisIndex'
p755
g524
sS'stim.thisRepN'
p756
I0
sg23
g28
sg526
g666
sS'trials.thisRepN'
p757
I1
sS'trials.thisN'
p758
I1
sg529
g35
(g90
S'\x0b\x00\x00\x00\x00\x00\x00\x00'
p759
tp760
Rp761
sg29
g11
sS'trials.thisTrialN'
p762
I0
sS'block.thisIndex'
p763
g100
sg535
g35
(g90
S'\x02\x00\x00\x00\x00\x00\x00\x00'
p764
tp765
Rp766
sa(dp767
S'block.thisTrialN'
p768
I0
sS'stim.thisTrialN'
p769
I11
sS'block.thisRepN'
p770
I0
sg509
g510
sS'stim.thisIndex'
p771
g35
(g70
S'\x0b\x00\x00\x00'
p772
tp773
Rp774
sg34
g44
sS'block.thisN'
p775
I0
sS'stim.thisN'
p776
I11
sg517
g518
sg519
g520
sg21
g22
sg30
g33
sS'trials.thisIndex'
p777
g524
sS'stim.thisRepN'
p778
I0
sg23
g28
sg526
g186
sS'trials.thisRepN'
p779
I1
sS'trials.thisN'
p780
I1
sg529
g35
(g90
S'\x0c\x00\x00\x00\x00\x00\x00\x00'
p781
tp782
Rp783
sg29
g11
sS'trials.thisTrialN'
p784
I0
sS'block.thisIndex'
p785
g100
sg535
g35
(g90
S'\x02\x00\x00\x00\x00\x00\x00\x00'
p786
tp787
Rp788
sa(dp789
S'block.thisTrialN'
p790
I0
sS'stim.thisTrialN'
p791
I12
sS'block.thisRepN'
p792
I0
sg509
g510
sS'stim.thisIndex'
p793
g35
(g70
S'\x0c\x00\x00\x00'
p794
tp795
Rp796
sg34
g44
sS'block.thisN'
p797
I0
sS'stim.thisN'
p798
I12
sg517
g518
sg519
g520
sg21
g22
sg30
g33
sS'trials.thisIndex'
p799
g524
sS'stim.thisRepN'
p800
I0
sg23
g28
sg526
g140
sS'trials.thisRepN'
p801
I1
sS'trials.thisN'
p802
I1
sg529
g35
(g90
S'\r\x00\x00\x00\x00\x00\x00\x00'
p803
tp804
Rp805
sg29
g11
sS'trials.thisTrialN'
p806
I0
sS'block.thisIndex'
p807
g100
sg535
g35
(g90
S'\x02\x00\x00\x00\x00\x00\x00\x00'
p808
tp809
Rp810
sa(dp811
S'block.thisTrialN'
p812
I0
sS'stim.thisTrialN'
p813
I13
sS'block.thisRepN'
p814
I0
sg509
g510
sS'stim.thisIndex'
p815
g35
(g70
S'\r\x00\x00\x00'
p816
tp817
Rp818
sg34
g44
sS'block.thisN'
p819
I0
sS'stim.thisN'
p820
I13
sg517
g518
sg519
g617
sg21
g22
sg30
g33
sS'trials.thisIndex'
p821
g524
sS'stim.thisRepN'
p822
I0
sg23
g28
sg526
V7
p823
sS'trials.thisRepN'
p824
I1
sS'trials.thisN'
p825
I1
sg529
g35
(g90
S'\x0e\x00\x00\x00\x00\x00\x00\x00'
p826
tp827
Rp828
sg29
g11
sS'trials.thisTrialN'
p829
I0
sS'block.thisIndex'
p830
g100
sg535
g35
(g90
S'\x02\x00\x00\x00\x00\x00\x00\x00'
p831
tp832
Rp833
sa(dp834
S'block.thisTrialN'
p835
I0
sS'stim.thisTrialN'
p836
I14
sS'block.thisRepN'
p837
I0
sg509
g510
sS'stim.thisIndex'
p838
g35
(g70
S'\x0e\x00\x00\x00'
p839
tp840
Rp841
sg34
g44
sS'block.thisN'
p842
I0
sS'stim.thisN'
p843
I14
sg517
g518
sg519
g520
sg21
g22
sg30
g33
sS'trials.thisIndex'
p844
g524
sS'stim.thisRepN'
p845
I0
sg23
g28
sg526
VP
p846
sS'trials.thisRepN'
p847
I1
sS'trials.thisN'
p848
I1
sg529
g35
(g90
S'\x0f\x00\x00\x00\x00\x00\x00\x00'
p849
tp850
Rp851
sg29
g11
sS'trials.thisTrialN'
p852
I0
sS'block.thisIndex'
p853
g100
sg535
g35
(g90
S'\x02\x00\x00\x00\x00\x00\x00\x00'
p854
tp855
Rp856
sa(dp857
S'block.thisTrialN'
p858
I0
sS'stim.thisTrialN'
p859
I15
sS'block.thisRepN'
p860
I0
sg509
g510
sS'stim.thisIndex'
p861
g35
(g70
S'\x0f\x00\x00\x00'
p862
tp863
Rp864
sg34
g44
sS'block.thisN'
p865
I0
sS'stim.thisN'
p866
I15
sg517
g518
sg519
g520
sg21
g22
sg30
g33
sS'trials.thisIndex'
p867
g524
sS'stim.thisRepN'
p868
I0
sg23
g28
sg526
g666
sS'trials.thisRepN'
p869
I1
sS'trials.thisN'
p870
I1
sg529
g35
(g90
S'\x10\x00\x00\x00\x00\x00\x00\x00'
p871
tp872
Rp873
sg29
g11
sS'trials.thisTrialN'
p874
I0
sS'block.thisIndex'
p875
g100
sg535
g35
(g90
S'\x02\x00\x00\x00\x00\x00\x00\x00'
p876
tp877
Rp878
sa(dp879
S'block.thisTrialN'
p880
I0
sS'block.thisRepN'
p881
I0
sg16
S'5'
p882
sS'trials.thisRepN'
p883
I1
sg15
F0.6332801292301156
sS'block.thisN'
p884
I0
sg34
g44
sS'trials.thisN'
p885
I1
sg14
g882
sg29
g11
sS'trials.thisTrialN'
p886
I0
sg30
g33
sS'trials.thisIndex'
p887
g524
sg21
g22
sg23
g28
sS'block.thisIndex'
p888
g100
sg17
F0.18542175559559837
sa(dp889
S'block.thisTrialN'
p890
I0
sS'stim.thisTrialN'
p891
I0
sS'block.thisRepN'
p892
I0
sS'Tx'
p893
Vt1
p894
sS'stim.thisIndex'
p895
g35
(g70
S'\x00\x00\x00\x00'
p896
tp897
Rp898
sg34
g44
sS'block.thisN'
p899
I0
sS'stim.thisN'
p900
I0
sS'sep_dur'
p901
Vshort
p902
sS'cond'
p903
Vdistractor
p904
sg21
g22
sg30
g33
sS'trials.thisIndex'
p905
g35
(g70
S'\x00\x00\x00\x00'
p906
tp907
Rp908
sS'stim.thisRepN'
p909
I0
sg23
g28
sS'stimulus'
p910
VH
p911
sS'trials.thisRepN'
p912
I2
sS'trials.thisN'
p913
I2
sS'trial'
p914
g35
(g90
S'\x01\x00\x00\x00\x00\x00\x00\x00'
p915
tp916
Rp917
sg29
g11
sS'trials.thisTrialN'
p918
I0
sS'block.thisIndex'
p919
g100
sS'block'
p920
g35
(g90
S'\x03\x00\x00\x00\x00\x00\x00\x00'
p921
tp922
Rp923
sa(dp924
S'block.thisTrialN'
p925
I0
sS'stim.thisTrialN'
p926
I1
sS'block.thisRepN'
p927
I0
sg893
g894
sS'stim.thisIndex'
p928
g35
(g70
S'\x01\x00\x00\x00'
p929
tp930
Rp931
sg34
g44
sS'block.thisN'
p932
I0
sS'stim.thisN'
p933
I1
sg901
g902
sg903
g904
sg21
g22
sg30
g33
sS'trials.thisIndex'
p934
g908
sS'stim.thisRepN'
p935
I0
sg23
g28
sg910
g371
sS'trials.thisRepN'
p936
I2
sS'trials.thisN'
p937
I2
sg914
g35
(g90
S'\x02\x00\x00\x00\x00\x00\x00\x00'
p938
tp939
Rp940
sg29
g11
sS'trials.thisTrialN'
p941
I0
sS'block.thisIndex'
p942
g100
sg920
g35
(g90
S'\x03\x00\x00\x00\x00\x00\x00\x00'
p943
tp944
Rp945
sa(dp946
S'block.thisTrialN'
p947
I0
sS'stim.thisTrialN'
p948
I2
sS'block.thisRepN'
p949
I0
sg893
g894
sS'stim.thisIndex'
p950
g35
(g70
S'\x02\x00\x00\x00'
p951
tp952
Rp953
sg34
g44
sS'block.thisN'
p954
I0
sS'stim.thisN'
p955
I2
sg901
g902
sg903
g904
sg21
g22
sg30
g33
sS'trials.thisIndex'
p956
g908
sS'stim.thisRepN'
p957
I0
sg23
g28
sg910
VW
p958
sS'trials.thisRepN'
p959
I2
sS'trials.thisN'
p960
I2
sg914
g35
(g90
S'\x03\x00\x00\x00\x00\x00\x00\x00'
p961
tp962
Rp963
sg29
g11
sS'trials.thisTrialN'
p964
I0
sS'block.thisIndex'
p965
g100
sg920
g35
(g90
S'\x03\x00\x00\x00\x00\x00\x00\x00'
p966
tp967
Rp968
sa(dp969
S'block.thisTrialN'
p970
I0
sS'stim.thisTrialN'
p971
I3
sS'block.thisRepN'
p972
I0
sg893
g894
sS'stim.thisIndex'
p973
g35
(g70
S'\x03\x00\x00\x00'
p974
tp975
Rp976
sg34
g44
sS'block.thisN'
p977
I0
sS'stim.thisN'
p978
I3
sg901
g902
sg903
g904
sg21
g22
sg30
g33
sS'trials.thisIndex'
p979
g908
sS'stim.thisRepN'
p980
I0
sg23
g28
sg910
g209
sS'trials.thisRepN'
p981
I2
sS'trials.thisN'
p982
I2
sg914
g35
(g90
S'\x04\x00\x00\x00\x00\x00\x00\x00'
p983
tp984
Rp985
sg29
g11
sS'trials.thisTrialN'
p986
I0
sS'block.thisIndex'
p987
g100
sg920
g35
(g90
S'\x03\x00\x00\x00\x00\x00\x00\x00'
p988
tp989
Rp990
sa(dp991
S'block.thisTrialN'
p992
I0
sS'stim.thisTrialN'
p993
I4
sS'block.thisRepN'
p994
I0
sg893
g894
sS'stim.thisIndex'
p995
g35
(g70
S'\x04\x00\x00\x00'
p996
tp997
Rp998
sg34
g44
sS'block.thisN'
p999
I0
sS'stim.thisN'
p1000
I4
sg901
g902
sg903
g904
sg21
g22
sg30
g33
sS'trials.thisIndex'
p1001
g908
sS'stim.thisRepN'
p1002
I0
sg23
g28
sg910
g439
sS'trials.thisRepN'
p1003
I2
sS'trials.thisN'
p1004
I2
sg914
g35
(g90
S'\x05\x00\x00\x00\x00\x00\x00\x00'
p1005
tp1006
Rp1007
sg29
g11
sS'trials.thisTrialN'
p1008
I0
sS'block.thisIndex'
p1009
g100
sg920
g35
(g90
S'\x03\x00\x00\x00\x00\x00\x00\x00'
p1010
tp1011
Rp1012
sa(dp1013
S'block.thisTrialN'
p1014
I0
sS'stim.thisTrialN'
p1015
I5
sS'block.thisRepN'
p1016
I0
sg893
g894
sS'stim.thisIndex'
p1017
g35
(g70
S'\x05\x00\x00\x00'
p1018
tp1019
Rp1020
sg34
g44
sS'block.thisN'
p1021
I0
sS'stim.thisN'
p1022
I5
sg901
g902
sg903
g904
sg21
g22
sg30
g33
sS'trials.thisIndex'
p1023
g908
sS'stim.thisRepN'
p1024
I0
sg23
g28
sg910
g348
sS'trials.thisRepN'
p1025
I2
sS'trials.thisN'
p1026
I2
sg914
g35
(g90
S'\x06\x00\x00\x00\x00\x00\x00\x00'
p1027
tp1028
Rp1029
sg29
g11
sS'trials.thisTrialN'
p1030
I0
sS'block.thisIndex'
p1031
g100
sg920
g35
(g90
S'\x03\x00\x00\x00\x00\x00\x00\x00'
p1032
tp1033
Rp1034
sa(dp1035
S'block.thisTrialN'
p1036
I0
sS'stim.thisTrialN'
p1037
I6
sS'block.thisRepN'
p1038
I0
sg893
g894
sS'stim.thisIndex'
p1039
g35
(g70
S'\x06\x00\x00\x00'
p1040
tp1041
Rp1042
sg34
g44
sS'block.thisN'
p1043
I0
sS'stim.thisN'
p1044
I6
sg901
g902
sg903
g904
sg21
g22
sg30
g33
sS'trials.thisIndex'
p1045
g908
sS'stim.thisRepN'
p1046
I0
sg23
g28
sg910
g371
sS'trials.thisRepN'
p1047
I2
sS'trials.thisN'
p1048
I2
sg914
g35
(g90
S'\x07\x00\x00\x00\x00\x00\x00\x00'
p1049
tp1050
Rp1051
sg29
g11
sS'trials.thisTrialN'
p1052
I0
sS'block.thisIndex'
p1053
g100
sg920
g35
(g90
S'\x03\x00\x00\x00\x00\x00\x00\x00'
p1054
tp1055
Rp1056
sa(dp1057
S'block.thisTrialN'
p1058
I0
sS'stim.thisTrialN'
p1059
I7
sS'block.thisRepN'
p1060
I0
sg893
g894
sS'stim.thisIndex'
p1061
g35
(g70
S'\x07\x00\x00\x00'
p1062
tp1063
Rp1064
sg34
g44
sS'block.thisN'
p1065
I0
sS'stim.thisN'
p1066
I7
sg901
g902
sg903
g904
sg21
g22
sg30
g33
sS'trials.thisIndex'
p1067
g908
sS'stim.thisRepN'
p1068
I0
sg23
g28
sg910
g279
sS'trials.thisRepN'
p1069
I2
sS'trials.thisN'
p1070
I2
sg914
g35
(g90
S'\x08\x00\x00\x00\x00\x00\x00\x00'
p1071
tp1072
Rp1073
sg29
g11
sS'trials.thisTrialN'
p1074
I0
sS'block.thisIndex'
p1075
g100
sg920
g35
(g90
S'\x03\x00\x00\x00\x00\x00\x00\x00'
p1076
tp1077
Rp1078
sa(dp1079
S'block.thisTrialN'
p1080
I0
sS'stim.thisTrialN'
p1081
I8
sS'block.thisRepN'
p1082
I0
sg893
g894
sS'stim.thisIndex'
p1083
g35
(g70
S'\x08\x00\x00\x00'
p1084
tp1085
Rp1086
sg34
g44
sS'block.thisN'
p1087
I0
sS'stim.thisN'
p1088
I8
sg901
g902
sg903
g904
sg21
g22
sg30
g33
sS'trials.thisIndex'
p1089
g908
sS'stim.thisRepN'
p1090
I0
sg23
g28
sg910
g209
sS'trials.thisRepN'
p1091
I2
sS'trials.thisN'
p1092
I2
sg914
g35
(g90
S'\t\x00\x00\x00\x00\x00\x00\x00'
p1093
tp1094
Rp1095
sg29
g11
sS'trials.thisTrialN'
p1096
I0
sS'block.thisIndex'
p1097
g100
sg920
g35
(g90
S'\x03\x00\x00\x00\x00\x00\x00\x00'
p1098
tp1099
Rp1100
sa(dp1101
S'block.thisTrialN'
p1102
I0
sS'stim.thisTrialN'
p1103
I9
sS'block.thisRepN'
p1104
I0
sg893
g894
sS'stim.thisIndex'
p1105
g35
(g70
S'\t\x00\x00\x00'
p1106
tp1107
Rp1108
sg34
g44
sS'block.thisN'
p1109
I0
sS'stim.thisN'
p1110
I9
sg901
g902
sg903
Vtarget
p1111
sg21
g22
sg30
g33
sS'trials.thisIndex'
p1112
g908
sS'stim.thisRepN'
p1113
I0
sg23
g28
sg910
g823
sS'trials.thisRepN'
p1114
I2
sS'trials.thisN'
p1115
I2
sg914
g35
(g90
S'\n\x00\x00\x00\x00\x00\x00\x00'
p1116
tp1117
Rp1118
sg29
g11
sS'trials.thisTrialN'
p1119
I0
sS'block.thisIndex'
p1120
g100
sg920
g35
(g90
S'\x03\x00\x00\x00\x00\x00\x00\x00'
p1121
tp1122
Rp1123
sa(dp1124
S'block.thisTrialN'
p1125
I0
sS'stim.thisTrialN'
p1126
I10
sS'block.thisRepN'
p1127
I0
sg893
g894
sS'stim.thisIndex'
p1128
g35
(g70
S'\n\x00\x00\x00'
p1129
tp1130
Rp1131
sg34
g44
sS'block.thisN'
p1132
I0
sS'stim.thisN'
p1133
I10
sg901
g902
sg903
g904
sg21
g22
sg30
g33
sS'trials.thisIndex'
p1134
g908
sS'stim.thisRepN'
p1135
I0
sg23
g28
sg910
g712
sS'trials.thisRepN'
p1136
I2
sS'trials.thisN'
p1137
I2
sg914
g35
(g90
S'\x0b\x00\x00\x00\x00\x00\x00\x00'
p1138
tp1139
Rp1140
sg29
g11
sS'trials.thisTrialN'
p1141
I0
sS'block.thisIndex'
p1142
g100
sg920
g35
(g90
S'\x03\x00\x00\x00\x00\x00\x00\x00'
p1143
tp1144
Rp1145
sa(dp1146
S'block.thisTrialN'
p1147
I0
sS'stim.thisTrialN'
p1148
I11
sS'block.thisRepN'
p1149
I0
sg893
g894
sS'stim.thisIndex'
p1150
g35
(g70
S'\x0b\x00\x00\x00'
p1151
tp1152
Rp1153
sg34
g44
sS'block.thisN'
p1154
I0
sS'stim.thisN'
p1155
I11
sg901
g902
sg903
g904
sg21
g22
sg30
g33
sS'trials.thisIndex'
p1156
g908
sS'stim.thisRepN'
p1157
I0
sg23
g28
sg910
g163
sS'trials.thisRepN'
p1158
I2
sS'trials.thisN'
p1159
I2
sg914
g35
(g90
S'\x0c\x00\x00\x00\x00\x00\x00\x00'
p1160
tp1161
Rp1162
sg29
g11
sS'trials.thisTrialN'
p1163
I0
sS'block.thisIndex'
p1164
g100
sg920
g35
(g90
S'\x03\x00\x00\x00\x00\x00\x00\x00'
p1165
tp1166
Rp1167
sa(dp1168
S'block.thisTrialN'
p1169
I0
sS'stim.thisTrialN'
p1170
I12
sS'block.thisRepN'
p1171
I0
sg893
g894
sS'stim.thisIndex'
p1172
g35
(g70
S'\x0c\x00\x00\x00'
p1173
tp1174
Rp1175
sg34
g44
sS'block.thisN'
p1176
I0
sS'stim.thisN'
p1177
I12
sg901
g902
sg903
g904
sg21
g22
sg30
g33
sS'trials.thisIndex'
p1178
g908
sS'stim.thisRepN'
p1179
I0
sg23
g28
sg910
VU
p1180
sS'trials.thisRepN'
p1181
I2
sS'trials.thisN'
p1182
I2
sg914
g35
(g90
S'\r\x00\x00\x00\x00\x00\x00\x00'
p1183
tp1184
Rp1185
sg29
g11
sS'trials.thisTrialN'
p1186
I0
sS'block.thisIndex'
p1187
g100
sg920
g35
(g90
S'\x03\x00\x00\x00\x00\x00\x00\x00'
p1188
tp1189
Rp1190
sa(dp1191
S'block.thisTrialN'
p1192
I0
sS'stim.thisTrialN'
p1193
I13
sS'block.thisRepN'
p1194
I0
sg893
g894
sS'stim.thisIndex'
p1195
g35
(g70
S'\r\x00\x00\x00'
p1196
tp1197
Rp1198
sg34
g44
sS'block.thisN'
p1199
I0
sS'stim.thisN'
p1200
I13
sg901
g902
sg903
g904
sg21
g22
sg30
g33
sS'trials.thisIndex'
p1201
g908
sS'stim.thisRepN'
p1202
I0
sg23
g28
sg910
g256
sS'trials.thisRepN'
p1203
I2
sS'trials.thisN'
p1204
I2
sg914
g35
(g90
S'\x0e\x00\x00\x00\x00\x00\x00\x00'
p1205
tp1206
Rp1207
sg29
g11
sS'trials.thisTrialN'
p1208
I0
sS'block.thisIndex'
p1209
g100
sg920
g35
(g90
S'\x03\x00\x00\x00\x00\x00\x00\x00'
p1210
tp1211
Rp1212
sa(dp1213
S'block.thisTrialN'
p1214
I0
sS'stim.thisTrialN'
p1215
I14
sS'block.thisRepN'
p1216
I0
sg893
g894
sS'stim.thisIndex'
p1217
g35
(g70
S'\x0e\x00\x00\x00'
p1218
tp1219
Rp1220
sg34
g44
sS'block.thisN'
p1221
I0
sS'stim.thisN'
p1222
I14
sg901
g902
sg903
Vmask
p1223
sg21
g22
sg30
g33
sS'trials.thisIndex'
p1224
g908
sS'stim.thisRepN'
p1225
I0
sg23
g28
sg910
g233
sS'trials.thisRepN'
p1226
I2
sS'trials.thisN'
p1227
I2
sg914
g35
(g90
S'\x0f\x00\x00\x00\x00\x00\x00\x00'
p1228
tp1229
Rp1230
sg29
g11
sS'trials.thisTrialN'
p1231
I0
sS'block.thisIndex'
p1232
g100
sg920
g35
(g90
S'\x03\x00\x00\x00\x00\x00\x00\x00'
p1233
tp1234
Rp1235
sa(dp1236
S'block.thisTrialN'
p1237
I0
sS'stim.thisTrialN'
p1238
I15
sS'block.thisRepN'
p1239
I0
sg893
g894
sS'stim.thisIndex'
p1240
g35
(g70
S'\x0f\x00\x00\x00'
p1241
tp1242
Rp1243
sg34
g44
sS'block.thisN'
p1244
I0
sS'stim.thisN'
p1245
I15
sg901
g902
sg903
g904
sg21
g22
sg30
g33
sS'trials.thisIndex'
p1246
g908
sS'stim.thisRepN'
p1247
I0
sg23
g28
sg910
g666
sS'trials.thisRepN'
p1248
I2
sS'trials.thisN'
p1249
I2
sg914
g35
(g90
S'\x10\x00\x00\x00\x00\x00\x00\x00'
p1250
tp1251
Rp1252
sg29
g11
sS'trials.thisTrialN'
p1253
I0
sS'block.thisIndex'
p1254
g100
sg920
g35
(g90
S'\x03\x00\x00\x00\x00\x00\x00\x00'
p1255
tp1256
Rp1257
sa(dp1258
S'block.thisTrialN'
p1259
I0
sS'block.thisRepN'
p1260
I0
sg16
g498
sS'trials.thisRepN'
p1261
I2
sg15
F0.5010943040833808
sS'block.thisN'
p1262
I0
sg34
g44
sS'trials.thisN'
p1263
I2
sg14
S'6'
p1264
sg29
g11
sS'trials.thisTrialN'
p1265
I0
sg30
g33
sS'trials.thisIndex'
p1266
g908
sg21
g22
sg23
g28
sS'block.thisIndex'
p1267
g100
sg17
F0.05476029554847628
sa(dp1268
S'block.thisTrialN'
p1269
I0
sS'stim.thisTrialN'
p1270
I0
sS'block.thisRepN'
p1271
I0
sS'Tx'
p1272
Vt1
p1273
sS'stim.thisIndex'
p1274
g35
(g70
S'\x00\x00\x00\x00'
p1275
tp1276
Rp1277
sg34
g44
sS'block.thisN'
p1278
I0
sS'stim.thisN'
p1279
I0
sS'sep_dur'
p1280
Vshort
p1281
sS'cond'
p1282
Vdistractor
p1283
sg21
g22
sg30
g33
sS'trials.thisIndex'
p1284
g35
(g70
S'\x00\x00\x00\x00'
p1285
tp1286
Rp1287
sS'stim.thisRepN'
p1288
I0
sg23
g28
sS'stimulus'
p1289
VC
p1290
sS'trials.thisRepN'
p1291
I3
sS'trials.thisN'
p1292
I3
sS'trial'
p1293
g35
(g90
S'\x01\x00\x00\x00\x00\x00\x00\x00'
p1294
tp1295
Rp1296
sg29
g11
sS'trials.thisTrialN'
p1297
I0
sS'block.thisIndex'
p1298
g100
sS'block'
p1299
g35
(g90
S'\x04\x00\x00\x00\x00\x00\x00\x00'
p1300
tp1301
Rp1302
sa(dp1303
S'block.thisTrialN'
p1304
I0
sS'stim.thisTrialN'
p1305
I1
sS'block.thisRepN'
p1306
I0
sg1272
g1273
sS'stim.thisIndex'
p1307
g35
(g70
S'\x01\x00\x00\x00'
p1308
tp1309
Rp1310
sg34
g44
sS'block.thisN'
p1311
I0
sS'stim.thisN'
p1312
I1
sg1280
g1281
sg1282
g1283
sg21
g22
sg30
g33
sS'trials.thisIndex'
p1313
g1287
sS'stim.thisRepN'
p1314
I0
sg23
g28
sg1289
g85
sS'trials.thisRepN'
p1315
I3
sS'trials.thisN'
p1316
I3
sg1293
g35
(g90
S'\x02\x00\x00\x00\x00\x00\x00\x00'
p1317
tp1318
Rp1319
sg29
g11
sS'trials.thisTrialN'
p1320
I0
sS'block.thisIndex'
p1321
g100
sg1299
g35
(g90
S'\x04\x00\x00\x00\x00\x00\x00\x00'
p1322
tp1323
Rp1324
sa(dp1325
S'block.thisTrialN'
p1326
I0
sS'stim.thisTrialN'
p1327
I2
sS'block.thisRepN'
p1328
I0
sg1272
g1273
sS'stim.thisIndex'
p1329
g35
(g70
S'\x02\x00\x00\x00'
p1330
tp1331
Rp1332
sg34
g44
sS'block.thisN'
p1333
I0
sS'stim.thisN'
p1334
I2
sg1280
g1281
sg1282
g1283
sg21
g22
sg30
g33
sS'trials.thisIndex'
p1335
g1287
sS'stim.thisRepN'
p1336
I0
sg23
g28
sg1289
g85
sS'trials.thisRepN'
p1337
I3
sS'trials.thisN'
p1338
I3
sg1293
g35
(g90
S'\x03\x00\x00\x00\x00\x00\x00\x00'
p1339
tp1340
Rp1341
sg29
g11
sS'trials.thisTrialN'
p1342
I0
sS'block.thisIndex'
p1343
g100
sg1299
g35
(g90
S'\x04\x00\x00\x00\x00\x00\x00\x00'
p1344
tp1345
Rp1346
sa(dp1347
S'block.thisTrialN'
p1348
I0
sS'stim.thisTrialN'
p1349
I3
sS'block.thisRepN'
p1350
I0
sg1272
g1273
sS'stim.thisIndex'
p1351
g35
(g70
S'\x03\x00\x00\x00'
p1352
tp1353
Rp1354
sg34
g44
sS'block.thisN'
p1355
I0
sS'stim.thisN'
p1356
I3
sg1280
g1281
sg1282
g1283
sg21
g22
sg30
g33
sS'trials.thisIndex'
p1357
g1287
sS'stim.thisRepN'
p1358
I0
sg23
g28
sg1289
g1290
sS'trials.thisRepN'
p1359
I3
sS'trials.thisN'
p1360
I3
sg1293
g35
(g90
S'\x04\x00\x00\x00\x00\x00\x00\x00'
p1361
tp1362
Rp1363
sg29
g11
sS'trials.thisTrialN'
p1364
I0
sS'block.thisIndex'
p1365
g100
sg1299
g35
(g90
S'\x04\x00\x00\x00\x00\x00\x00\x00'
p1366
tp1367
Rp1368
sa(dp1369
S'block.thisTrialN'
p1370
I0
sS'stim.thisTrialN'
p1371
I4
sS'block.thisRepN'
p1372
I0
sg1272
g1273
sS'stim.thisIndex'
p1373
g35
(g70
S'\x04\x00\x00\x00'
p1374
tp1375
Rp1376
sg34
g44
sS'block.thisN'
p1377
I0
sS'stim.thisN'
p1378
I4
sg1280
g1281
sg1282
g1283
sg21
g22
sg30
g33
sS'trials.thisIndex'
p1379
g1287
sS'stim.thisRepN'
p1380
I0
sg23
g28
sg1289
g209
sS'trials.thisRepN'
p1381
I3
sS'trials.thisN'
p1382
I3
sg1293
g35
(g90
S'\x05\x00\x00\x00\x00\x00\x00\x00'
p1383
tp1384
Rp1385
sg29
g11
sS'trials.thisTrialN'
p1386
I0
sS'block.thisIndex'
p1387
g100
sg1299
g35
(g90
S'\x04\x00\x00\x00\x00\x00\x00\x00'
p1388
tp1389
Rp1390
sa(dp1391
S'block.thisTrialN'
p1392
I0
sS'stim.thisTrialN'
p1393
I5
sS'block.thisRepN'
p1394
I0
sg1272
g1273
sS'stim.thisIndex'
p1395
g35
(g70
S'\x05\x00\x00\x00'
p1396
tp1397
Rp1398
sg34
g44
sS'block.thisN'
p1399
I0
sS'stim.thisN'
p1400
I5
sg1280
g1281
sg1282
g1283
sg21
g22
sg30
g33
sS'trials.thisIndex'
p1401
g1287
sS'stim.thisRepN'
p1402
I0
sg23
g28
sg1289
g371
sS'trials.thisRepN'
p1403
I3
sS'trials.thisN'
p1404
I3
sg1293
g35
(g90
S'\x06\x00\x00\x00\x00\x00\x00\x00'
p1405
tp1406
Rp1407
sg29
g11
sS'trials.thisTrialN'
p1408
I0
sS'block.thisIndex'
p1409
g100
sg1299
g35
(g90
S'\x04\x00\x00\x00\x00\x00\x00\x00'
p1410
tp1411
Rp1412
sa(dp1413
S'block.thisTrialN'
p1414
I0
sS'stim.thisTrialN'
p1415
I6
sS'block.thisRepN'
p1416
I0
sg1272
g1273
sS'stim.thisIndex'
p1417
g35
(g70
S'\x06\x00\x00\x00'
p1418
tp1419
Rp1420
sg34
g44
sS'block.thisN'
p1421
I0
sS'stim.thisN'
p1422
I6
sg1280
g1281
sg1282
g1283
sg21
g22
sg30
g33
sS'trials.thisIndex'
p1423
g1287
sS'stim.thisRepN'
p1424
I0
sg23
g28
sg1289
g140
sS'trials.thisRepN'
p1425
I3
sS'trials.thisN'
p1426
I3
sg1293
g35
(g90
S'\x07\x00\x00\x00\x00\x00\x00\x00'
p1427
tp1428
Rp1429
sg29
g11
sS'trials.thisTrialN'
p1430
I0
sS'block.thisIndex'
p1431
g100
sg1299
g35
(g90
S'\x04\x00\x00\x00\x00\x00\x00\x00'
p1432
tp1433
Rp1434
sa(dp1435
S'block.thisTrialN'
p1436
I0
sS'stim.thisTrialN'
p1437
I7
sS'block.thisRepN'
p1438
I0
sg1272
g1273
sS'stim.thisIndex'
p1439
g35
(g70
S'\x07\x00\x00\x00'
p1440
tp1441
Rp1442
sg34
g44
sS'block.thisN'
p1443
I0
sS'stim.thisN'
p1444
I7
sg1280
g1281
sg1282
g1283
sg21
g22
sg30
g33
sS'trials.thisIndex'
p1445
g1287
sS'stim.thisRepN'
p1446
I0
sg23
g28
sg1289
g1180
sS'trials.thisRepN'
p1447
I3
sS'trials.thisN'
p1448
I3
sg1293
g35
(g90
S'\x08\x00\x00\x00\x00\x00\x00\x00'
p1449
tp1450
Rp1451
sg29
g11
sS'trials.thisTrialN'
p1452
I0
sS'block.thisIndex'
p1453
g100
sg1299
g35
(g90
S'\x04\x00\x00\x00\x00\x00\x00\x00'
p1454
tp1455
Rp1456
sa(dp1457
S'block.thisTrialN'
p1458
I0
sS'stim.thisTrialN'
p1459
I8
sS'block.thisRepN'
p1460
I0
sg1272
g1273
sS'stim.thisIndex'
p1461
g35
(g70
S'\x08\x00\x00\x00'
p1462
tp1463
Rp1464
sg34
g44
sS'block.thisN'
p1465
I0
sS'stim.thisN'
p1466
I8
sg1280
g1281
sg1282
g1283
sg21
g22
sg30
g33
sS'trials.thisIndex'
p1467
g1287
sS'stim.thisRepN'
p1468
I0
sg23
g28
sg1289
VR
p1469
sS'trials.thisRepN'
p1470
I3
sS'trials.thisN'
p1471
I3
sg1293
g35
(g90
S'\t\x00\x00\x00\x00\x00\x00\x00'
p1472
tp1473
Rp1474
sg29
g11
sS'trials.thisTrialN'
p1475
I0
sS'block.thisIndex'
p1476
g100
sg1299
g35
(g90
S'\x04\x00\x00\x00\x00\x00\x00\x00'
p1477
tp1478
Rp1479
sa(dp1480
S'block.thisTrialN'
p1481
I0
sS'stim.thisTrialN'
p1482
I9
sS'block.thisRepN'
p1483
I0
sg1272
g1273
sS'stim.thisIndex'
p1484
g35
(g70
S'\t\x00\x00\x00'
p1485
tp1486
Rp1487
sg34
g44
sS'block.thisN'
p1488
I0
sS'stim.thisN'
p1489
I9
sg1280
g1281
sg1282
g1283
sg21
g22
sg30
g33
sS'trials.thisIndex'
p1490
g1287
sS'stim.thisRepN'
p1491
I0
sg23
g28
sg1289
g302
sS'trials.thisRepN'
p1492
I3
sS'trials.thisN'
p1493
I3
sg1293
g35
(g90
S'\n\x00\x00\x00\x00\x00\x00\x00'
p1494
tp1495
Rp1496
sg29
g11
sS'trials.thisTrialN'
p1497
I0
sS'block.thisIndex'
p1498
g100
sg1299
g35
(g90
S'\x04\x00\x00\x00\x00\x00\x00\x00'
p1499
tp1500
Rp1501
sa(dp1502
S'block.thisTrialN'
p1503
I0
sS'stim.thisTrialN'
p1504
I10
sS'block.thisRepN'
p1505
I0
sg1272
g1273
sS'stim.thisIndex'
p1506
g35
(g70
S'\n\x00\x00\x00'
p1507
tp1508
Rp1509
sg34
g44
sS'block.thisN'
p1510
I0
sS'stim.thisN'
p1511
I10
sg1280
g1281
sg1282
Vtarget
p1512
sg21
g22
sg30
g33
sS'trials.thisIndex'
p1513
g1287
sS'stim.thisRepN'
p1514
I0
sg23
g28
sg1289
V2
p1515
sS'trials.thisRepN'
p1516
I3
sS'trials.thisN'
p1517
I3
sg1293
g35
(g90
S'\x0b\x00\x00\x00\x00\x00\x00\x00'
p1518
tp1519
Rp1520
sg29
g11
sS'trials.thisTrialN'
p1521
I0
sS'block.thisIndex'
p1522
g100
sg1299
g35
(g90
S'\x04\x00\x00\x00\x00\x00\x00\x00'
p1523
tp1524
Rp1525
sa(dp1526
S'block.thisTrialN'
p1527
I0
sS'stim.thisTrialN'
p1528
I11
sS'block.thisRepN'
p1529
I0
sg1272
g1273
sS'stim.thisIndex'
p1530
g35
(g70
S'\x0b\x00\x00\x00'
p1531
tp1532
Rp1533
sg34
g44
sS'block.thisN'
p1534
I0
sS'stim.thisN'
p1535
I11
sg1280
g1281
sg1282
g1283
sg21
g22
sg30
g33
sS'trials.thisIndex'
p1536
g1287
sS'stim.thisRepN'
p1537
I0
sg23
g28
sg1289
g348
sS'trials.thisRepN'
p1538
I3
sS'trials.thisN'
p1539
I3
sg1293
g35
(g90
S'\x0c\x00\x00\x00\x00\x00\x00\x00'
p1540
tp1541
Rp1542
sg29
g11
sS'trials.thisTrialN'
p1543
I0
sS'block.thisIndex'
p1544
g100
sg1299
g35
(g90
S'\x04\x00\x00\x00\x00\x00\x00\x00'
p1545
tp1546
Rp1547
sa(dp1548
S'block.thisTrialN'
p1549
I0
sS'stim.thisTrialN'
p1550
I12
sS'block.thisRepN'
p1551
I0
sg1272
g1273
sS'stim.thisIndex'
p1552
g35
(g70
S'\x0c\x00\x00\x00'
p1553
tp1554
Rp1555
sg34
g44
sS'block.thisN'
p1556
I0
sS'stim.thisN'
p1557
I12
sg1280
g1281
sg1282
g1283
sg21
g22
sg30
g33
sS'trials.thisIndex'
p1558
g1287
sS'stim.thisRepN'
p1559
I0
sg23
g28
sg1289
g911
sS'trials.thisRepN'
p1560
I3
sS'trials.thisN'
p1561
I3
sg1293
g35
(g90
S'\r\x00\x00\x00\x00\x00\x00\x00'
p1562
tp1563
Rp1564
sg29
g11
sS'trials.thisTrialN'
p1565
I0
sS'block.thisIndex'
p1566
g100
sg1299
g35
(g90
S'\x04\x00\x00\x00\x00\x00\x00\x00'
p1567
tp1568
Rp1569
sa(dp1570
S'block.thisTrialN'
p1571
I0
sS'stim.thisTrialN'
p1572
I13
sS'block.thisRepN'
p1573
I0
sg1272
g1273
sS'stim.thisIndex'
p1574
g35
(g70
S'\r\x00\x00\x00'
p1575
tp1576
Rp1577
sg34
g44
sS'block.thisN'
p1578
I0
sS'stim.thisN'
p1579
I13
sg1280
g1281
sg1282
g1283
sg21
g22
sg30
g33
sS'trials.thisIndex'
p1580
g1287
sS'stim.thisRepN'
p1581
I0
sg23
g28
sg1289
g302
sS'trials.thisRepN'
p1582
I3
sS'trials.thisN'
p1583
I3
sg1293
g35
(g90
S'\x0e\x00\x00\x00\x00\x00\x00\x00'
p1584
tp1585
Rp1586
sg29
g11
sS'trials.thisTrialN'
p1587
I0
sS'block.thisIndex'
p1588
g100
sg1299
g35
(g90
S'\x04\x00\x00\x00\x00\x00\x00\x00'
p1589
tp1590
Rp1591
sa(dp1592
S'block.thisTrialN'
p1593
I0
sS'stim.thisTrialN'
p1594
I14
sS'block.thisRepN'
p1595
I0
sg1272
g1273
sS'stim.thisIndex'
p1596
g35
(g70
S'\x0e\x00\x00\x00'
p1597
tp1598
Rp1599
sg34
g44
sS'block.thisN'
p1600
I0
sS'stim.thisN'
p1601
I14
sg1280
g1281
sg1282
g1283
sg21
g22
sg30
g33
sS'trials.thisIndex'
p1602
g1287
sS'stim.thisRepN'
p1603
I0
sg23
g28
sg1289
g1180
sS'trials.thisRepN'
p1604
I3
sS'trials.thisN'
p1605
I3
sg1293
g35
(g90
S'\x0f\x00\x00\x00\x00\x00\x00\x00'
p1606
tp1607
Rp1608
sg29
g11
sS'trials.thisTrialN'
p1609
I0
sS'block.thisIndex'
p1610
g100
sg1299
g35
(g90
S'\x04\x00\x00\x00\x00\x00\x00\x00'
p1611
tp1612
Rp1613
sa(dp1614
S'block.thisTrialN'
p1615
I0
sS'stim.thisTrialN'
p1616
I15
sS'block.thisRepN'
p1617
I0
sg1272
g1273
sS'stim.thisIndex'
p1618
g35
(g70
S'\x0f\x00\x00\x00'
p1619
tp1620
Rp1621
sg34
g44
sS'block.thisN'
p1622
I0
sS'stim.thisN'
p1623
I15
sg1280
g1281
sg1282
Vmask
p1624
sg21
g22
sg30
g33
sS'trials.thisIndex'
p1625
g1287
sS'stim.thisRepN'
p1626
I0
sg23
g28
sg1289
g233
sS'trials.thisRepN'
p1627
I3
sS'trials.thisN'
p1628
I3
sg1293
g35
(g90
S'\x10\x00\x00\x00\x00\x00\x00\x00'
p1629
tp1630
Rp1631
sg29
g11
sS'trials.thisTrialN'
p1632
I0
sS'block.thisIndex'
p1633
g100
sg1299
g35
(g90
S'\x04\x00\x00\x00\x00\x00\x00\x00'
p1634
tp1635
Rp1636
sa(dp1637
S'block.thisTrialN'
p1638
I0
sS'stim.thisTrialN'
p1639
I16
sS'block.thisRepN'
p1640
I0
sg1272
g1273
sS'stim.thisIndex'
p1641
g35
(g70
S'\x10\x00\x00\x00'
p1642
tp1643
Rp1644
sg34
g44
sS'block.thisN'
p1645
I0
sS'stim.thisN'
p1646
I16
sg1280
g1281
sg1282
g1283
sg21
g22
sg30
g33
sS'trials.thisIndex'
p1647
g1287
sS'stim.thisRepN'
p1648
I0
sg23
g28
sg1289
g1180
sS'trials.thisRepN'
p1649
I3
sS'trials.thisN'
p1650
I3
sg1293
g35
(g90
S'\x11\x00\x00\x00\x00\x00\x00\x00'
p1651
tp1652
Rp1653
sg29
g11
sS'trials.thisTrialN'
p1654
I0
sS'block.thisIndex'
p1655
g100
sg1299
g35
(g90
S'\x04\x00\x00\x00\x00\x00\x00\x00'
p1656
tp1657
Rp1658
sa(dp1659
S'block.thisTrialN'
p1660
I0
sS'block.thisRepN'
p1661
I0
sg16
S'9'
p1662
sS'trials.thisRepN'
p1663
I3
sg15
F1.1157261728076264
sS'block.thisN'
p1664
I0
sg34
g44
sS'trials.thisN'
p1665
I3
sg14
g1662
sg29
g11
sS'trials.thisTrialN'
p1666
I0
sg30
g33
sS'trials.thisIndex'
p1667
g1287
sg21
g22
sg23
g28
sS'block.thisIndex'
p1668
g100
sg17
F0.1660913125379011
sa(dp1669
S'block.thisTrialN'
p1670
I0
sS'block.thisRepN'
p1671
I0
sg34
g44
sS'block.thisN'
p1672
I0
sg29
g11
sg30
g33
sg21
g22
sg23
g28
sS'block.thisIndex'
p1673
g100
sa(dp1674
S'block.thisTrialN'
p1675
I0
sS'stim.thisTrialN'
p1676
I0
sS'block.thisRepN'
p1677
I1
sS'Tx'
p1678
Vt1
p1679
sS'stim.thisIndex'
p1680
g35
(g70
S'\x00\x00\x00\x00'
p1681
tp1682
Rp1683
sg34
g44
sS'block.thisN'
p1684
I1
sS'stim.thisN'
p1685
I0
sS'sep_dur'
p1686
Vshort
p1687
sS'cond'
p1688
Vdistractor
p1689
sg21
g22
sg30
g33
sS'trials.thisIndex'
p1690
g35
(g70
S'\x00\x00\x00\x00'
p1691
tp1692
Rp1693
sS'stim.thisRepN'
p1694
I0
sg23
g28
sS'stimulus'
p1695
g1290
sS'trials.thisRepN'
p1696
I0
sS'trials.thisN'
p1697
I0
sS'trial'
p1698
g35
(g90
S'\x01\x00\x00\x00\x00\x00\x00\x00'
p1699
tp1700
Rp1701
sg29
g11
sS'trials.thisTrialN'
p1702
I0
sS'block.thisIndex'
p1703
g35
(g70
S'\x00\x00\x00\x00'
p1704
tp1705
Rp1706
sS'block'
p1707
g35
(g90
S'\x05\x00\x00\x00\x00\x00\x00\x00'
p1708
tp1709
Rp1710
sa(dp1711
S'block.thisTrialN'
p1712
I0
sS'stim.thisTrialN'
p1713
I1
sS'block.thisRepN'
p1714
I1
sg1678
g1679
sS'stim.thisIndex'
p1715
g35
(g70
S'\x01\x00\x00\x00'
p1716
tp1717
Rp1718
sg34
g44
sS'block.thisN'
p1719
I1
sS'stim.thisN'
p1720
I1
sg1686
g1687
sg1688
g1689
sg21
g22
sg30
g33
sS'trials.thisIndex'
p1721
g1693
sS'stim.thisRepN'
p1722
I0
sg23
g28
sg1695
g302
sS'trials.thisRepN'
p1723
I0
sS'trials.thisN'
p1724
I0
sg1698
g35
(g90
S'\x02\x00\x00\x00\x00\x00\x00\x00'
p1725
tp1726
Rp1727
sg29
g11
sS'trials.thisTrialN'
p1728
I0
sS'block.thisIndex'
p1729
g1706
sg1707
g35
(g90
S'\x05\x00\x00\x00\x00\x00\x00\x00'
p1730
tp1731
Rp1732
sa(dp1733
S'block.thisTrialN'
p1734
I0
sS'stim.thisTrialN'
p1735
I2
sS'block.thisRepN'
p1736
I1
sg1678
g1679
sS'stim.thisIndex'
p1737
g35
(g70
S'\x02\x00\x00\x00'
p1738
tp1739
Rp1740
sg34
g44
sS'block.thisN'
p1741
I1
sS'stim.thisN'
p1742
I2
sg1686
g1687
sg1688
g1689
sg21
g22
sg30
g33
sS'trials.thisIndex'
p1743
g1693
sS'stim.thisRepN'
p1744
I0
sg23
g28
sg1695
g140
sS'trials.thisRepN'
p1745
I0
sS'trials.thisN'
p1746
I0
sg1698
g35
(g90
S'\x03\x00\x00\x00\x00\x00\x00\x00'
p1747
tp1748
Rp1749
sg29
g11
sS'trials.thisTrialN'
p1750
I0
sS'block.thisIndex'
p1751
g1706
sg1707
g35
(g90
S'\x05\x00\x00\x00\x00\x00\x00\x00'
p1752
tp1753
Rp1754
sa(dp1755
S'block.thisTrialN'
p1756
I0
sS'stim.thisTrialN'
p1757
I3
sS'block.thisRepN'
p1758
I1
sg1678
g1679
sS'stim.thisIndex'
p1759
g35
(g70
S'\x03\x00\x00\x00'
p1760
tp1761
Rp1762
sg34
g44
sS'block.thisN'
p1763
I1
sS'stim.thisN'
p1764
I3
sg1686
g1687
sg1688
g1689
sg21
g22
sg30
g33
sS'trials.thisIndex'
p1765
g1693
sS'stim.thisRepN'
p1766
I0
sg23
g28
sg1695
g689
sS'trials.thisRepN'
p1767
I0
sS'trials.thisN'
p1768
I0
sg1698
g35
(g90
S'\x04\x00\x00\x00\x00\x00\x00\x00'
p1769
tp1770
Rp1771
sg29
g11
sS'trials.thisTrialN'
p1772
I0
sS'block.thisIndex'
p1773
g1706
sg1707
g35
(g90
S'\x05\x00\x00\x00\x00\x00\x00\x00'
p1774
tp1775
Rp1776
sa(dp1777
S'block.thisTrialN'
p1778
I0
sS'stim.thisTrialN'
p1779
I4
sS'block.thisRepN'
p1780
I1
sg1678
g1679
sS'stim.thisIndex'
p1781
g35
(g70
S'\x04\x00\x00\x00'
p1782
tp1783
Rp1784
sg34
g44
sS'block.thisN'
p1785
I1
sS'stim.thisN'
p1786
I4
sg1686
g1687
sg1688
g1689
sg21
g22
sg30
g33
sS'trials.thisIndex'
p1787
g1693
sS'stim.thisRepN'
p1788
I0
sg23
g28
sg1695
g573
sS'trials.thisRepN'
p1789
I0
sS'trials.thisN'
p1790
I0
sg1698
g35
(g90
S'\x05\x00\x00\x00\x00\x00\x00\x00'
p1791
tp1792
Rp1793
sg29
g11
sS'trials.thisTrialN'
p1794
I0
sS'block.thisIndex'
p1795
g1706
sg1707
g35
(g90
S'\x05\x00\x00\x00\x00\x00\x00\x00'
p1796
tp1797
Rp1798
sa(dp1799
S'block.thisTrialN'
p1800
I0
sS'stim.thisTrialN'
p1801
I5
sS'block.thisRepN'
p1802
I1
sg1678
g1679
sS'stim.thisIndex'
p1803
g35
(g70
S'\x05\x00\x00\x00'
p1804
tp1805
Rp1806
sg34
g44
sS'block.thisN'
p1807
I1
sS'stim.thisN'
p1808
I5
sg1686
g1687
sg1688
g1689
sg21
g22
sg30
g33
sS'trials.thisIndex'
p1809
g1693
sS'stim.thisRepN'
p1810
I0
sg23
g28
sg1695
VS
p1811
sS'trials.thisRepN'
p1812
I0
sS'trials.thisN'
p1813
I0
sg1698
g35
(g90
S'\x06\x00\x00\x00\x00\x00\x00\x00'
p1814
tp1815
Rp1816
sg29
g11
sS'trials.thisTrialN'
p1817
I0
sS'block.thisIndex'
p1818
g1706
sg1707
g35
(g90
S'\x05\x00\x00\x00\x00\x00\x00\x00'
p1819
tp1820
Rp1821
sa(dp1822
S'block.thisTrialN'
p1823
I0
sS'stim.thisTrialN'
p1824
I6
sS'block.thisRepN'
p1825
I1
sg1678
g1679
sS'stim.thisIndex'
p1826
g35
(g70
S'\x06\x00\x00\x00'
p1827
tp1828
Rp1829
sg34
g44
sS'block.thisN'
p1830
I1
sS'stim.thisN'
p1831
I6
sg1686
g1687
sg1688
g1689
sg21
g22
sg30
g33
sS'trials.thisIndex'
p1832
g1693
sS'stim.thisRepN'
p1833
I0
sg23
g28
sg1695
g689
sS'trials.thisRepN'
p1834
I0
sS'trials.thisN'
p1835
I0
sg1698
g35
(g90
S'\x07\x00\x00\x00\x00\x00\x00\x00'
p1836
tp1837
Rp1838
sg29
g11
sS'trials.thisTrialN'
p1839
I0
sS'block.thisIndex'
p1840
g1706
sg1707
g35
(g90
S'\x05\x00\x00\x00\x00\x00\x00\x00'
p1841
tp1842
Rp1843
sa(dp1844
S'block.thisTrialN'
p1845
I0
sS'stim.thisTrialN'
p1846
I7
sS'block.thisRepN'
p1847
I1
sg1678
g1679
sS'stim.thisIndex'
p1848
g35
(g70
S'\x07\x00\x00\x00'
p1849
tp1850
Rp1851
sg34
g44
sS'block.thisN'
p1852
I1
sS'stim.thisN'
p1853
I7
sg1686
g1687
sg1688
g1689
sg21
g22
sg30
g33
sS'trials.thisIndex'
p1854
g1693
sS'stim.thisRepN'
p1855
I0
sg23
g28
sg1695
g371
sS'trials.thisRepN'
p1856
I0
sS'trials.thisN'
p1857
I0
sg1698
g35
(g90
S'\x08\x00\x00\x00\x00\x00\x00\x00'
p1858
tp1859
Rp1860
sg29
g11
sS'trials.thisTrialN'
p1861
I0
sS'block.thisIndex'
p1862
g1706
sg1707
g35
(g90
S'\x05\x00\x00\x00\x00\x00\x00\x00'
p1863
tp1864
Rp1865
sa(dp1866
S'block.thisTrialN'
p1867
I0
sS'stim.thisTrialN'
p1868
I8
sS'block.thisRepN'
p1869
I1
sg1678
g1679
sS'stim.thisIndex'
p1870
g35
(g70
S'\x08\x00\x00\x00'
p1871
tp1872
Rp1873
sg34
g44
sS'block.thisN'
p1874
I1
sS'stim.thisN'
p1875
I8
sg1686
g1687
sg1688
Vtarget
p1876
sg21
g22
sg30
g33
sS'trials.thisIndex'
p1877
g1693
sS'stim.thisRepN'
p1878
I0
sg23
g28
sg1695
g117
sS'trials.thisRepN'
p1879
I0
sS'trials.thisN'
p1880
I0
sg1698
g35
(g90
S'\t\x00\x00\x00\x00\x00\x00\x00'
p1881
tp1882
Rp1883
sg29
g11
sS'trials.thisTrialN'
p1884
I0
sS'block.thisIndex'
p1885
g1706
sg1707
g35
(g90
S'\x05\x00\x00\x00\x00\x00\x00\x00'
p1886
tp1887
Rp1888
sa(dp1889
S'block.thisTrialN'
p1890
I0
sS'stim.thisTrialN'
p1891
I9
sS'block.thisRepN'
p1892
I1
sg1678
g1679
sS'stim.thisIndex'
p1893
g35
(g70
S'\t\x00\x00\x00'
p1894
tp1895
Rp1896
sg34
g44
sS'block.thisN'
p1897
I1
sS'stim.thisN'
p1898
I9
sg1686
g1687
sg1688
g1689
sg21
g22
sg30
g33
sS'trials.thisIndex'
p1899
g1693
sS'stim.thisRepN'
p1900
I0
sg23
g28
sg1695
g302
sS'trials.thisRepN'
p1901
I0
sS'trials.thisN'
p1902
I0
sg1698
g35
(g90
S'\n\x00\x00\x00\x00\x00\x00\x00'
p1903
tp1904
Rp1905
sg29
g11
sS'trials.thisTrialN'
p1906
I0
sS'block.thisIndex'
p1907
g1706
sg1707
g35
(g90
S'\x05\x00\x00\x00\x00\x00\x00\x00'
p1908
tp1909
Rp1910
sa(dp1911
S'block.thisTrialN'
p1912
I0
sS'stim.thisTrialN'
p1913
I10
sS'block.thisRepN'
p1914
I1
sg1678
g1679
sS'stim.thisIndex'
p1915
g35
(g70
S'\n\x00\x00\x00'
p1916
tp1917
Rp1918
sg34
g44
sS'block.thisN'
p1919
I1
sS'stim.thisN'
p1920
I10
sg1686
g1687
sg1688
g1689
sg21
g22
sg30
g33
sS'trials.thisIndex'
p1921
g1693
sS'stim.thisRepN'
p1922
I0
sg23
g28
sg1695
g85
sS'trials.thisRepN'
p1923
I0
sS'trials.thisN'
p1924
I0
sg1698
g35
(g90
S'\x0b\x00\x00\x00\x00\x00\x00\x00'
p1925
tp1926
Rp1927
sg29
g11
sS'trials.thisTrialN'
p1928
I0
sS'block.thisIndex'
p1929
g1706
sg1707
g35
(g90
S'\x05\x00\x00\x00\x00\x00\x00\x00'
p1930
tp1931
Rp1932
sa(dp1933
S'block.thisTrialN'
p1934
I0
sS'stim.thisTrialN'
p1935
I11
sS'block.thisRepN'
p1936
I1
sg1678
g1679
sS'stim.thisIndex'
p1937
g35
(g70
S'\x0b\x00\x00\x00'
p1938
tp1939
Rp1940
sg34
g44
sS'block.thisN'
p1941
I1
sS'stim.thisN'
p1942
I11
sg1686
g1687
sg1688
g1689
sg21
g22
sg30
g33
sS'trials.thisIndex'
p1943
g1693
sS'stim.thisRepN'
p1944
I0
sg23
g28
sg1695
g712
sS'trials.thisRepN'
p1945
I0
sS'trials.thisN'
p1946
I0
sg1698
g35
(g90
S'\x0c\x00\x00\x00\x00\x00\x00\x00'
p1947
tp1948
Rp1949
sg29
g11
sS'trials.thisTrialN'
p1950
I0
sS'block.thisIndex'
p1951
g1706
sg1707
g35
(g90
S'\x05\x00\x00\x00\x00\x00\x00\x00'
p1952
tp1953
Rp1954
sa(dp1955
S'block.thisTrialN'
p1956
I0
sS'stim.thisTrialN'
p1957
I12
sS'block.thisRepN'
p1958
I1
sg1678
g1679
sS'stim.thisIndex'
p1959
g35
(g70
S'\x0c\x00\x00\x00'
p1960
tp1961
Rp1962
sg34
g44
sS'block.thisN'
p1963
I1
sS'stim.thisN'
p1964
I12
sg1686
g1687
sg1688
g1689
sg21
g22
sg30
g33
sS'trials.thisIndex'
p1965
g1693
sS'stim.thisRepN'
p1966
I0
sg23
g28
sg1695
g1811
sS'trials.thisRepN'
p1967
I0
sS'trials.thisN'
p1968
I0
sg1698
g35
(g90
S'\r\x00\x00\x00\x00\x00\x00\x00'
p1969
tp1970
Rp1971
sg29
g11
sS'trials.thisTrialN'
p1972
I0
sS'block.thisIndex'
p1973
g1706
sg1707
g35
(g90
S'\x05\x00\x00\x00\x00\x00\x00\x00'
p1974
tp1975
Rp1976
sa(dp1977
S'block.thisTrialN'
p1978
I0
sS'stim.thisTrialN'
p1979
I13
sS'block.thisRepN'
p1980
I1
sg1678
g1679
sS'stim.thisIndex'
p1981
g35
(g70
S'\r\x00\x00\x00'
p1982
tp1983
Rp1984
sg34
g44
sS'block.thisN'
p1985
I1
sS'stim.thisN'
p1986
I13
sg1686
g1687
sg1688
Vmask
p1987
sg21
g22
sg30
g33
sS'trials.thisIndex'
p1988
g1693
sS'stim.thisRepN'
p1989
I0
sg23
g28
sg1695
g233
sS'trials.thisRepN'
p1990
I0
sS'trials.thisN'
p1991
I0
sg1698
g35
(g90
S'\x0e\x00\x00\x00\x00\x00\x00\x00'
p1992
tp1993
Rp1994
sg29
g11
sS'trials.thisTrialN'
p1995
I0
sS'block.thisIndex'
p1996
g1706
sg1707
g35
(g90
S'\x05\x00\x00\x00\x00\x00\x00\x00'
p1997
tp1998
Rp1999
sa(dp2000
S'block.thisTrialN'
p2001
I0
sS'stim.thisTrialN'
p2002
I14
sS'block.thisRepN'
p2003
I1
sg1678
g1679
sS'stim.thisIndex'
p2004
g35
(g70
S'\x0e\x00\x00\x00'
p2005
tp2006
Rp2007
sg34
g44
sS'block.thisN'
p2008
I1
sS'stim.thisN'
p2009
I14
sg1686
g1687
sg1688
g1689
sg21
g22
sg30
g33
sS'trials.thisIndex'
p2010
g1693
sS'stim.thisRepN'
p2011
I0
sg23
g28
sg1695
g958
sS'trials.thisRepN'
p2012
I0
sS'trials.thisN'
p2013
I0
sg1698
g35
(g90
S'\x0f\x00\x00\x00\x00\x00\x00\x00'
p2014
tp2015
Rp2016
sg29
g11
sS'trials.thisTrialN'
p2017
I0
sS'block.thisIndex'
p2018
g1706
sg1707
g35
(g90
S'\x05\x00\x00\x00\x00\x00\x00\x00'
p2019
tp2020
Rp2021
sa(dp2022
S'block.thisTrialN'
p2023
I0
sS'stim.thisTrialN'
p2024
I15
sS'block.thisRepN'
p2025
I1
sg1678
g1679
sS'stim.thisIndex'
p2026
g35
(g70
S'\x0f\x00\x00\x00'
p2027
tp2028
Rp2029
sg34
g44
sS'block.thisN'
p2030
I1
sS'stim.thisN'
p2031
I15
sg1686
g1687
sg1688
g1689
sg21
g22
sg30
g33
sS'trials.thisIndex'
p2032
g1693
sS'stim.thisRepN'
p2033
I0
sg23
g28
sg1695
g371
sS'trials.thisRepN'
p2034
I0
sS'trials.thisN'
p2035
I0
sg1698
g35
(g90
S'\x10\x00\x00\x00\x00\x00\x00\x00'
p2036
tp2037
Rp2038
sg29
g11
sS'trials.thisTrialN'
p2039
I0
sS'block.thisIndex'
p2040
g1706
sg1707
g35
(g90
S'\x05\x00\x00\x00\x00\x00\x00\x00'
p2041
tp2042
Rp2043
sa(dp2044
S'block.thisTrialN'
p2045
I0
sS'block.thisRepN'
p2046
I1
sg16
S'3'
p2047
sS'trials.thisRepN'
p2048
I0
sg15
F0.6996079511591233
sS'block.thisN'
p2049
I1
sg34
g44
sS'trials.thisN'
p2050
I0
sg14
S'1'
p2051
sg29
g11
sS'trials.thisTrialN'
p2052
I0
sg30
g33
sS'trials.thisIndex'
p2053
g1693
sg21
g22
sg23
g28
sS'block.thisIndex'
p2054
g1706
sg17
F0.10001318785361946
sa(dp2055
S'block.thisTrialN'
p2056
I0
sS'stim.thisTrialN'
p2057
I0
sS'block.thisRepN'
p2058
I1
sS'Tx'
p2059
Vt1
p2060
sS'stim.thisIndex'
p2061
g35
(g70
S'\x00\x00\x00\x00'
p2062
tp2063
Rp2064
sg34
g44
sS'block.thisN'
p2065
I1
sS'stim.thisN'
p2066
I0
sS'sep_dur'
p2067
Vshort
p2068
sS'cond'
p2069
Vdistractor
p2070
sg21
g22
sg30
g33
sS'trials.thisIndex'
p2071
g35
(g70
S'\x00\x00\x00\x00'
p2072
tp2073
Rp2074
sS'stim.thisRepN'
p2075
I0
sg23
g28
sS'stimulus'
p2076
g348
sS'trials.thisRepN'
p2077
I1
sS'trials.thisN'
p2078
I1
sS'trial'
p2079
g35
(g90
S'\x01\x00\x00\x00\x00\x00\x00\x00'
p2080
tp2081
Rp2082
sg29
g11
sS'trials.thisTrialN'
p2083
I0
sS'block.thisIndex'
p2084
g1706
sS'block'
p2085
g35
(g90
S'\x06\x00\x00\x00\x00\x00\x00\x00'
p2086
tp2087
Rp2088
sa(dp2089
S'block.thisTrialN'
p2090
I0
sS'stim.thisTrialN'
p2091
I1
sS'block.thisRepN'
p2092
I1
sg2059
g2060
sS'stim.thisIndex'
p2093
g35
(g70
S'\x01\x00\x00\x00'
p2094
tp2095
Rp2096
sg34
g44
sS'block.thisN'
p2097
I1
sS'stim.thisN'
p2098
I1
sg2067
g2068
sg2069
g2070
sg21
g22
sg30
g33
sS'trials.thisIndex'
p2099
g2074
sS'stim.thisRepN'
p2100
I0
sg23
g28
sg2076
g348
sS'trials.thisRepN'
p2101
I1
sS'trials.thisN'
p2102
I1
sg2079
g35
(g90
S'\x02\x00\x00\x00\x00\x00\x00\x00'
p2103
tp2104
Rp2105
sg29
g11
sS'trials.thisTrialN'
p2106
I0
sS'block.thisIndex'
p2107
g1706
sg2085
g35
(g90
S'\x06\x00\x00\x00\x00\x00\x00\x00'
p2108
tp2109
Rp2110
sa(dp2111
S'block.thisTrialN'
p2112
I0
sS'stim.thisTrialN'
p2113
I2
sS'block.thisRepN'
p2114
I1
sg2059
g2060
sS'stim.thisIndex'
p2115
g35
(g70
S'\x02\x00\x00\x00'
p2116
tp2117
Rp2118
sg34
g44
sS'block.thisN'
p2119
I1
sS'stim.thisN'
p2120
I2
sg2067
g2068
sg2069
g2070
sg21
g22
sg30
g33
sS'trials.thisIndex'
p2121
g2074
sS'stim.thisRepN'
p2122
I0
sg23
g28
sg2076
g1469
sS'trials.thisRepN'
p2123
I1
sS'trials.thisN'
p2124
I1
sg2079
g35
(g90
S'\x03\x00\x00\x00\x00\x00\x00\x00'
p2125
tp2126
Rp2127
sg29
g11
sS'trials.thisTrialN'
p2128
I0
sS'block.thisIndex'
p2129
g1706
sg2085
g35
(g90
S'\x06\x00\x00\x00\x00\x00\x00\x00'
p2130
tp2131
Rp2132
sa(dp2133
S'block.thisTrialN'
p2134
I0
sS'stim.thisTrialN'
p2135
I3
sS'block.thisRepN'
p2136
I1
sg2059
g2060
sS'stim.thisIndex'
p2137
g35
(g70
S'\x03\x00\x00\x00'
p2138
tp2139
Rp2140
sg34
g44
sS'block.thisN'
p2141
I1
sS'stim.thisN'
p2142
I3
sg2067
g2068
sg2069
g2070
sg21
g22
sg30
g33
sS'trials.thisIndex'
p2143
g2074
sS'stim.thisRepN'
p2144
I0
sg23
g28
sg2076
g1469
sS'trials.thisRepN'
p2145
I1
sS'trials.thisN'
p2146
I1
sg2079
g35
(g90
S'\x04\x00\x00\x00\x00\x00\x00\x00'
p2147
tp2148
Rp2149
sg29
g11
sS'trials.thisTrialN'
p2150
I0
sS'block.thisIndex'
p2151
g1706
sg2085
g35
(g90
S'\x06\x00\x00\x00\x00\x00\x00\x00'
p2152
tp2153
Rp2154
sa(dp2155
S'block.thisTrialN'
p2156
I0
sS'stim.thisTrialN'
p2157
I4
sS'block.thisRepN'
p2158
I1
sg2059
g2060
sS'stim.thisIndex'
p2159
g35
(g70
S'\x04\x00\x00\x00'
p2160
tp2161
Rp2162
sg34
g44
sS'block.thisN'
p2163
I1
sS'stim.thisN'
p2164
I4
sg2067
g2068
sg2069
g2070
sg21
g22
sg30
g33
sS'trials.thisIndex'
p2165
g2074
sS'stim.thisRepN'
p2166
I0
sg23
g28
sg2076
g439
sS'trials.thisRepN'
p2167
I1
sS'trials.thisN'
p2168
I1
sg2079
g35
(g90
S'\x05\x00\x00\x00\x00\x00\x00\x00'
p2169
tp2170
Rp2171
sg29
g11
sS'trials.thisTrialN'
p2172
I0
sS'block.thisIndex'
p2173
g1706
sg2085
g35
(g90
S'\x06\x00\x00\x00\x00\x00\x00\x00'
p2174
tp2175
Rp2176
sa(dp2177
S'block.thisTrialN'
p2178
I0
sS'stim.thisTrialN'
p2179
I5
sS'block.thisRepN'
p2180
I1
sg2059
g2060
sS'stim.thisIndex'
p2181
g35
(g70
S'\x05\x00\x00\x00'
p2182
tp2183
Rp2184
sg34
g44
sS'block.thisN'
p2185
I1
sS'stim.thisN'
p2186
I5
sg2067
g2068
sg2069
g2070
sg21
g22
sg30
g33
sS'trials.thisIndex'
p2187
g2074
sS'stim.thisRepN'
p2188
I0
sg23
g28
sg2076
g1469
sS'trials.thisRepN'
p2189
I1
sS'trials.thisN'
p2190
I1
sg2079
g35
(g90
S'\x06\x00\x00\x00\x00\x00\x00\x00'
p2191
tp2192
Rp2193
sg29
g11
sS'trials.thisTrialN'
p2194
I0
sS'block.thisIndex'
p2195
g1706
sg2085
g35
(g90
S'\x06\x00\x00\x00\x00\x00\x00\x00'
p2196
tp2197
Rp2198
sa(dp2199
S'block.thisTrialN'
p2200
I0
sS'stim.thisTrialN'
p2201
I6
sS'block.thisRepN'
p2202
I1
sg2059
g2060
sS'stim.thisIndex'
p2203
g35
(g70
S'\x06\x00\x00\x00'
p2204
tp2205
Rp2206
sg34
g44
sS'block.thisN'
p2207
I1
sS'stim.thisN'
p2208
I6
sg2067
g2068
sg2069
Vtarget
p2209
sg21
g22
sg30
g33
sS'trials.thisIndex'
p2210
g2074
sS'stim.thisRepN'
p2211
I0
sg23
g28
sg2076
g117
sS'trials.thisRepN'
p2212
I1
sS'trials.thisN'
p2213
I1
sg2079
g35
(g90
S'\x07\x00\x00\x00\x00\x00\x00\x00'
p2214
tp2215
Rp2216
sg29
g11
sS'trials.thisTrialN'
p2217
I0
sS'block.thisIndex'
p2218
g1706
sg2085
g35
(g90
S'\x06\x00\x00\x00\x00\x00\x00\x00'
p2219
tp2220
Rp2221
sa(dp2222
S'block.thisTrialN'
p2223
I0
sS'stim.thisTrialN'
p2224
I7
sS'block.thisRepN'
p2225
I1
sg2059
g2060
sS'stim.thisIndex'
p2226
g35
(g70
S'\x07\x00\x00\x00'
p2227
tp2228
Rp2229
sg34
g44
sS'block.thisN'
p2230
I1
sS'stim.thisN'
p2231
I7
sg2067
g2068
sg2069
g2070
sg21
g22
sg30
g33
sS'trials.thisIndex'
p2232
g2074
sS'stim.thisRepN'
p2233
I0
sg23
g28
sg2076
g958
sS'trials.thisRepN'
p2234
I1
sS'trials.thisN'
p2235
I1
sg2079
g35
(g90
S'\x08\x00\x00\x00\x00\x00\x00\x00'
p2236
tp2237
Rp2238
sg29
g11
sS'trials.thisTrialN'
p2239
I0
sS'block.thisIndex'
p2240
g1706
sg2085
g35
(g90
S'\x06\x00\x00\x00\x00\x00\x00\x00'
p2241
tp2242
Rp2243
sa(dp2244
S'block.thisTrialN'
p2245
I0
sS'stim.thisTrialN'
p2246
I8
sS'block.thisRepN'
p2247
I1
sg2059
g2060
sS'stim.thisIndex'
p2248
g35
(g70
S'\x08\x00\x00\x00'
p2249
tp2250
Rp2251
sg34
g44
sS'block.thisN'
p2252
I1
sS'stim.thisN'
p2253
I8
sg2067
g2068
sg2069
g2070
sg21
g22
sg30
g33
sS'trials.thisIndex'
p2254
g2074
sS'stim.thisRepN'
p2255
I0
sg23
g28
sg2076
g846
sS'trials.thisRepN'
p2256
I1
sS'trials.thisN'
p2257
I1
sg2079
g35
(g90
S'\t\x00\x00\x00\x00\x00\x00\x00'
p2258
tp2259
Rp2260
sg29
g11
sS'trials.thisTrialN'
p2261
I0
sS'block.thisIndex'
p2262
g1706
sg2085
g35
(g90
S'\x06\x00\x00\x00\x00\x00\x00\x00'
p2263
tp2264
Rp2265
sa(dp2266
S'block.thisTrialN'
p2267
I0
sS'stim.thisTrialN'
p2268
I9
sS'block.thisRepN'
p2269
I1
sg2059
g2060
sS'stim.thisIndex'
p2270
g35
(g70
S'\t\x00\x00\x00'
p2271
tp2272
Rp2273
sg34
g44
sS'block.thisN'
p2274
I1
sS'stim.thisN'
p2275
I9
sg2067
g2068
sg2069
g2070
sg21
g22
sg30
g33
sS'trials.thisIndex'
p2276
g2074
sS'stim.thisRepN'
p2277
I0
sg23
g28
sg2076
g573
sS'trials.thisRepN'
p2278
I1
sS'trials.thisN'
p2279
I1
sg2079
g35
(g90
S'\n\x00\x00\x00\x00\x00\x00\x00'
p2280
tp2281
Rp2282
sg29
g11
sS'trials.thisTrialN'
p2283
I0
sS'block.thisIndex'
p2284
g1706
sg2085
g35
(g90
S'\x06\x00\x00\x00\x00\x00\x00\x00'
p2285
tp2286
Rp2287
sa(dp2288
S'block.thisTrialN'
p2289
I0
sS'stim.thisTrialN'
p2290
I10
sS'block.thisRepN'
p2291
I1
sg2059
g2060
sS'stim.thisIndex'
p2292
g35
(g70
S'\n\x00\x00\x00'
p2293
tp2294
Rp2295
sg34
g44
sS'block.thisN'
p2296
I1
sS'stim.thisN'
p2297
I10
sg2067
g2068
sg2069
g2070
sg21
g22
sg30
g33
sS'trials.thisIndex'
p2298
g2074
sS'stim.thisRepN'
p2299
I0
sg23
g28
sg2076
g85
sS'trials.thisRepN'
p2300
I1
sS'trials.thisN'
p2301
I1
sg2079
g35
(g90
S'\x0b\x00\x00\x00\x00\x00\x00\x00'
p2302
tp2303
Rp2304
sg29
g11
sS'trials.thisTrialN'
p2305
I0
sS'block.thisIndex'
p2306
g1706
sg2085
g35
(g90
S'\x06\x00\x00\x00\x00\x00\x00\x00'
p2307
tp2308
Rp2309
sa(dp2310
S'block.thisTrialN'
p2311
I0
sS'stim.thisTrialN'
p2312
I11
sS'block.thisRepN'
p2313
I1
sg2059
g2060
sS'stim.thisIndex'
p2314
g35
(g70
S'\x0b\x00\x00\x00'
p2315
tp2316
Rp2317
sg34
g44
sS'block.thisN'
p2318
I1
sS'stim.thisN'
p2319
I11
sg2067
g2068
sg2069
Vmask
p2320
sg21
g22
sg30
g33
sS'trials.thisIndex'
p2321
g2074
sS'stim.thisRepN'
p2322
I0
sg23
g28
sg2076
g233
sS'trials.thisRepN'
p2323
I1
sS'trials.thisN'
p2324
I1
sg2079
g35
(g90
S'\x0c\x00\x00\x00\x00\x00\x00\x00'
p2325
tp2326
Rp2327
sg29
g11
sS'trials.thisTrialN'
p2328
I0
sS'block.thisIndex'
p2329
g1706
sg2085
g35
(g90
S'\x06\x00\x00\x00\x00\x00\x00\x00'
p2330
tp2331
Rp2332
sa(dp2333
S'block.thisTrialN'
p2334
I0
sS'stim.thisTrialN'
p2335
I12
sS'block.thisRepN'
p2336
I1
sg2059
g2060
sS'stim.thisIndex'
p2337
g35
(g70
S'\x0c\x00\x00\x00'
p2338
tp2339
Rp2340
sg34
g44
sS'block.thisN'
p2341
I1
sS'stim.thisN'
p2342
I12
sg2067
g2068
sg2069
g2070
sg21
g22
sg30
g33
sS'trials.thisIndex'
p2343
g2074
sS'stim.thisRepN'
p2344
I0
sg23
g28
sg2076
g1180
sS'trials.thisRepN'
p2345
I1
sS'trials.thisN'
p2346
I1
sg2079
g35
(g90
S'\r\x00\x00\x00\x00\x00\x00\x00'
p2347
tp2348
Rp2349
sg29
g11
sS'trials.thisTrialN'
p2350
I0
sS'block.thisIndex'
p2351
g1706
sg2085
g35
(g90
S'\x06\x00\x00\x00\x00\x00\x00\x00'
p2352
tp2353
Rp2354
sa(dp2355
S'block.thisTrialN'
p2356
I0
sS'stim.thisTrialN'
p2357
I13
sS'block.thisRepN'
p2358
I1
sg2059
g2060
sS'stim.thisIndex'
p2359
g35
(g70
S'\r\x00\x00\x00'
p2360
tp2361
Rp2362
sg34
g44
sS'block.thisN'
p2363
I1
sS'stim.thisN'
p2364
I13
sg2067
g2068
sg2069
g2070
sg21
g22
sg30
g33
sS'trials.thisIndex'
p2365
g2074
sS'stim.thisRepN'
p2366
I0
sg23
g28
sg2076
g85
sS'trials.thisRepN'
p2367
I1
sS'trials.thisN'
p2368
I1
sg2079
g35
(g90
S'\x0e\x00\x00\x00\x00\x00\x00\x00'
p2369
tp2370
Rp2371
sg29
g11
sS'trials.thisTrialN'
p2372
I0
sS'block.thisIndex'
p2373
g1706
sg2085
g35
(g90
S'\x06\x00\x00\x00\x00\x00\x00\x00'
p2374
tp2375
Rp2376
sa(dp2377
S'block.thisTrialN'
p2378
I0
sS'stim.thisTrialN'
p2379
I14
sS'block.thisRepN'
p2380
I1
sg2059
g2060
sS'stim.thisIndex'
p2381
g35
(g70
S'\x0e\x00\x00\x00'
p2382
tp2383
Rp2384
sg34
g44
sS'block.thisN'
p2385
I1
sS'stim.thisN'
p2386
I14
sg2067
g2068
sg2069
g2070
sg21
g22
sg30
g33
sS'trials.thisIndex'
p2387
g2074
sS'stim.thisRepN'
p2388
I0
sg23
g28
sg2076
g439
sS'trials.thisRepN'
p2389
I1
sS'trials.thisN'
p2390
I1
sg2079
g35
(g90
S'\x0f\x00\x00\x00\x00\x00\x00\x00'
p2391
tp2392
Rp2393
sg29
g11
sS'trials.thisTrialN'
p2394
I0
sS'block.thisIndex'
p2395
g1706
sg2085
g35
(g90
S'\x06\x00\x00\x00\x00\x00\x00\x00'
p2396
tp2397
Rp2398
sa(dp2399
S'block.thisTrialN'
p2400
I0
sS'block.thisRepN'
p2401
I1
sg16
g2047
sS'trials.thisRepN'
p2402
I1
sg15
F1.0502497457200661
sS'block.thisN'
p2403
I1
sg34
g44
sS'trials.thisN'
p2404
I1
sg14
g2051
sg29
g11
sS'trials.thisTrialN'
p2405
I0
sg30
g33
sS'trials.thisIndex'
p2406
g2074
sg21
g22
sg23
g28
sS'block.thisIndex'
p2407
g1706
sg17
F0.201576437917538
sa(dp2408
S'block.thisTrialN'
p2409
I0
sS'stim.thisTrialN'
p2410
I0
sS'block.thisRepN'
p2411
I1
sS'Tx'
p2412
Vt1
p2413
sS'stim.thisIndex'
p2414
g35
(g70
S'\x00\x00\x00\x00'
p2415
tp2416
Rp2417
sg34
g44
sS'block.thisN'
p2418
I1
sS'stim.thisN'
p2419
I0
sS'sep_dur'
p2420
Vshort
p2421
sS'cond'
p2422
Vdistractor
p2423
sg21
g22
sg30
g33
sS'trials.thisIndex'
p2424
g35
(g70
S'\x00\x00\x00\x00'
p2425
tp2426
Rp2427
sS'stim.thisRepN'
p2428
I0
sg23
g28
sS'stimulus'
p2429
g439
sS'trials.thisRepN'
p2430
I2
sS'trials.thisN'
p2431
I2
sS'trial'
p2432
g35
(g90
S'\x01\x00\x00\x00\x00\x00\x00\x00'
p2433
tp2434
Rp2435
sg29
g11
sS'trials.thisTrialN'
p2436
I0
sS'block.thisIndex'
p2437
g1706
sS'block'
p2438
g35
(g90
S'\x07\x00\x00\x00\x00\x00\x00\x00'
p2439
tp2440
Rp2441
sa(dp2442
S'block.thisTrialN'
p2443
I0
sS'stim.thisTrialN'
p2444
I1
sS'block.thisRepN'
p2445
I1
sg2412
g2413
sS'stim.thisIndex'
p2446
g35
(g70
S'\x01\x00\x00\x00'
p2447
tp2448
Rp2449
sg34
g44
sS'block.thisN'
p2450
I1
sS'stim.thisN'
p2451
I1
sg2420
g2421
sg2422
g2423
sg21
g22
sg30
g33
sS'trials.thisIndex'
p2452
g2427
sS'stim.thisRepN'
p2453
I0
sg23
g28
sg2429
g958
sS'trials.thisRepN'
p2454
I2
sS'trials.thisN'
p2455
I2
sg2432
g35
(g90
S'\x02\x00\x00\x00\x00\x00\x00\x00'
p2456
tp2457
Rp2458
sg29
g11
sS'trials.thisTrialN'
p2459
I0
sS'block.thisIndex'
p2460
g1706
sg2438
g35
(g90
S'\x07\x00\x00\x00\x00\x00\x00\x00'
p2461
tp2462
Rp2463
sa(dp2464
S'block.thisTrialN'
p2465
I0
sS'stim.thisTrialN'
p2466
I2
sS'block.thisRepN'
p2467
I1
sg2412
g2413
sS'stim.thisIndex'
p2468
g35
(g70
S'\x02\x00\x00\x00'
p2469
tp2470
Rp2471
sg34
g44
sS'block.thisN'
p2472
I1
sS'stim.thisN'
p2473
I2
sg2420
g2421
sg2422
g2423
sg21
g22
sg30
g33
sS'trials.thisIndex'
p2474
g2427
sS'stim.thisRepN'
p2475
I0
sg23
g28
sg2429
g186
sS'trials.thisRepN'
p2476
I2
sS'trials.thisN'
p2477
I2
sg2432
g35
(g90
S'\x03\x00\x00\x00\x00\x00\x00\x00'
p2478
tp2479
Rp2480
sg29
g11
sS'trials.thisTrialN'
p2481
I0
sS'block.thisIndex'
p2482
g1706
sg2438
g35
(g90
S'\x07\x00\x00\x00\x00\x00\x00\x00'
p2483
tp2484
Rp2485
sa(dp2486
S'block.thisTrialN'
p2487
I0
sS'stim.thisTrialN'
p2488
I3
sS'block.thisRepN'
p2489
I1
sg2412
g2413
sS'stim.thisIndex'
p2490
g35
(g70
S'\x03\x00\x00\x00'
p2491
tp2492
Rp2493
sg34
g44
sS'block.thisN'
p2494
I1
sS'stim.thisN'
p2495
I3
sg2420
g2421
sg2422
g2423
sg21
g22
sg30
g33
sS'trials.thisIndex'
p2496
g2427
sS'stim.thisRepN'
p2497
I0
sg23
g28
sg2429
g689
sS'trials.thisRepN'
p2498
I2
sS'trials.thisN'
p2499
I2
sg2432
g35
(g90
S'\x04\x00\x00\x00\x00\x00\x00\x00'
p2500
tp2501
Rp2502
sg29
g11
sS'trials.thisTrialN'
p2503
I0
sS'block.thisIndex'
p2504
g1706
sg2438
g35
(g90
S'\x07\x00\x00\x00\x00\x00\x00\x00'
p2505
tp2506
Rp2507
sa(dp2508
S'block.thisTrialN'
p2509
I0
sS'stim.thisTrialN'
p2510
I4
sS'block.thisRepN'
p2511
I1
sg2412
g2413
sS'stim.thisIndex'
p2512
g35
(g70
S'\x04\x00\x00\x00'
p2513
tp2514
Rp2515
sg34
g44
sS'block.thisN'
p2516
I1
sS'stim.thisN'
p2517
I4
sg2420
g2421
sg2422
g2423
sg21
g22
sg30
g33
sS'trials.thisIndex'
p2518
g2427
sS'stim.thisRepN'
p2519
I0
sg23
g28
sg2429
g325
sS'trials.thisRepN'
p2520
I2
sS'trials.thisN'
p2521
I2
sg2432
g35
(g90
S'\x05\x00\x00\x00\x00\x00\x00\x00'
p2522
tp2523
Rp2524
sg29
g11
sS'trials.thisTrialN'
p2525
I0
sS'block.thisIndex'
p2526
g1706
sg2438
g35
(g90
S'\x07\x00\x00\x00\x00\x00\x00\x00'
p2527
tp2528
Rp2529
sa(dp2530
S'block.thisTrialN'
p2531
I0
sS'stim.thisTrialN'
p2532
I5
sS'block.thisRepN'
p2533
I1
sg2412
g2413
sS'stim.thisIndex'
p2534
g35
(g70
S'\x05\x00\x00\x00'
p2535
tp2536
Rp2537
sg34
g44
sS'block.thisN'
p2538
I1
sS'stim.thisN'
p2539
I5
sg2420
g2421
sg2422
g2423
sg21
g22
sg30
g33
sS'trials.thisIndex'
p2540
g2427
sS'stim.thisRepN'
p2541
I0
sg23
g28
sg2429
g348
sS'trials.thisRepN'
p2542
I2
sS'trials.thisN'
p2543
I2
sg2432
g35
(g90
S'\x06\x00\x00\x00\x00\x00\x00\x00'
p2544
tp2545
Rp2546
sg29
g11
sS'trials.thisTrialN'
p2547
I0
sS'block.thisIndex'
p2548
g1706
sg2438
g35
(g90
S'\x07\x00\x00\x00\x00\x00\x00\x00'
p2549
tp2550
Rp2551
sa(dp2552
S'block.thisTrialN'
p2553
I0
sS'stim.thisTrialN'
p2554
I6
sS'block.thisRepN'
p2555
I1
sg2412
g2413
sS'stim.thisIndex'
p2556
g35
(g70
S'\x06\x00\x00\x00'
p2557
tp2558
Rp2559
sg34
g44
sS'block.thisN'
p2560
I1
sS'stim.thisN'
p2561
I6
sg2420
g2421
sg2422
g2423
sg21
g22
sg30
g33
sS'trials.thisIndex'
p2562
g2427
sS'stim.thisRepN'
p2563
I0
sg23
g28
sg2429
g348
sS'trials.thisRepN'
p2564
I2
sS'trials.thisN'
p2565
I2
sg2432
g35
(g90
S'\x07\x00\x00\x00\x00\x00\x00\x00'
p2566
tp2567
Rp2568
sg29
g11
sS'trials.thisTrialN'
p2569
I0
sS'block.thisIndex'
p2570
g1706
sg2438
g35
(g90
S'\x07\x00\x00\x00\x00\x00\x00\x00'
p2571
tp2572
Rp2573
sa(dp2574
S'block.thisTrialN'
p2575
I0
sS'stim.thisTrialN'
p2576
I7
sS'block.thisRepN'
p2577
I1
sg2412
g2413
sS'stim.thisIndex'
p2578
g35
(g70
S'\x07\x00\x00\x00'
p2579
tp2580
Rp2581
sg34
g44
sS'block.thisN'
p2582
I1
sS'stim.thisN'
p2583
I7
sg2420
g2421
sg2422
Vtarget
p2584
sg21
g22
sg30
g33
sS'trials.thisIndex'
p2585
g2427
sS'stim.thisRepN'
p2586
I0
sg23
g28
sg2429
g823
sS'trials.thisRepN'
p2587
I2
sS'trials.thisN'
p2588
I2
sg2432
g35
(g90
S'\x08\x00\x00\x00\x00\x00\x00\x00'
p2589
tp2590
Rp2591
sg29
g11
sS'trials.thisTrialN'
p2592
I0
sS'block.thisIndex'
p2593
g1706
sg2438
g35
(g90
S'\x07\x00\x00\x00\x00\x00\x00\x00'
p2594
tp2595
Rp2596
sa(dp2597
S'block.thisTrialN'
p2598
I0
sS'stim.thisTrialN'
p2599
I8
sS'block.thisRepN'
p2600
I1
sg2412
g2413
sS'stim.thisIndex'
p2601
g35
(g70
S'\x08\x00\x00\x00'
p2602
tp2603
Rp2604
sg34
g44
sS'block.thisN'
p2605
I1
sS'stim.thisN'
p2606
I8
sg2420
g2421
sg2422
g2423
sg21
g22
sg30
g33
sS'trials.thisIndex'
p2607
g2427
sS'stim.thisRepN'
p2608
I0
sg23
g28
sg2429
g666
sS'trials.thisRepN'
p2609
I2
sS'trials.thisN'
p2610
I2
sg2432
g35
(g90
S'\t\x00\x00\x00\x00\x00\x00\x00'
p2611
tp2612
Rp2613
sg29
g11
sS'trials.thisTrialN'
p2614
I0
sS'block.thisIndex'
p2615
g1706
sg2438
g35
(g90
S'\x07\x00\x00\x00\x00\x00\x00\x00'
p2616
tp2617
Rp2618
sa(dp2619
S'block.thisTrialN'
p2620
I0
sS'stim.thisTrialN'
p2621
I9
sS'block.thisRepN'
p2622
I1
sg2412
g2413
sS'stim.thisIndex'
p2623
g35
(g70
S'\t\x00\x00\x00'
p2624
tp2625
Rp2626
sg34
g44
sS'block.thisN'
p2627
I1
sS'stim.thisN'
p2628
I9
sg2420
g2421
sg2422
g2423
sg21
g22
sg30
g33
sS'trials.thisIndex'
p2629
g2427
sS'stim.thisRepN'
p2630
I0
sg23
g28
sg2429
g689
sS'trials.thisRepN'
p2631
I2
sS'trials.thisN'
p2632
I2
sg2432
g35
(g90
S'\n\x00\x00\x00\x00\x00\x00\x00'
p2633
tp2634
Rp2635
sg29
g11
sS'trials.thisTrialN'
p2636
I0
sS'block.thisIndex'
p2637
g1706
sg2438
g35
(g90
S'\x07\x00\x00\x00\x00\x00\x00\x00'
p2638
tp2639
Rp2640
sa(dp2641
S'block.thisTrialN'
p2642
I0
sS'stim.thisTrialN'
p2643
I10
sS'block.thisRepN'
p2644
I1
sg2412
g2413
sS'stim.thisIndex'
p2645
g35
(g70
S'\n\x00\x00\x00'
p2646
tp2647
Rp2648
sg34
g44
sS'block.thisN'
p2649
I1
sS'stim.thisN'
p2650
I10
sg2420
g2421
sg2422
g2423
sg21
g22
sg30
g33
sS'trials.thisIndex'
p2651
g2427
sS'stim.thisRepN'
p2652
I0
sg23
g28
sg2429
g302
sS'trials.thisRepN'
p2653
I2
sS'trials.thisN'
p2654
I2
sg2432
g35
(g90
S'\x0b\x00\x00\x00\x00\x00\x00\x00'
p2655
tp2656
Rp2657
sg29
g11
sS'trials.thisTrialN'
p2658
I0
sS'block.thisIndex'
p2659
g1706
sg2438
g35
(g90
S'\x07\x00\x00\x00\x00\x00\x00\x00'
p2660
tp2661
Rp2662
sa(dp2663
S'block.thisTrialN'
p2664
I0
sS'stim.thisTrialN'
p2665
I11
sS'block.thisRepN'
p2666
I1
sg2412
g2413
sS'stim.thisIndex'
p2667
g35
(g70
S'\x0b\x00\x00\x00'
p2668
tp2669
Rp2670
sg34
g44
sS'block.thisN'
p2671
I1
sS'stim.thisN'
p2672
I11
sg2420
g2421
sg2422
g2423
sg21
g22
sg30
g33
sS'trials.thisIndex'
p2673
g2427
sS'stim.thisRepN'
p2674
I0
sg23
g28
sg2429
g371
sS'trials.thisRepN'
p2675
I2
sS'trials.thisN'
p2676
I2
sg2432
g35
(g90
S'\x0c\x00\x00\x00\x00\x00\x00\x00'
p2677
tp2678
Rp2679
sg29
g11
sS'trials.thisTrialN'
p2680
I0
sS'block.thisIndex'
p2681
g1706
sg2438
g35
(g90
S'\x07\x00\x00\x00\x00\x00\x00\x00'
p2682
tp2683
Rp2684
sa(dp2685
S'block.thisTrialN'
p2686
I0
sS'stim.thisTrialN'
p2687
I12
sS'block.thisRepN'
p2688
I1
sg2412
g2413
sS'stim.thisIndex'
p2689
g35
(g70
S'\x0c\x00\x00\x00'
p2690
tp2691
Rp2692
sg34
g44
sS'block.thisN'
p2693
I1
sS'stim.thisN'
p2694
I12
sg2420
g2421
sg2422
Vmask
p2695
sg21
g22
sg30
g33
sS'trials.thisIndex'
p2696
g2427
sS'stim.thisRepN'
p2697
I0
sg23
g28
sg2429
g233
sS'trials.thisRepN'
p2698
I2
sS'trials.thisN'
p2699
I2
sg2432
g35
(g90
S'\r\x00\x00\x00\x00\x00\x00\x00'
p2700
tp2701
Rp2702
sg29
g11
sS'trials.thisTrialN'
p2703
I0
sS'block.thisIndex'
p2704
g1706
sg2438
g35
(g90
S'\x07\x00\x00\x00\x00\x00\x00\x00'
p2705
tp2706
Rp2707
sa(dp2708
S'block.thisTrialN'
p2709
I0
sS'stim.thisTrialN'
p2710
I13
sS'block.thisRepN'
p2711
I1
sg2412
g2413
sS'stim.thisIndex'
p2712
g35
(g70
S'\r\x00\x00\x00'
p2713
tp2714
Rp2715
sg34
g44
sS'block.thisN'
p2716
I1
sS'stim.thisN'
p2717
I13
sg2420
g2421
sg2422
g2423
sg21
g22
sg30
g33
sS'trials.thisIndex'
p2718
g2427
sS'stim.thisRepN'
p2719
I0
sg23
g28
sg2429
g1469
sS'trials.thisRepN'
p2720
I2
sS'trials.thisN'
p2721
I2
sg2432
g35
(g90
S'\x0e\x00\x00\x00\x00\x00\x00\x00'
p2722
tp2723
Rp2724
sg29
g11
sS'trials.thisTrialN'
p2725
I0
sS'block.thisIndex'
p2726
g1706
sg2438
g35
(g90
S'\x07\x00\x00\x00\x00\x00\x00\x00'
p2727
tp2728
Rp2729
sa(dp2730
S'block.thisTrialN'
p2731
I0
sS'stim.thisTrialN'
p2732
I14
sS'block.thisRepN'
p2733
I1
sg2412
g2413
sS'stim.thisIndex'
p2734
g35
(g70
S'\x0e\x00\x00\x00'
p2735
tp2736
Rp2737
sg34
g44
sS'block.thisN'
p2738
I1
sS'stim.thisN'
p2739
I14
sg2420
g2421
sg2422
g2423
sg21
g22
sg30
g33
sS'trials.thisIndex'
p2740
g2427
sS'stim.thisRepN'
p2741
I0
sg23
g28
sg2429
g371
sS'trials.thisRepN'
p2742
I2
sS'trials.thisN'
p2743
I2
sg2432
g35
(g90
S'\x0f\x00\x00\x00\x00\x00\x00\x00'
p2744
tp2745
Rp2746
sg29
g11
sS'trials.thisTrialN'
p2747
I0
sS'block.thisIndex'
p2748
g1706
sg2438
g35
(g90
S'\x07\x00\x00\x00\x00\x00\x00\x00'
p2749
tp2750
Rp2751
sa(dp2752
S'block.thisTrialN'
p2753
I0
sS'stim.thisTrialN'
p2754
I15
sS'block.thisRepN'
p2755
I1
sg2412
g2413
sS'stim.thisIndex'
p2756
g35
(g70
S'\x0f\x00\x00\x00'
p2757
tp2758
Rp2759
sg34
g44
sS'block.thisN'
p2760
I1
sS'stim.thisN'
p2761
I15
sg2420
g2421
sg2422
g2423
sg21
g22
sg30
g33
sS'trials.thisIndex'
p2762
g2427
sS'stim.thisRepN'
p2763
I0
sg23
g28
sg2429
g163
sS'trials.thisRepN'
p2764
I2
sS'trials.thisN'
p2765
I2
sg2432
g35
(g90
S'\x10\x00\x00\x00\x00\x00\x00\x00'
p2766
tp2767
Rp2768
sg29
g11
sS'trials.thisTrialN'
p2769
I0
sS'block.thisIndex'
p2770
g1706
sg2438
g35
(g90
S'\x07\x00\x00\x00\x00\x00\x00\x00'
p2771
tp2772
Rp2773
sa(dp2774
S'block.thisTrialN'
p2775
I0
sS'block.thisRepN'
p2776
I1
sg16
g498
sS'trials.thisRepN'
p2777
I2
sg15
F0.7994975025649182
sS'block.thisN'
p2778
I1
sg34
g44
sS'trials.thisN'
p2779
I2
sg14
g498
sg29
g11
sS'trials.thisTrialN'
p2780
I0
sg30
g33
sS'trials.thisIndex'
p2781
g2427
sg21
g22
sg23
g28
sS'block.thisIndex'
p2782
g1706
sg17
F1.2966562876827084
sa(dp2783
S'block.thisTrialN'
p2784
I0
sS'stim.thisTrialN'
p2785
I0
sS'block.thisRepN'
p2786
I1
sS'Tx'
p2787
Vt2
p2788
sS'stim.thisIndex'
p2789
g35
(g70
S'\x00\x00\x00\x00'
p2790
tp2791
Rp2792
sg34
g44
sS'block.thisN'
p2793
I1
sS'stim.thisN'
p2794
I0
sS'sep_dur'
p2795
Vlong
p2796
sS'cond'
p2797
Vtarget
p2798
sg21
g22
sg30
g33
sS'trials.thisIndex'
p2799
g35
(g70
S'\x00\x00\x00\x00'
p2800
tp2801
Rp2802
sS'stim.thisRepN'
p2803
I0
sg23
g28
sS'stimulus'
p2804
V3
p2805
sS'trials.thisRepN'
p2806
I3
sS'trials.thisN'
p2807
I3
sS'trial'
p2808
g35
(g90
S'\x01\x00\x00\x00\x00\x00\x00\x00'
p2809
tp2810
Rp2811
sg29
g11
sS'trials.thisTrialN'
p2812
I0
sS'block.thisIndex'
p2813
g1706
sS'block'
p2814
g35
(g90
S'\x08\x00\x00\x00\x00\x00\x00\x00'
p2815
tp2816
Rp2817
sa(dp2818
S'block.thisTrialN'
p2819
I0
sS'stim.thisTrialN'
p2820
I1
sS'block.thisRepN'
p2821
I1
sg2787
g2788
sS'stim.thisIndex'
p2822
g35
(g70
S'\x01\x00\x00\x00'
p2823
tp2824
Rp2825
sg34
g44
sS'block.thisN'
p2826
I1
sS'stim.thisN'
p2827
I1
sg2795
g2796
sg2797
Vdistractor
p2828
sg21
g22
sg30
g33
sS'trials.thisIndex'
p2829
g2802
sS'stim.thisRepN'
p2830
I0
sg23
g28
sg2804
g371
sS'trials.thisRepN'
p2831
I3
sS'trials.thisN'
p2832
I3
sg2808
g35
(g90
S'\x02\x00\x00\x00\x00\x00\x00\x00'
p2833
tp2834
Rp2835
sg29
g11
sS'trials.thisTrialN'
p2836
I0
sS'block.thisIndex'
p2837
g1706
sg2814
g35
(g90
S'\x08\x00\x00\x00\x00\x00\x00\x00'
p2838
tp2839
Rp2840
sa(dp2841
S'block.thisTrialN'
p2842
I0
sS'stim.thisTrialN'
p2843
I2
sS'block.thisRepN'
p2844
I1
sg2787
g2788
sS'stim.thisIndex'
p2845
g35
(g70
S'\x02\x00\x00\x00'
p2846
tp2847
Rp2848
sg34
g44
sS'block.thisN'
p2849
I1
sS'stim.thisN'
p2850
I2
sg2795
g2796
sg2797
g2828
sg21
g22
sg30
g33
sS'trials.thisIndex'
p2851
g2802
sS'stim.thisRepN'
p2852
I0
sg23
g28
sg2804
g439
sS'trials.thisRepN'
p2853
I3
sS'trials.thisN'
p2854
I3
sg2808
g35
(g90
S'\x03\x00\x00\x00\x00\x00\x00\x00'
p2855
tp2856
Rp2857
sg29
g11
sS'trials.thisTrialN'
p2858
I0
sS'block.thisIndex'
p2859
g1706
sg2814
g35
(g90
S'\x08\x00\x00\x00\x00\x00\x00\x00'
p2860
tp2861
Rp2862
sa(dp2863
S'block.thisTrialN'
p2864
I0
sS'stim.thisTrialN'
p2865
I3
sS'block.thisRepN'
p2866
I1
sg2787
g2788
sS'stim.thisIndex'
p2867
g35
(g70
S'\x03\x00\x00\x00'
p2868
tp2869
Rp2870
sg34
g44
sS'block.thisN'
p2871
I1
sS'stim.thisN'
p2872
I3
sg2795
g2796
sg2797
g2828
sg21
g22
sg30
g33
sS'trials.thisIndex'
p2873
g2802
sS'stim.thisRepN'
p2874
I0
sg23
g28
sg2804
g439
sS'trials.thisRepN'
p2875
I3
sS'trials.thisN'
p2876
I3
sg2808
g35
(g90
S'\x04\x00\x00\x00\x00\x00\x00\x00'
p2877
tp2878
Rp2879
sg29
g11
sS'trials.thisTrialN'
p2880
I0
sS'block.thisIndex'
p2881
g1706
sg2814
g35
(g90
S'\x08\x00\x00\x00\x00\x00\x00\x00'
p2882
tp2883
Rp2884
sa(dp2885
S'block.thisTrialN'
p2886
I0
sS'stim.thisTrialN'
p2887
I4
sS'block.thisRepN'
p2888
I1
sg2787
g2788
sS'stim.thisIndex'
p2889
g35
(g70
S'\x04\x00\x00\x00'
p2890
tp2891
Rp2892
sg34
g44
sS'block.thisN'
p2893
I1
sS'stim.thisN'
p2894
I4
sg2795
g2796
sg2797
g2828
sg21
g22
sg30
g33
sS'trials.thisIndex'
p2895
g2802
sS'stim.thisRepN'
p2896
I0
sg23
g28
sg2804
g85
sS'trials.thisRepN'
p2897
I3
sS'trials.thisN'
p2898
I3
sg2808
g35
(g90
S'\x05\x00\x00\x00\x00\x00\x00\x00'
p2899
tp2900
Rp2901
sg29
g11
sS'trials.thisTrialN'
p2902
I0
sS'block.thisIndex'
p2903
g1706
sg2814
g35
(g90
S'\x08\x00\x00\x00\x00\x00\x00\x00'
p2904
tp2905
Rp2906
sa(dp2907
S'block.thisTrialN'
p2908
I0
sS'stim.thisTrialN'
p2909
I5
sS'block.thisRepN'
p2910
I1
sg2787
g2788
sS'stim.thisIndex'
p2911
g35
(g70
S'\x05\x00\x00\x00'
p2912
tp2913
Rp2914
sg34
g44
sS'block.thisN'
p2915
I1
sS'stim.thisN'
p2916
I5
sg2795
g2796
sg2797
g2828
sg21
g22
sg30
g33
sS'trials.thisIndex'
p2917
g2802
sS'stim.thisRepN'
p2918
I0
sg23
g28
sg2804
g712
sS'trials.thisRepN'
p2919
I3
sS'trials.thisN'
p2920
I3
sg2808
g35
(g90
S'\x06\x00\x00\x00\x00\x00\x00\x00'
p2921
tp2922
Rp2923
sg29
g11
sS'trials.thisTrialN'
p2924
I0
sS'block.thisIndex'
p2925
g1706
sg2814
g35
(g90
S'\x08\x00\x00\x00\x00\x00\x00\x00'
p2926
tp2927
Rp2928
sa(dp2929
S'block.thisTrialN'
p2930
I0
sS'stim.thisTrialN'
p2931
I6
sS'block.thisRepN'
p2932
I1
sg2787
g2788
sS'stim.thisIndex'
p2933
g35
(g70
S'\x06\x00\x00\x00'
p2934
tp2935
Rp2936
sg34
g44
sS'block.thisN'
p2937
I1
sS'stim.thisN'
p2938
I6
sg2795
g2796
sg2797
g2828
sg21
g22
sg30
g33
sS'trials.thisIndex'
p2939
g2802
sS'stim.thisRepN'
p2940
I0
sg23
g28
sg2804
g302
sS'trials.thisRepN'
p2941
I3
sS'trials.thisN'
p2942
I3
sg2808
g35
(g90
S'\x07\x00\x00\x00\x00\x00\x00\x00'
p2943
tp2944
Rp2945
sg29
g11
sS'trials.thisTrialN'
p2946
I0
sS'block.thisIndex'
p2947
g1706
sg2814
g35
(g90
S'\x08\x00\x00\x00\x00\x00\x00\x00'
p2948
tp2949
Rp2950
sa(dp2951
S'block.thisTrialN'
p2952
I0
sS'stim.thisTrialN'
p2953
I7
sS'block.thisRepN'
p2954
I1
sg2787
g2788
sS'stim.thisIndex'
p2955
g35
(g70
S'\x07\x00\x00\x00'
p2956
tp2957
Rp2958
sg34
g44
sS'block.thisN'
p2959
I1
sS'stim.thisN'
p2960
I7
sg2795
g2796
sg2797
g2828
sg21
g22
sg30
g33
sS'trials.thisIndex'
p2961
g2802
sS'stim.thisRepN'
p2962
I0
sg23
g28
sg2804
g643
sS'trials.thisRepN'
p2963
I3
sS'trials.thisN'
p2964
I3
sg2808
g35
(g90
S'\x08\x00\x00\x00\x00\x00\x00\x00'
p2965
tp2966
Rp2967
sg29
g11
sS'trials.thisTrialN'
p2968
I0
sS'block.thisIndex'
p2969
g1706
sg2814
g35
(g90
S'\x08\x00\x00\x00\x00\x00\x00\x00'
p2970
tp2971
Rp2972
sa(dp2973
S'block.thisTrialN'
p2974
I0
sS'stim.thisTrialN'
p2975
I8
sS'block.thisRepN'
p2976
I1
sg2787
g2788
sS'stim.thisIndex'
p2977
g35
(g70
S'\x08\x00\x00\x00'
p2978
tp2979
Rp2980
sg34
g44
sS'block.thisN'
p2981
I1
sS'stim.thisN'
p2982
I8
sg2795
g2796
sg2797
g2828
sg21
g22
sg30
g33
sS'trials.thisIndex'
p2983
g2802
sS'stim.thisRepN'
p2984
I0
sg23
g28
sg2804
g1469
sS'trials.thisRepN'
p2985
I3
sS'trials.thisN'
p2986
I3
sg2808
g35
(g90
S'\t\x00\x00\x00\x00\x00\x00\x00'
p2987
tp2988
Rp2989
sg29
g11
sS'trials.thisTrialN'
p2990
I0
sS'block.thisIndex'
p2991
g1706
sg2814
g35
(g90
S'\x08\x00\x00\x00\x00\x00\x00\x00'
p2992
tp2993
Rp2994
sa(dp2995
S'block.thisTrialN'
p2996
I0
sS'stim.thisTrialN'
p2997
I9
sS'block.thisRepN'
p2998
I1
sg2787
g2788
sS'stim.thisIndex'
p2999
g35
(g70
S'\t\x00\x00\x00'
p3000
tp3001
Rp3002
sg34
g44
sS'block.thisN'
p3003
I1
sS'stim.thisN'
p3004
I9
sg2795
g2796
sg2797
g2798
sg21
g22
sg30
g33
sS'trials.thisIndex'
p3005
g2802
sS'stim.thisRepN'
p3006
I0
sg23
g28
sg2804
V4
p3007
sS'trials.thisRepN'
p3008
I3
sS'trials.thisN'
p3009
I3
sg2808
g35
(g90
S'\n\x00\x00\x00\x00\x00\x00\x00'
p3010
tp3011
Rp3012
sg29
g11
sS'trials.thisTrialN'
p3013
I0
sS'block.thisIndex'
p3014
g1706
sg2814
g35
(g90
S'\x08\x00\x00\x00\x00\x00\x00\x00'
p3015
tp3016
Rp3017
sa(dp3018
S'block.thisTrialN'
p3019
I0
sS'stim.thisTrialN'
p3020
I10
sS'block.thisRepN'
p3021
I1
sg2787
g2788
sS'stim.thisIndex'
p3022
g35
(g70
S'\n\x00\x00\x00'
p3023
tp3024
Rp3025
sg34
g44
sS'block.thisN'
p3026
I1
sS'stim.thisN'
p3027
I10
sg2795
g2796
sg2797
g2828
sg21
g22
sg30
g33
sS'trials.thisIndex'
p3028
g2802
sS'stim.thisRepN'
p3029
I0
sg23
g28
sg2804
g209
sS'trials.thisRepN'
p3030
I3
sS'trials.thisN'
p3031
I3
sg2808
g35
(g90
S'\x0b\x00\x00\x00\x00\x00\x00\x00'
p3032
tp3033
Rp3034
sg29
g11
sS'trials.thisTrialN'
p3035
I0
sS'block.thisIndex'
p3036
g1706
sg2814
g35
(g90
S'\x08\x00\x00\x00\x00\x00\x00\x00'
p3037
tp3038
Rp3039
sa(dp3040
S'block.thisTrialN'
p3041
I0
sS'stim.thisTrialN'
p3042
I11
sS'block.thisRepN'
p3043
I1
sg2787
g2788
sS'stim.thisIndex'
p3044
g35
(g70
S'\x0b\x00\x00\x00'
p3045
tp3046
Rp3047
sg34
g44
sS'block.thisN'
p3048
I1
sS'stim.thisN'
p3049
I11
sg2795
g2796
sg2797
g2828
sg21
g22
sg30
g33
sS'trials.thisIndex'
p3050
g2802
sS'stim.thisRepN'
p3051
I0
sg23
g28
sg2804
g1811
sS'trials.thisRepN'
p3052
I3
sS'trials.thisN'
p3053
I3
sg2808
g35
(g90
S'\x0c\x00\x00\x00\x00\x00\x00\x00'
p3054
tp3055
Rp3056
sg29
g11
sS'trials.thisTrialN'
p3057
I0
sS'block.thisIndex'
p3058
g1706
sg2814
g35
(g90
S'\x08\x00\x00\x00\x00\x00\x00\x00'
p3059
tp3060
Rp3061
sa(dp3062
S'block.thisTrialN'
p3063
I0
sS'stim.thisTrialN'
p3064
I12
sS'block.thisRepN'
p3065
I1
sg2787
g2788
sS'stim.thisIndex'
p3066
g35
(g70
S'\x0c\x00\x00\x00'
p3067
tp3068
Rp3069
sg34
g44
sS'block.thisN'
p3070
I1
sS'stim.thisN'
p3071
I12
sg2795
g2796
sg2797
g2828
sg21
g22
sg30
g33
sS'trials.thisIndex'
p3072
g2802
sS'stim.thisRepN'
p3073
I0
sg23
g28
sg2804
g209
sS'trials.thisRepN'
p3074
I3
sS'trials.thisN'
p3075
I3
sg2808
g35
(g90
S'\r\x00\x00\x00\x00\x00\x00\x00'
p3076
tp3077
Rp3078
sg29
g11
sS'trials.thisTrialN'
p3079
I0
sS'block.thisIndex'
p3080
g1706
sg2814
g35
(g90
S'\x08\x00\x00\x00\x00\x00\x00\x00'
p3081
tp3082
Rp3083
sa(dp3084
S'block.thisTrialN'
p3085
I0
sS'stim.thisTrialN'
p3086
I13
sS'block.thisRepN'
p3087
I1
sg2787
g2788
sS'stim.thisIndex'
p3088
g35
(g70
S'\r\x00\x00\x00'
p3089
tp3090
Rp3091
sg34
g44
sS'block.thisN'
p3092
I1
sS'stim.thisN'
p3093
I13
sg2795
g2796
sg2797
g2828
sg21
g22
sg30
g33
sS'trials.thisIndex'
p3094
g2802
sS'stim.thisRepN'
p3095
I0
sg23
g28
sg2804
g279
sS'trials.thisRepN'
p3096
I3
sS'trials.thisN'
p3097
I3
sg2808
g35
(g90
S'\x0e\x00\x00\x00\x00\x00\x00\x00'
p3098
tp3099
Rp3100
sg29
g11
sS'trials.thisTrialN'
p3101
I0
sS'block.thisIndex'
p3102
g1706
sg2814
g35
(g90
S'\x08\x00\x00\x00\x00\x00\x00\x00'
p3103
tp3104
Rp3105
sa(dp3106
S'block.thisTrialN'
p3107
I0
sS'stim.thisTrialN'
p3108
I14
sS'block.thisRepN'
p3109
I1
sg2787
g2788
sS'stim.thisIndex'
p3110
g35
(g70
S'\x0e\x00\x00\x00'
p3111
tp3112
Rp3113
sg34
g44
sS'block.thisN'
p3114
I1
sS'stim.thisN'
p3115
I14
sg2795
g2796
sg2797
g2828
sg21
g22
sg30
g33
sS'trials.thisIndex'
p3116
g2802
sS'stim.thisRepN'
p3117
I0
sg23
g28
sg2804
g302
sS'trials.thisRepN'
p3118
I3
sS'trials.thisN'
p3119
I3
sg2808
g35
(g90
S'\x0f\x00\x00\x00\x00\x00\x00\x00'
p3120
tp3121
Rp3122
sg29
g11
sS'trials.thisTrialN'
p3123
I0
sS'block.thisIndex'
p3124
g1706
sg2814
g35
(g90
S'\x08\x00\x00\x00\x00\x00\x00\x00'
p3125
tp3126
Rp3127
sa(dp3128
S'block.thisTrialN'
p3129
I0
sS'stim.thisTrialN'
p3130
I15
sS'block.thisRepN'
p3131
I1
sg2787
g2788
sS'stim.thisIndex'
p3132
g35
(g70
S'\x0f\x00\x00\x00'
p3133
tp3134
Rp3135
sg34
g44
sS'block.thisN'
p3136
I1
sS'stim.thisN'
p3137
I15
sg2795
g2796
sg2797
g2828
sg21
g22
sg30
g33
sS'trials.thisIndex'
p3138
g2802
sS'stim.thisRepN'
p3139
I0
sg23
g28
sg2804
g573
sS'trials.thisRepN'
p3140
I3
sS'trials.thisN'
p3141
I3
sg2808
g35
(g90
S'\x10\x00\x00\x00\x00\x00\x00\x00'
p3142
tp3143
Rp3144
sg29
g11
sS'trials.thisTrialN'
p3145
I0
sS'block.thisIndex'
p3146
g1706
sg2814
g35
(g90
S'\x08\x00\x00\x00\x00\x00\x00\x00'
p3147
tp3148
Rp3149
sa(dp3150
S'block.thisTrialN'
p3151
I0
sS'stim.thisTrialN'
p3152
I16
sS'block.thisRepN'
p3153
I1
sg2787
g2788
sS'stim.thisIndex'
p3154
g35
(g70
S'\x10\x00\x00\x00'
p3155
tp3156
Rp3157
sg34
g44
sS'block.thisN'
p3158
I1
sS'stim.thisN'
p3159
I16
sg2795
g2796
sg2797
g2828
sg21
g22
sg30
g33
sS'trials.thisIndex'
p3160
g2802
sS'stim.thisRepN'
p3161
I0
sg23
g28
sg2804
g958
sS'trials.thisRepN'
p3162
I3
sS'trials.thisN'
p3163
I3
sg2808
g35
(g90
S'\x11\x00\x00\x00\x00\x00\x00\x00'
p3164
tp3165
Rp3166
sg29
g11
sS'trials.thisTrialN'
p3167
I0
sS'block.thisIndex'
p3168
g1706
sg2814
g35
(g90
S'\x08\x00\x00\x00\x00\x00\x00\x00'
p3169
tp3170
Rp3171
sa(dp3172
S'block.thisTrialN'
p3173
I0
sS'block.thisRepN'
p3174
I1
sg16
g882
sS'trials.thisRepN'
p3175
I3
sg15
F0.8690258123679087
sS'block.thisN'
p3176
I1
sg34
g44
sS'trials.thisN'
p3177
I3
sg14
g882
sg29
g11
sS'trials.thisTrialN'
p3178
I0
sg30
g33
sS'trials.thisIndex'
p3179
g2802
sg21
g22
sg23
g28
sS'block.thisIndex'
p3180
g1706
sg17
F0.1996801936184056
sa(dp3181
S'block.thisTrialN'
p3182
I0
sS'block.thisRepN'
p3183
I1
sg34
g44
sS'block.thisN'
p3184
I1
sg29
g11
sg30
g33
sg21
g22
sg23
g28
sS'block.thisIndex'
p3185
g1706
sasS'loops'
p3186
(lp3187
g0
(cpsychopy.data.trial
TrialHandler
p3188
g2
Ntp3189
Rp3190
(dp3191
S'origin'
p3192
NsS'thisTrial'
p3193
(lp3194
sS'_exp'
p3195
I549080304
sg10
S'block'
p3196
sg6
I-1
sS'thisRepN'
p3197
I2
sg18
I01
sg19
g20
sS'data'
p3198
g0
(cpsychopy.data.base
DataHandler
p3199
c__builtin__
dict
p3200
(dp3201
S'ran'
p3202
cnumpy.ma.core
_mareconstruct
p3203
(cnumpy.ma.core
MaskedArray
p3204
cnumpy
ndarray
p3205
(I0
tp3206
S'b'
p3207
tp3208
Rp3209
(I1
(I1
I2
tp3210
g36
(S'f4'
p3211
I0
I1
tp3212
Rp3213
(I3
S'<'
p3214
NNNI-1
I-1
I0
tp3215
bI00
S'\x00\x00\x80?\x00\x00\x80?'
p3216
S'\x00\x00'
p3217
Ntp3218
bsS'order'
p3219
g3203
(g3204
g3205
g3206
g3207
tp3220
Rp3221
(I1
(I1
I2
tp3222
g3213
I00
S'\x00\x00\x00\x00\x00\x00\x80?'
p3223
S'\x00\x00'
p3224
Ntp3225
bstp3226
Rp3227
(dp3228
S'isNumeric'
p3229
(dp3230
g3202
I01
sg3219
I01
ssS'trials'
p3231
g3190
sS'dataTypes'
p3232
(lp3233
g3202
ag3219
asS'dataShape'
p3234
(lp3235
I1
aI2
asbsS'method'
p3236
S'random'
p3237
sS'sequenceIndices'
p3238
cnumpy.core.multiarray
_reconstruct
p3239
(g3205
(I0
tp3240
g3207
tp3241
Rp3242
(I1
(I1
I2
tp3243
g70
I00
S'\x00\x00\x00\x00\x00\x00\x00\x00'
p3244
tp3245
bsS'finished'
p3246
I01
sS'nReps'
p3247
I2
sS'nRemaining'
p3248
I-1
sS'trialList'
p3249
(lp3250
NasS'seed'
p3251
NsS'thisIndex'
p3252
g1706
sS'thisN'
p3253
I2
sS'thisTrialN'
p3254
I0
sS'nTotal'
p3255
I2
sbag0
(g3188
g2
Ntp3256
Rp3257
(dp3258
g3192
Nsg3193
(lp3259
sg3195
I549080304
sg10
g3231
sg6
I-1
sg3197
I4
sg18
I01
sg19
g20
sg3198
g0
(g3199
g3200
(dp3260
g14
g3239
(g3205
(I0
tp3261
g3207
tp3262
Rp3263
(I1
(I1
I4
tp3264
g36
(S'O4'
p3265
I0
I1
tp3266
Rp3267
(I3
S'|'
p3268
NNNI-1
I-1
I63
tp3269
bI00
(lp3270
g498
ag882
ag1264
ag1662
atp3271
bsg16
g3239
(g3205
(I0
tp3272
g3207
tp3273
Rp3274
(I1
(I1
I4
tp3275
g3267
I00
(lp3276
g498
ag882
ag498
ag1662
atp3277
bsg3202
g3203
(g3204
g3205
g3206
g3207
tp3278
Rp3279
(I1
(I1
I4
tp3280
g3213
I00
S'\x00\x00\x80?\x00\x00\x80?\x00\x00\x80?\x00\x00\x80?'
p3281
S'\x00\x00\x00\x00'
p3282
Ntp3283
bsg15
g3203
(g3204
g3205
g3206
g3207
tp3284
Rp3285
(I1
(I1
I4
tp3286
g3213
I00
S'\x03\xe1\x8c?\xa6\x1e"?\xb7G\x00?\x1d\xd0\x8e?'
p3287
S'\x00\x00\x00\x00'
p3288
Ntp3289
bsg3219
g3203
(g3204
g3205
g3206
g3207
tp3290
Rp3291
(I1
(I1
I4
tp3292
g3213
I00
S'\x00\x00\x00\x00\x00\x00\x80?\x00\x00\x00@\x00\x00@@'
p3293
S'\x00\x00\x00\x00'
p3294
Ntp3295
bsg17
g3203
(g3204
g3205
g3206
g3207
tp3296
Rp3297
(I1
(I1
I4
tp3298
g3213
I00
S'\xea\x04\xec=3\xdf=>UL`=\xd7\x13*>'
p3299
S'\x00\x00\x00\x00'
p3300
Ntp3301
bstp3302
Rp3303
(dp3304
g3229
(dp3305
g16
I00
sg3202
I01
sg15
I01
sg14
I00
sg3219
I01
sg17
I01
ssg3231
g3257
sg3232
(lp3306
g3202
ag3219
ag14
ag15
ag16
ag17
asg3234
(lp3307
I1
aI4
asbsg3236
S'sequential'
p3308
sg3238
g3239
(g3205
(I0
tp3309
g3207
tp3310
Rp3311
(I1
(I1
I4
tp3312
g70
I00
S'\x00\x00\x00\x00\x00\x00\x00\x00\x00\x00\x00\x00\x00\x00\x00\x00'
p3313
tp3314
bsg3246
I01
sg3247
I4
sg3248
I-1
sg3249
(lp3315
Nasg3251
Nsg3252
g1287
sg3253
I4
sg3254
I0
sg3255
I4
sbag0
(g3188
g2
Ntp3316
Rp3317
(dp3318
g3192
Nsg3193
(lp3319
sg3195
I549080304
sg10
S'stim'
p3320
sg6
I-1
sg3197
I1
sg18
I01
sg19
g20
sg3198
g0
(g3199
g3200
(dp3321
g3202
g3203
(g3204
g3205
g3206
g3207
tp3322
Rp3323
(I1
(I18
I1
tp3324
g3213
I00
S'\x00\x00\x80?\x00\x00\x80?\x00\x00\x80?\x00\x00\x80?\x00\x00\x80?\x00\x00\x80?\x00\x00\x80?\x00\x00\x80?\x00\x00\x80?\x00\x00\x80?\x00\x00\x80?\x00\x00\x80?\x00\x00\x80?\x00\x00\x80?\x00\x00\x80?\x00\x00\x80?\x00\x00\x80?\x00\x00\x80?'
p3325
S'\x00\x00\x00\x00\x00\x00\x00\x00\x00\x00\x00\x00\x00\x00\x00\x00\x00\x00'
p3326
Ntp3327
bsg3219
g3203
(g3204
g3205
g3206
g3207
tp3328
Rp3329
(I1
(I18
I1
tp3330
g3213
I00
S'\x00\x00\x00\x00\x00\x00\x80?\x00\x00\x00@\x00\x00@@\x00\x00\x80@\x00\x00\xa0@\x00\x00\xc0@\x00\x00\xe0@\x00\x00\x00A\x00\x00\x10A\x00\x00 A\x00\x000A\x00\x00@A\x00\x00PA\x00\x00`A\x00\x00pA\x00\x00\x80A\x00\x00\x88A'
p3331
S'\x00\x00\x00\x00\x00\x00\x00\x00\x00\x00\x00\x00\x00\x00\x00\x00\x00\x00'
p3332
Ntp3333
bstp3334
Rp3335
(dp3336
g3229
(dp3337
g3202
I01
sg3219
I01
ssg3231
g3317
sg3232
(lp3338
g3202
ag3219
asg3234
(lp3339
I18
aI1
asbsg3236
g3308
sg3238
g3239
(g3205
(I0
tp3340
g3207
tp3341
Rp3342
(I1
(I18
I1
tp3343
g70
I00
S'\x00\x00\x00\x00\x01\x00\x00\x00\x02\x00\x00\x00\x03\x00\x00\x00\x04\x00\x00\x00\x05\x00\x00\x00\x06\x00\x00\x00\x07\x00\x00\x00\x08\x00\x00\x00\t\x00\x00\x00\n\x00\x00\x00\x0b\x00\x00\x00\x0c\x00\x00\x00\r\x00\x00\x00\x0e\x00\x00\x00\x0f\x00\x00\x00\x10\x00\x00\x00\x11\x00\x00\x00'
p3344
tp3345
bsg3246
I01
sg3247
I1
sg3248
I-1
sg3249
(lp3346
ccollections
OrderedDict
p3347
((lp3348
(lp3349
g54
ag103
aa(lp3350
g55
ag78
aa(lp3351
g56
ag66
aa(lp3352
g57
ag95
aa(lp3353
g58
ag85
aa(lp3354
g59
ag79
aatp3355
Rp3356
ag3347
((lp3357
(lp3358
g54
ag127
aa(lp3359
g55
ag78
aa(lp3360
g56
ag66
aa(lp3361
g57
ag122
aa(lp3362
g58
ag117
aa(lp3363
g59
ag114
aatp3364
Rp3365
ag3347
((lp3366
(lp3367
g54
ag150
aa(lp3368
g55
ag78
aa(lp3369
g56
ag66
aa(lp3370
g57
ag145
aa(lp3371
g58
ag140
aa(lp3372
g59
ag79
aatp3373
Rp3374
ag3347
((lp3375
(lp3376
g54
ag173
aa(lp3377
g55
ag78
aa(lp3378
g56
ag66
aa(lp3379
g57
ag168
aa(lp3380
g58
ag163
aa(lp3381
g59
ag79
aatp3382
Rp3383
ag3347
((lp3384
(lp3385
g54
ag196
aa(lp3386
g55
ag78
aa(lp3387
g56
ag66
aa(lp3388
g57
ag191
aa(lp3389
g58
ag186
aa(lp3390
g59
ag79
aatp3391
Rp3392
ag3347
((lp3393
(lp3394
g54
ag219
aa(lp3395
g55
ag78
aa(lp3396
g56
ag66
aa(lp3397
g57
ag214
aa(lp3398
g58
ag209
aa(lp3399
g59
ag79
aatp3400
Rp3401
ag3347
((lp3402
(lp3403
g54
ag243
aa(lp3404
g55
ag78
aa(lp3405
g56
ag66
aa(lp3406
g57
ag238
aa(lp3407
g58
ag233
aa(lp3408
g59
ag230
aatp3409
Rp3410
ag3347
((lp3411
(lp3412
g54
ag266
aa(lp3413
g55
ag78
aa(lp3414
g56
ag66
aa(lp3415
g57
ag261
aa(lp3416
g58
ag256
aa(lp3417
g59
ag79
aatp3418
Rp3419
ag3347
((lp3420
(lp3421
g54
ag289
aa(lp3422
g55
ag78
aa(lp3423
g56
ag66
aa(lp3424
g57
ag284
aa(lp3425
g58
ag279
aa(lp3426
g59
ag79
aatp3427
Rp3428
ag3347
((lp3429
(lp3430
g54
ag312
aa(lp3431
g55
ag78
aa(lp3432
g56
ag66
aa(lp3433
g57
ag307
aa(lp3434
g58
ag302
aa(lp3435
g59
ag79
aatp3436
Rp3437
ag3347
((lp3438
(lp3439
g54
ag335
aa(lp3440
g55
ag78
aa(lp3441
g56
ag66
aa(lp3442
g57
ag330
aa(lp3443
g58
ag325
aa(lp3444
g59
ag79
aatp3445
Rp3446
ag3347
((lp3447
(lp3448
g54
ag358
aa(lp3449
g55
ag78
aa(lp3450
g56
ag66
aa(lp3451
g57
ag353
aa(lp3452
g58
ag348
aa(lp3453
g59
ag79
aatp3454
Rp3455
ag3347
((lp3456
(lp3457
g54
ag381
aa(lp3458
g55
ag78
aa(lp3459
g56
ag66
aa(lp3460
g57
ag376
aa(lp3461
g58
ag371
aa(lp3462
g59
ag79
aatp3463
Rp3464
ag3347
((lp3465
(lp3466
g54
ag403
aa(lp3467
g55
ag78
aa(lp3468
g56
ag66
aa(lp3469
g57
ag398
aa(lp3470
g58
ag256
aa(lp3471
g59
ag79
aatp3472
Rp3473
ag3347
((lp3474
(lp3475
g54
ag426
aa(lp3476
g55
ag78
aa(lp3477
g56
ag66
aa(lp3478
g57
ag421
aa(lp3479
g58
ag416
aa(lp3480
g59
ag79
aatp3481
Rp3482
ag3347
((lp3483
(lp3484
g54
ag449
aa(lp3485
g55
ag78
aa(lp3486
g56
ag66
aa(lp3487
g57
ag444
aa(lp3488
g58
ag439
aa(lp3489
g59
ag79
aatp3490
Rp3491
ag3347
((lp3492
(lp3493
g54
ag472
aa(lp3494
g55
ag78
aa(lp3495
g56
ag66
aa(lp3496
g57
ag467
aa(lp3497
g58
ag462
aa(lp3498
g59
ag79
aatp3499
Rp3500
ag3347
((lp3501
(lp3502
g54
ag494
aa(lp3503
g55
ag78
aa(lp3504
g56
ag66
aa(lp3505
g57
ag489
aa(lp3506
g58
ag325
aa(lp3507
g59
ag79
aatp3508
Rp3509
asg3251
Nsg3252
g480
sg3253
I18
sg3254
I0
sg3255
I18
sbag0
(g3188
g2
Ntp3510
Rp3511
(dp3512
g3192
Nsg3193
(lp3513
sg3195
I549080304
sg10
g3320
sg6
I-1
sg3197
I1
sg18
I01
sg19
g20
sg3198
g0
(g3199
g3200
(dp3514
g3202
g3203
(g3204
g3205
g3206
g3207
tp3515
Rp3516
(I1
(I16
I1
tp3517
g3213
I00
S'\x00\x00\x80?\x00\x00\x80?\x00\x00\x80?\x00\x00\x80?\x00\x00\x80?\x00\x00\x80?\x00\x00\x80?\x00\x00\x80?\x00\x00\x80?\x00\x00\x80?\x00\x00\x80?\x00\x00\x80?\x00\x00\x80?\x00\x00\x80?\x00\x00\x80?\x00\x00\x80?'
p3518
S'\x00\x00\x00\x00\x00\x00\x00\x00\x00\x00\x00\x00\x00\x00\x00\x00'
p3519
Ntp3520
bsg3219
g3203
(g3204
g3205
g3206
g3207
tp3521
Rp3522
(I1
(I16
I1
tp3523
g3213
I00
S'\x00\x00\x00\x00\x00\x00\x80?\x00\x00\x00@\x00\x00@@\x00\x00\x80@\x00\x00\xa0@\x00\x00\xc0@\x00\x00\xe0@\x00\x00\x00A\x00\x00\x10A\x00\x00 A\x00\x000A\x00\x00@A\x00\x00PA\x00\x00`A\x00\x00pA'
p3524
S'\x00\x00\x00\x00\x00\x00\x00\x00\x00\x00\x00\x00\x00\x00\x00\x00'
p3525
Ntp3526
bstp3527
Rp3528
(dp3529
g3229
(dp3530
g3202
I01
sg3219
I01
ssg3231
g3511
sg3232
(lp3531
g3202
ag3219
asg3234
(lp3532
I16
aI1
asbsg3236
g3308
sg3238
g3239
(g3205
(I0
tp3533
g3207
tp3534
Rp3535
(I1
(I16
I1
tp3536
g70
I00
S'\x00\x00\x00\x00\x01\x00\x00\x00\x02\x00\x00\x00\x03\x00\x00\x00\x04\x00\x00\x00\x05\x00\x00\x00\x06\x00\x00\x00\x07\x00\x00\x00\x08\x00\x00\x00\t\x00\x00\x00\n\x00\x00\x00\x0b\x00\x00\x00\x0c\x00\x00\x00\r\x00\x00\x00\x0e\x00\x00\x00\x0f\x00\x00\x00'
p3537
tp3538
bsg3246
I01
sg3247
I1
sg3248
I-1
sg3249
(lp3539
g3347
((lp3540
(lp3541
g535
ag538
aa(lp3542
g517
ag518
aa(lp3543
g509
ag510
aa(lp3544
g529
ag532
aa(lp3545
g526
ag140
aa(lp3546
g519
ag520
aatp3547
Rp3548
ag3347
((lp3549
(lp3550
g535
ag560
aa(lp3551
g517
ag518
aa(lp3552
g509
ag510
aa(lp3553
g529
ag555
aa(lp3554
g526
ag439
aa(lp3555
g519
ag520
aatp3556
Rp3557
ag3347
((lp3558
(lp3559
g535
ag583
aa(lp3560
g517
ag518
aa(lp3561
g509
ag510
aa(lp3562
g529
ag578
aa(lp3563
g526
ag573
aa(lp3564
g519
ag520
aatp3565
Rp3566
ag3347
((lp3567
(lp3568
g535
ag606
aa(lp3569
g517
ag518
aa(lp3570
g509
ag510
aa(lp3571
g529
ag601
aa(lp3572
g526
ag233
aa(lp3573
g519
ag594
aatp3574
Rp3575
ag3347
((lp3576
(lp3577
g535
ag630
aa(lp3578
g517
ag518
aa(lp3579
g509
ag510
aa(lp3580
g529
ag625
aa(lp3581
g526
ag620
aa(lp3582
g519
ag617
aatp3583
Rp3584
ag3347
((lp3585
(lp3586
g535
ag653
aa(lp3587
g517
ag518
aa(lp3588
g509
ag510
aa(lp3589
g529
ag648
aa(lp3590
g526
ag643
aa(lp3591
g519
ag520
aatp3592
Rp3593
ag3347
((lp3594
(lp3595
g535
ag676
aa(lp3596
g517
ag518
aa(lp3597
g509
ag510
aa(lp3598
g529
ag671
aa(lp3599
g526
ag666
aa(lp3600
g519
ag520
aatp3601
Rp3602
ag3347
((lp3603
(lp3604
g535
ag699
aa(lp3605
g517
ag518
aa(lp3606
g509
ag510
aa(lp3607
g529
ag694
aa(lp3608
g526
ag689
aa(lp3609
g519
ag520
aatp3610
Rp3611
ag3347
((lp3612
(lp3613
g535
ag722
aa(lp3614
g517
ag518
aa(lp3615
g509
ag510
aa(lp3616
g529
ag717
aa(lp3617
g526
ag712
aa(lp3618
g519
ag520
aatp3619
Rp3620
ag3347
((lp3621
(lp3622
g535
ag744
aa(lp3623
g517
ag518
aa(lp3624
g509
ag510
aa(lp3625
g529
ag739
aa(lp3626
g526
ag573
aa(lp3627
g519
ag520
aatp3628
Rp3629
ag3347
((lp3630
(lp3631
g535
ag766
aa(lp3632
g517
ag518
aa(lp3633
g509
ag510
aa(lp3634
g529
ag761
aa(lp3635
g526
ag666
aa(lp3636
g519
ag520
aatp3637
Rp3638
ag3347
((lp3639
(lp3640
g535
ag788
aa(lp3641
g517
ag518
aa(lp3642
g509
ag510
aa(lp3643
g529
ag783
aa(lp3644
g526
ag186
aa(lp3645
g519
ag520
aatp3646
Rp3647
ag3347
((lp3648
(lp3649
g535
ag810
aa(lp3650
g517
ag518
aa(lp3651
g509
ag510
aa(lp3652
g529
ag805
aa(lp3653
g526
ag140
aa(lp3654
g519
ag520
aatp3655
Rp3656
ag3347
((lp3657
(lp3658
g535
ag833
aa(lp3659
g517
ag518
aa(lp3660
g509
ag510
aa(lp3661
g529
ag828
aa(lp3662
g526
ag823
aa(lp3663
g519
ag617
aatp3664
Rp3665
ag3347
((lp3666
(lp3667
g535
ag856
aa(lp3668
g517
ag518
aa(lp3669
g509
ag510
aa(lp3670
g529
ag851
aa(lp3671
g526
ag846
aa(lp3672
g519
ag520
aatp3673
Rp3674
ag3347
((lp3675
(lp3676
g535
ag878
aa(lp3677
g517
ag518
aa(lp3678
g509
ag510
aa(lp3679
g529
ag873
aa(lp3680
g526
ag666
aa(lp3681
g519
ag520
aatp3682
Rp3683
asg3251
Nsg3252
g864
sg3253
I16
sg3254
I0
sg3255
I16
sbag0
(g3188
g2
Ntp3684
Rp3685
(dp3686
g3192
Nsg3193
(lp3687
sg3195
I549080304
sg10
g3320
sg6
I-1
sg3197
I1
sg18
I01
sg19
g20
sg3198
g0
(g3199
g3200
(dp3688
g3202
g3203
(g3204
g3205
g3206
g3207
tp3689
Rp3690
(I1
(I16
I1
tp3691
g3213
I00
S'\x00\x00\x80?\x00\x00\x80?\x00\x00\x80?\x00\x00\x80?\x00\x00\x80?\x00\x00\x80?\x00\x00\x80?\x00\x00\x80?\x00\x00\x80?\x00\x00\x80?\x00\x00\x80?\x00\x00\x80?\x00\x00\x80?\x00\x00\x80?\x00\x00\x80?\x00\x00\x80?'
p3692
S'\x00\x00\x00\x00\x00\x00\x00\x00\x00\x00\x00\x00\x00\x00\x00\x00'
p3693
Ntp3694
bsg3219
g3203
(g3204
g3205
g3206
g3207
tp3695
Rp3696
(I1
(I16
I1
tp3697
g3213
I00
S'\x00\x00\x00\x00\x00\x00\x80?\x00\x00\x00@\x00\x00@@\x00\x00\x80@\x00\x00\xa0@\x00\x00\xc0@\x00\x00\xe0@\x00\x00\x00A\x00\x00\x10A\x00\x00 A\x00\x000A\x00\x00@A\x00\x00PA\x00\x00`A\x00\x00pA'
p3698
S'\x00\x00\x00\x00\x00\x00\x00\x00\x00\x00\x00\x00\x00\x00\x00\x00'
p3699
Ntp3700
bstp3701
Rp3702
(dp3703
g3229
(dp3704
g3202
I01
sg3219
I01
ssg3231
g3685
sg3232
(lp3705
g3202
ag3219
asg3234
(lp3706
I16
aI1
asbsg3236
g3308
sg3238
g3239
(g3205
(I0
tp3707
g3207
tp3708
Rp3709
(I1
(I16
I1
tp3710
g70
I00
S'\x00\x00\x00\x00\x01\x00\x00\x00\x02\x00\x00\x00\x03\x00\x00\x00\x04\x00\x00\x00\x05\x00\x00\x00\x06\x00\x00\x00\x07\x00\x00\x00\x08\x00\x00\x00\t\x00\x00\x00\n\x00\x00\x00\x0b\x00\x00\x00\x0c\x00\x00\x00\r\x00\x00\x00\x0e\x00\x00\x00\x0f\x00\x00\x00'
p3711
tp3712
bsg3246
I01
sg3247
I1
sg3248
I-1
sg3249
(lp3713
g3347
((lp3714
(lp3715
g920
ag923
aa(lp3716
g901
ag902
aa(lp3717
g893
ag894
aa(lp3718
g914
ag917
aa(lp3719
g910
ag911
aa(lp3720
g903
ag904
aatp3721
Rp3722
ag3347
((lp3723
(lp3724
g920
ag945
aa(lp3725
g901
ag902
aa(lp3726
g893
ag894
aa(lp3727
g914
ag940
aa(lp3728
g910
ag371
aa(lp3729
g903
ag904
aatp3730
Rp3731
ag3347
((lp3732
(lp3733
g920
ag968
aa(lp3734
g901
ag902
aa(lp3735
g893
ag894
aa(lp3736
g914
ag963
aa(lp3737
g910
ag958
aa(lp3738
g903
ag904
aatp3739
Rp3740
ag3347
((lp3741
(lp3742
g920
ag990
aa(lp3743
g901
ag902
aa(lp3744
g893
ag894
aa(lp3745
g914
ag985
aa(lp3746
g910
ag209
aa(lp3747
g903
ag904
aatp3748
Rp3749
ag3347
((lp3750
(lp3751
g920
ag1012
aa(lp3752
g901
ag902
aa(lp3753
g893
ag894
aa(lp3754
g914
ag1007
aa(lp3755
g910
ag439
aa(lp3756
g903
ag904
aatp3757
Rp3758
ag3347
((lp3759
(lp3760
g920
ag1034
aa(lp3761
g901
ag902
aa(lp3762
g893
ag894
aa(lp3763
g914
ag1029
aa(lp3764
g910
ag348
aa(lp3765
g903
ag904
aatp3766
Rp3767
ag3347
((lp3768
(lp3769
g920
ag1056
aa(lp3770
g901
ag902
aa(lp3771
g893
ag894
aa(lp3772
g914
ag1051
aa(lp3773
g910
ag371
aa(lp3774
g903
ag904
aatp3775
Rp3776
ag3347
((lp3777
(lp3778
g920
ag1078
aa(lp3779
g901
ag902
aa(lp3780
g893
ag894
aa(lp3781
g914
ag1073
aa(lp3782
g910
ag279
aa(lp3783
g903
ag904
aatp3784
Rp3785
ag3347
((lp3786
(lp3787
g920
ag1100
aa(lp3788
g901
ag902
aa(lp3789
g893
ag894
aa(lp3790
g914
ag1095
aa(lp3791
g910
ag209
aa(lp3792
g903
ag904
aatp3793
Rp3794
ag3347
((lp3795
(lp3796
g920
ag1123
aa(lp3797
g901
ag902
aa(lp3798
g893
ag894
aa(lp3799
g914
ag1118
aa(lp3800
g910
ag823
aa(lp3801
g903
ag1111
aatp3802
Rp3803
ag3347
((lp3804
(lp3805
g920
ag1145
aa(lp3806
g901
ag902
aa(lp3807
g893
ag894
aa(lp3808
g914
ag1140
aa(lp3809
g910
ag712
aa(lp3810
g903
ag904
aatp3811
Rp3812
ag3347
((lp3813
(lp3814
g920
ag1167
aa(lp3815
g901
ag902
aa(lp3816
g893
ag894
aa(lp3817
g914
ag1162
aa(lp3818
g910
ag163
aa(lp3819
g903
ag904
aatp3820
Rp3821
ag3347
((lp3822
(lp3823
g920
ag1190
aa(lp3824
g901
ag902
aa(lp3825
g893
ag894
aa(lp3826
g914
ag1185
aa(lp3827
g910
ag1180
aa(lp3828
g903
ag904
aatp3829
Rp3830
ag3347
((lp3831
(lp3832
g920
ag1212
aa(lp3833
g901
ag902
aa(lp3834
g893
ag894
aa(lp3835
g914
ag1207
aa(lp3836
g910
ag256
aa(lp3837
g903
ag904
aatp3838
Rp3839
ag3347
((lp3840
(lp3841
g920
ag1235
aa(lp3842
g901
ag902
aa(lp3843
g893
ag894
aa(lp3844
g914
ag1230
aa(lp3845
g910
ag233
aa(lp3846
g903
ag1223
aatp3847
Rp3848
ag3347
((lp3849
(lp3850
g920
ag1257
aa(lp3851
g901
ag902
aa(lp3852
g893
ag894
aa(lp3853
g914
ag1252
aa(lp3854
g910
ag666
aa(lp3855
g903
ag904
aatp3856
Rp3857
asg3251
Nsg3252
g1243
sg3253
I16
sg3254
I0
sg3255
I16
sbag0
(g3188
g2
Ntp3858
Rp3859
(dp3860
g3192
Nsg3193
(lp3861
sg3195
I549080304
sg10
g3320
sg6
I-1
sg3197
I1
sg18
I01
sg19
g20
sg3198
g0
(g3199
g3200
(dp3862
g3202
g3203
(g3204
g3205
g3206
g3207
tp3863
Rp3864
(I1
(I17
I1
tp3865
g3213
I00
S'\x00\x00\x80?\x00\x00\x80?\x00\x00\x80?\x00\x00\x80?\x00\x00\x80?\x00\x00\x80?\x00\x00\x80?\x00\x00\x80?\x00\x00\x80?\x00\x00\x80?\x00\x00\x80?\x00\x00\x80?\x00\x00\x80?\x00\x00\x80?\x00\x00\x80?\x00\x00\x80?\x00\x00\x80?'
p3866
S'\x00\x00\x00\x00\x00\x00\x00\x00\x00\x00\x00\x00\x00\x00\x00\x00\x00'
p3867
Ntp3868
bsg3219
g3203
(g3204
g3205
g3206
g3207
tp3869
Rp3870
(I1
(I17
I1
tp3871
g3213
I00
S'\x00\x00\x00\x00\x00\x00\x80?\x00\x00\x00@\x00\x00@@\x00\x00\x80@\x00\x00\xa0@\x00\x00\xc0@\x00\x00\xe0@\x00\x00\x00A\x00\x00\x10A\x00\x00 A\x00\x000A\x00\x00@A\x00\x00PA\x00\x00`A\x00\x00pA\x00\x00\x80A'
p3872
S'\x00\x00\x00\x00\x00\x00\x00\x00\x00\x00\x00\x00\x00\x00\x00\x00\x00'
p3873
Ntp3874
bstp3875
Rp3876
(dp3877
g3229
(dp3878
g3202
I01
sg3219
I01
ssg3231
g3859
sg3232
(lp3879
g3202
ag3219
asg3234
(lp3880
I17
aI1
asbsg3236
g3308
sg3238
g3239
(g3205
(I0
tp3881
g3207
tp3882
Rp3883
(I1
(I17
I1
tp3884
g70
I00
S'\x00\x00\x00\x00\x01\x00\x00\x00\x02\x00\x00\x00\x03\x00\x00\x00\x04\x00\x00\x00\x05\x00\x00\x00\x06\x00\x00\x00\x07\x00\x00\x00\x08\x00\x00\x00\t\x00\x00\x00\n\x00\x00\x00\x0b\x00\x00\x00\x0c\x00\x00\x00\r\x00\x00\x00\x0e\x00\x00\x00\x0f\x00\x00\x00\x10\x00\x00\x00'
p3885
tp3886
bsg3246
I01
sg3247
I1
sg3248
I-1
sg3249
(lp3887
g3347
((lp3888
(lp3889
g1299
ag1302
aa(lp3890
g1280
ag1281
aa(lp3891
g1272
ag1273
aa(lp3892
g1293
ag1296
aa(lp3893
g1289
ag1290
aa(lp3894
g1282
ag1283
aatp3895
Rp3896
ag3347
((lp3897
(lp3898
g1299
ag1324
aa(lp3899
g1280
ag1281
aa(lp3900
g1272
ag1273
aa(lp3901
g1293
ag1319
aa(lp3902
g1289
ag85
aa(lp3903
g1282
ag1283
aatp3904
Rp3905
ag3347
((lp3906
(lp3907
g1299
ag1346
aa(lp3908
g1280
ag1281
aa(lp3909
g1272
ag1273
aa(lp3910
g1293
ag1341
aa(lp3911
g1289
ag85
aa(lp3912
g1282
ag1283
aatp3913
Rp3914
ag3347
((lp3915
(lp3916
g1299
ag1368
aa(lp3917
g1280
ag1281
aa(lp3918
g1272
ag1273
aa(lp3919
g1293
ag1363
aa(lp3920
g1289
ag1290
aa(lp3921
g1282
ag1283
aatp3922
Rp3923
ag3347
((lp3924
(lp3925
g1299
ag1390
aa(lp3926
g1280
ag1281
aa(lp3927
g1272
ag1273
aa(lp3928
g1293
ag1385
aa(lp3929
g1289
ag209
aa(lp3930
g1282
ag1283
aatp3931
Rp3932
ag3347
((lp3933
(lp3934
g1299
ag1412
aa(lp3935
g1280
ag1281
aa(lp3936
g1272
ag1273
aa(lp3937
g1293
ag1407
aa(lp3938
g1289
ag371
aa(lp3939
g1282
ag1283
aatp3940
Rp3941
ag3347
((lp3942
(lp3943
g1299
ag1434
aa(lp3944
g1280
ag1281
aa(lp3945
g1272
ag1273
aa(lp3946
g1293
ag1429
aa(lp3947
g1289
ag140
aa(lp3948
g1282
ag1283
aatp3949
Rp3950
ag3347
((lp3951
(lp3952
g1299
ag1456
aa(lp3953
g1280
ag1281
aa(lp3954
g1272
ag1273
aa(lp3955
g1293
ag1451
aa(lp3956
g1289
ag1180
aa(lp3957
g1282
ag1283
aatp3958
Rp3959
ag3347
((lp3960
(lp3961
g1299
ag1479
aa(lp3962
g1280
ag1281
aa(lp3963
g1272
ag1273
aa(lp3964
g1293
ag1474
aa(lp3965
g1289
ag1469
aa(lp3966
g1282
ag1283
aatp3967
Rp3968
ag3347
((lp3969
(lp3970
g1299
ag1501
aa(lp3971
g1280
ag1281
aa(lp3972
g1272
ag1273
aa(lp3973
g1293
ag1496
aa(lp3974
g1289
ag302
aa(lp3975
g1282
ag1283
aatp3976
Rp3977
ag3347
((lp3978
(lp3979
g1299
ag1525
aa(lp3980
g1280
ag1281
aa(lp3981
g1272
ag1273
aa(lp3982
g1293
ag1520
aa(lp3983
g1289
ag1515
aa(lp3984
g1282
ag1512
aatp3985
Rp3986
ag3347
((lp3987
(lp3988
g1299
ag1547
aa(lp3989
g1280
ag1281
aa(lp3990
g1272
ag1273
aa(lp3991
g1293
ag1542
aa(lp3992
g1289
ag348
aa(lp3993
g1282
ag1283
aatp3994
Rp3995
ag3347
((lp3996
(lp3997
g1299
ag1569
aa(lp3998
g1280
ag1281
aa(lp3999
g1272
ag1273
aa(lp4000
g1293
ag1564
aa(lp4001
g1289
ag911
aa(lp4002
g1282
ag1283
aatp4003
Rp4004
ag3347
((lp4005
(lp4006
g1299
ag1591
aa(lp4007
g1280
ag1281
aa(lp4008
g1272
ag1273
aa(lp4009
g1293
ag1586
aa(lp4010
g1289
ag302
aa(lp4011
g1282
ag1283
aatp4012
Rp4013
ag3347
((lp4014
(lp4015
g1299
ag1613
aa(lp4016
g1280
ag1281
aa(lp4017
g1272
ag1273
aa(lp4018
g1293
ag1608
aa(lp4019
g1289
ag1180
aa(lp4020
g1282
ag1283
aatp4021
Rp4022
ag3347
((lp4023
(lp4024
g1299
ag1636
aa(lp4025
g1280
ag1281
aa(lp4026
g1272
ag1273
aa(lp4027
g1293
ag1631
aa(lp4028
g1289
ag233
aa(lp4029
g1282
ag1624
aatp4030
Rp4031
ag3347
((lp4032
(lp4033
g1299
ag1658
aa(lp4034
g1280
ag1281
aa(lp4035
g1272
ag1273
aa(lp4036
g1293
ag1653
aa(lp4037
g1289
ag1180
aa(lp4038
g1282
ag1283
aatp4039
Rp4040
asg3251
Nsg3252
g1644
sg3253
I17
sg3254
I0
sg3255
I17
sbag0
(g3188
g2
Ntp4041
Rp4042
(dp4043
g3192
Nsg3193
(lp4044
sg3195
I549080304
sg10
g3231
sg6
I-1
sg3197
I4
sg18
I01
sg19
g20
sg3198
g0
(g3199
g3200
(dp4045
g14
g3239
(g3205
(I0
tp4046
g3207
tp4047
Rp4048
(I1
(I1
I4
tp4049
g3267
I00
(lp4050
g2051
ag2051
ag498
ag882
atp4051
bsg16
g3239
(g3205
(I0
tp4052
g3207
tp4053
Rp4054
(I1
(I1
I4
tp4055
g3267
I00
(lp4056
g2047
ag2047
ag498
ag882
atp4057
bsg3202
g3203
(g3204
g3205
g3206
g3207
tp4058
Rp4059
(I1
(I1
I4
tp4060
g3213
I00
S'\x00\x00\x80?\x00\x00\x80?\x00\x00\x80?\x00\x00\x80?'
p4061
S'\x00\x00\x00\x00'
p4062
Ntp4063
bsg15
g3203
(g3204
g3205
g3206
g3207
tp4064
Rp4065
(I1
(I1
I4
tp4066
g3213
I00
S'\x82\x193?\x95n\x86?\xde\xabL?zx^?'
p4067
S'\x00\x00\x00\x00'
p4068
Ntp4069
bsg3219
g3203
(g3204
g3205
g3206
g3207
tp4070
Rp4071
(I1
(I1
I4
tp4072
g3213
I00
S'\x00\x00\x00\x00\x00\x00\x80?\x00\x00\x00@\x00\x00@@'
p4073
S'\x00\x00\x00\x00'
p4074
Ntp4075
bsg17
g3203
(g3204
g3205
g3206
g3207
tp4076
Rp4077
(I1
(I1
I4
tp4078
g3213
I00
S'\xb7\xd3\xcc=\x0ejN>\xd5\xf8\xa5?\xf7xL>'
p4079
S'\x00\x00\x00\x00'
p4080
Ntp4081
bstp4082
Rp4083
(dp4084
g3229
(dp4085
g16
I00
sg3202
I01
sg15
I01
sg14
I00
sg3219
I01
sg17
I01
ssg3231
g4042
sg3232
(lp4086
g3202
ag3219
ag14
ag15
ag16
ag17
asg3234
(lp4087
I1
aI4
asbsg3236
g3308
sg3238
g3239
(g3205
(I0
tp4088
g3207
tp4089
Rp4090
(I1
(I1
I4
tp4091
g70
I00
S'\x00\x00\x00\x00\x00\x00\x00\x00\x00\x00\x00\x00\x00\x00\x00\x00'
p4092
tp4093
bsg3246
I01
sg3247
I4
sg3248
I-1
sg3249
(lp4094
Nasg3251
Nsg3252
g2802
sg3253
I4
sg3254
I0
sg3255
I4
sbag0
(g3188
g2
Ntp4095
Rp4096
(dp4097
g3192
Nsg3193
(lp4098
sg3195
I549080304
sg10
g3320
sg6
I-1
sg3197
I1
sg18
I01
sg19
g20
sg3198
g0
(g3199
g3200
(dp4099
g3202
g3203
(g3204
g3205
g3206
g3207
tp4100
Rp4101
(I1
(I16
I1
tp4102
g3213
I00
S'\x00\x00\x80?\x00\x00\x80?\x00\x00\x80?\x00\x00\x80?\x00\x00\x80?\x00\x00\x80?\x00\x00\x80?\x00\x00\x80?\x00\x00\x80?\x00\x00\x80?\x00\x00\x80?\x00\x00\x80?\x00\x00\x80?\x00\x00\x80?\x00\x00\x80?\x00\x00\x80?'
p4103
S'\x00\x00\x00\x00\x00\x00\x00\x00\x00\x00\x00\x00\x00\x00\x00\x00'
p4104
Ntp4105
bsg3219
g3203
(g3204
g3205
g3206
g3207
tp4106
Rp4107
(I1
(I16
I1
tp4108
g3213
I00
S'\x00\x00\x00\x00\x00\x00\x80?\x00\x00\x00@\x00\x00@@\x00\x00\x80@\x00\x00\xa0@\x00\x00\xc0@\x00\x00\xe0@\x00\x00\x00A\x00\x00\x10A\x00\x00 A\x00\x000A\x00\x00@A\x00\x00PA\x00\x00`A\x00\x00pA'
p4109
S'\x00\x00\x00\x00\x00\x00\x00\x00\x00\x00\x00\x00\x00\x00\x00\x00'
p4110
Ntp4111
bstp4112
Rp4113
(dp4114
g3229
(dp4115
g3202
I01
sg3219
I01
ssg3231
g4096
sg3232
(lp4116
g3202
ag3219
asg3234
(lp4117
I16
aI1
asbsg3236
g3308
sg3238
g3239
(g3205
(I0
tp4118
g3207
tp4119
Rp4120
(I1
(I16
I1
tp4121
g70
I00
S'\x00\x00\x00\x00\x01\x00\x00\x00\x02\x00\x00\x00\x03\x00\x00\x00\x04\x00\x00\x00\x05\x00\x00\x00\x06\x00\x00\x00\x07\x00\x00\x00\x08\x00\x00\x00\t\x00\x00\x00\n\x00\x00\x00\x0b\x00\x00\x00\x0c\x00\x00\x00\r\x00\x00\x00\x0e\x00\x00\x00\x0f\x00\x00\x00'
p4122
tp4123
bsg3246
I01
sg3247
I1
sg3248
I-1
sg3249
(lp4124
g3347
((lp4125
(lp4126
g1707
ag1710
aa(lp4127
g1686
ag1687
aa(lp4128
g1678
ag1679
aa(lp4129
g1698
ag1701
aa(lp4130
g1695
ag1290
aa(lp4131
g1688
ag1689
aatp4132
Rp4133
ag3347
((lp4134
(lp4135
g1707
ag1732
aa(lp4136
g1686
ag1687
aa(lp4137
g1678
ag1679
aa(lp4138
g1698
ag1727
aa(lp4139
g1695
ag302
aa(lp4140
g1688
ag1689
aatp4141
Rp4142
ag3347
((lp4143
(lp4144
g1707
ag1754
aa(lp4145
g1686
ag1687
aa(lp4146
g1678
ag1679
aa(lp4147
g1698
ag1749
aa(lp4148
g1695
ag140
aa(lp4149
g1688
ag1689
aatp4150
Rp4151
ag3347
((lp4152
(lp4153
g1707
ag1776
aa(lp4154
g1686
ag1687
aa(lp4155
g1678
ag1679
aa(lp4156
g1698
ag1771
aa(lp4157
g1695
ag689
aa(lp4158
g1688
ag1689
aatp4159
Rp4160
ag3347
((lp4161
(lp4162
g1707
ag1798
aa(lp4163
g1686
ag1687
aa(lp4164
g1678
ag1679
aa(lp4165
g1698
ag1793
aa(lp4166
g1695
ag573
aa(lp4167
g1688
ag1689
aatp4168
Rp4169
ag3347
((lp4170
(lp4171
g1707
ag1821
aa(lp4172
g1686
ag1687
aa(lp4173
g1678
ag1679
aa(lp4174
g1698
ag1816
aa(lp4175
g1695
ag1811
aa(lp4176
g1688
ag1689
aatp4177
Rp4178
ag3347
((lp4179
(lp4180
g1707
ag1843
aa(lp4181
g1686
ag1687
aa(lp4182
g1678
ag1679
aa(lp4183
g1698
ag1838
aa(lp4184
g1695
ag689
aa(lp4185
g1688
ag1689
aatp4186
Rp4187
ag3347
((lp4188
(lp4189
g1707
ag1865
aa(lp4190
g1686
ag1687
aa(lp4191
g1678
ag1679
aa(lp4192
g1698
ag1860
aa(lp4193
g1695
ag371
aa(lp4194
g1688
ag1689
aatp4195
Rp4196
ag3347
((lp4197
(lp4198
g1707
ag1888
aa(lp4199
g1686
ag1687
aa(lp4200
g1678
ag1679
aa(lp4201
g1698
ag1883
aa(lp4202
g1695
ag117
aa(lp4203
g1688
ag1876
aatp4204
Rp4205
ag3347
((lp4206
(lp4207
g1707
ag1910
aa(lp4208
g1686
ag1687
aa(lp4209
g1678
ag1679
aa(lp4210
g1698
ag1905
aa(lp4211
g1695
ag302
aa(lp4212
g1688
ag1689
aatp4213
Rp4214
ag3347
((lp4215
(lp4216
g1707
ag1932
aa(lp4217
g1686
ag1687
aa(lp4218
g1678
ag1679
aa(lp4219
g1698
ag1927
aa(lp4220
g1695
ag85
aa(lp4221
g1688
ag1689
aatp4222
Rp4223
ag3347
((lp4224
(lp4225
g1707
ag1954
aa(lp4226
g1686
ag1687
aa(lp4227
g1678
ag1679
aa(lp4228
g1698
ag1949
aa(lp4229
g1695
ag712
aa(lp4230
g1688
ag1689
aatp4231
Rp4232
ag3347
((lp4233
(lp4234
g1707
ag1976
aa(lp4235
g1686
ag1687
aa(lp4236
g1678
ag1679
aa(lp4237
g1698
ag1971
aa(lp4238
g1695
ag1811
aa(lp4239
g1688
ag1689
aatp4240
Rp4241
ag3347
((lp4242
(lp4243
g1707
ag1999
aa(lp4244
g1686
ag1687
aa(lp4245
g1678
ag1679
aa(lp4246
g1698
ag1994
aa(lp4247
g1695
ag233
aa(lp4248
g1688
ag1987
aatp4249
Rp4250
ag3347
((lp4251
(lp4252
g1707
ag2021
aa(lp4253
g1686
ag1687
aa(lp4254
g1678
ag1679
aa(lp4255
g1698
ag2016
aa(lp4256
g1695
ag958
aa(lp4257
g1688
ag1689
aatp4258
Rp4259
ag3347
((lp4260
(lp4261
g1707
ag2043
aa(lp4262
g1686
ag1687
aa(lp4263
g1678
ag1679
aa(lp4264
g1698
ag2038
aa(lp4265
g1695
ag371
aa(lp4266
g1688
ag1689
aatp4267
Rp4268
asg3251
Nsg3252
g2029
sg3253
I16
sg3254
I0
sg3255
I16
sbag0
(g3188
g2
Ntp4269
Rp4270
(dp4271
g3192
Nsg3193
(lp4272
sg3195
I549080304
sg10
g3320
sg6
I-1
sg3197
I1
sg18
I01
sg19
g20
sg3198
g0
(g3199
g3200
(dp4273
g3202
g3203
(g3204
g3205
g3206
g3207
tp4274
Rp4275
(I1
(I15
I1
tp4276
g3213
I00
S'\x00\x00\x80?\x00\x00\x80?\x00\x00\x80?\x00\x00\x80?\x00\x00\x80?\x00\x00\x80?\x00\x00\x80?\x00\x00\x80?\x00\x00\x80?\x00\x00\x80?\x00\x00\x80?\x00\x00\x80?\x00\x00\x80?\x00\x00\x80?\x00\x00\x80?'
p4277
S'\x00\x00\x00\x00\x00\x00\x00\x00\x00\x00\x00\x00\x00\x00\x00'
p4278
Ntp4279
bsg3219
g3203
(g3204
g3205
g3206
g3207
tp4280
Rp4281
(I1
(I15
I1
tp4282
g3213
I00
S'\x00\x00\x00\x00\x00\x00\x80?\x00\x00\x00@\x00\x00@@\x00\x00\x80@\x00\x00\xa0@\x00\x00\xc0@\x00\x00\xe0@\x00\x00\x00A\x00\x00\x10A\x00\x00 A\x00\x000A\x00\x00@A\x00\x00PA\x00\x00`A'
p4283
S'\x00\x00\x00\x00\x00\x00\x00\x00\x00\x00\x00\x00\x00\x00\x00'
p4284
Ntp4285
bstp4286
Rp4287
(dp4288
g3229
(dp4289
g3202
I01
sg3219
I01
ssg3231
g4270
sg3232
(lp4290
g3202
ag3219
asg3234
(lp4291
I15
aI1
asbsg3236
g3308
sg3238
g3239
(g3205
(I0
tp4292
g3207
tp4293
Rp4294
(I1
(I15
I1
tp4295
g70
I00
S'\x00\x00\x00\x00\x01\x00\x00\x00\x02\x00\x00\x00\x03\x00\x00\x00\x04\x00\x00\x00\x05\x00\x00\x00\x06\x00\x00\x00\x07\x00\x00\x00\x08\x00\x00\x00\t\x00\x00\x00\n\x00\x00\x00\x0b\x00\x00\x00\x0c\x00\x00\x00\r\x00\x00\x00\x0e\x00\x00\x00'
p4296
tp4297
bsg3246
I01
sg3247
I1
sg3248
I-1
sg3249
(lp4298
g3347
((lp4299
(lp4300
g2085
ag2088
aa(lp4301
g2067
ag2068
aa(lp4302
g2059
ag2060
aa(lp4303
g2079
ag2082
aa(lp4304
g2076
ag348
aa(lp4305
g2069
ag2070
aatp4306
Rp4307
ag3347
((lp4308
(lp4309
g2085
ag2110
aa(lp4310
g2067
ag2068
aa(lp4311
g2059
ag2060
aa(lp4312
g2079
ag2105
aa(lp4313
g2076
ag348
aa(lp4314
g2069
ag2070
aatp4315
Rp4316
ag3347
((lp4317
(lp4318
g2085
ag2132
aa(lp4319
g2067
ag2068
aa(lp4320
g2059
ag2060
aa(lp4321
g2079
ag2127
aa(lp4322
g2076
ag1469
aa(lp4323
g2069
ag2070
aatp4324
Rp4325
ag3347
((lp4326
(lp4327
g2085
ag2154
aa(lp4328
g2067
ag2068
aa(lp4329
g2059
ag2060
aa(lp4330
g2079
ag2149
aa(lp4331
g2076
ag1469
aa(lp4332
g2069
ag2070
aatp4333
Rp4334
ag3347
((lp4335
(lp4336
g2085
ag2176
aa(lp4337
g2067
ag2068
aa(lp4338
g2059
ag2060
aa(lp4339
g2079
ag2171
aa(lp4340
g2076
ag439
aa(lp4341
g2069
ag2070
aatp4342
Rp4343
ag3347
((lp4344
(lp4345
g2085
ag2198
aa(lp4346
g2067
ag2068
aa(lp4347
g2059
ag2060
aa(lp4348
g2079
ag2193
aa(lp4349
g2076
ag1469
aa(lp4350
g2069
ag2070
aatp4351
Rp4352
ag3347
((lp4353
(lp4354
g2085
ag2221
aa(lp4355
g2067
ag2068
aa(lp4356
g2059
ag2060
aa(lp4357
g2079
ag2216
aa(lp4358
g2076
ag117
aa(lp4359
g2069
ag2209
aatp4360
Rp4361
ag3347
((lp4362
(lp4363
g2085
ag2243
aa(lp4364
g2067
ag2068
aa(lp4365
g2059
ag2060
aa(lp4366
g2079
ag2238
aa(lp4367
g2076
ag958
aa(lp4368
g2069
ag2070
aatp4369
Rp4370
ag3347
((lp4371
(lp4372
g2085
ag2265
aa(lp4373
g2067
ag2068
aa(lp4374
g2059
ag2060
aa(lp4375
g2079
ag2260
aa(lp4376
g2076
ag846
aa(lp4377
g2069
ag2070
aatp4378
Rp4379
ag3347
((lp4380
(lp4381
g2085
ag2287
aa(lp4382
g2067
ag2068
aa(lp4383
g2059
ag2060
aa(lp4384
g2079
ag2282
aa(lp4385
g2076
ag573
aa(lp4386
g2069
ag2070
aatp4387
Rp4388
ag3347
((lp4389
(lp4390
g2085
ag2309
aa(lp4391
g2067
ag2068
aa(lp4392
g2059
ag2060
aa(lp4393
g2079
ag2304
aa(lp4394
g2076
ag85
aa(lp4395
g2069
ag2070
aatp4396
Rp4397
ag3347
((lp4398
(lp4399
g2085
ag2332
aa(lp4400
g2067
ag2068
aa(lp4401
g2059
ag2060
aa(lp4402
g2079
ag2327
aa(lp4403
g2076
ag233
aa(lp4404
g2069
ag2320
aatp4405
Rp4406
ag3347
((lp4407
(lp4408
g2085
ag2354
aa(lp4409
g2067
ag2068
aa(lp4410
g2059
ag2060
aa(lp4411
g2079
ag2349
aa(lp4412
g2076
ag1180
aa(lp4413
g2069
ag2070
aatp4414
Rp4415
ag3347
((lp4416
(lp4417
g2085
ag2376
aa(lp4418
g2067
ag2068
aa(lp4419
g2059
ag2060
aa(lp4420
g2079
ag2371
aa(lp4421
g2076
ag85
aa(lp4422
g2069
ag2070
aatp4423
Rp4424
ag3347
((lp4425
(lp4426
g2085
ag2398
aa(lp4427
g2067
ag2068
aa(lp4428
g2059
ag2060
aa(lp4429
g2079
ag2393
aa(lp4430
g2076
ag439
aa(lp4431
g2069
ag2070
aatp4432
Rp4433
asg3251
Nsg3252
g2384
sg3253
I15
sg3254
I0
sg3255
I15
sbag0
(g3188
g2
Ntp4434
Rp4435
(dp4436
g3192
Nsg3193
(lp4437
sg3195
I549080304
sg10
g3320
sg6
I-1
sg3197
I1
sg18
I01
sg19
g20
sg3198
g0
(g3199
g3200
(dp4438
g3202
g3203
(g3204
g3205
g3206
g3207
tp4439
Rp4440
(I1
(I16
I1
tp4441
g3213
I00
S'\x00\x00\x80?\x00\x00\x80?\x00\x00\x80?\x00\x00\x80?\x00\x00\x80?\x00\x00\x80?\x00\x00\x80?\x00\x00\x80?\x00\x00\x80?\x00\x00\x80?\x00\x00\x80?\x00\x00\x80?\x00\x00\x80?\x00\x00\x80?\x00\x00\x80?\x00\x00\x80?'
p4442
S'\x00\x00\x00\x00\x00\x00\x00\x00\x00\x00\x00\x00\x00\x00\x00\x00'
p4443
Ntp4444
bsg3219
g3203
(g3204
g3205
g3206
g3207
tp4445
Rp4446
(I1
(I16
I1
tp4447
g3213
I00
S'\x00\x00\x00\x00\x00\x00\x80?\x00\x00\x00@\x00\x00@@\x00\x00\x80@\x00\x00\xa0@\x00\x00\xc0@\x00\x00\xe0@\x00\x00\x00A\x00\x00\x10A\x00\x00 A\x00\x000A\x00\x00@A\x00\x00PA\x00\x00`A\x00\x00pA'
p4448
S'\x00\x00\x00\x00\x00\x00\x00\x00\x00\x00\x00\x00\x00\x00\x00\x00'
p4449
Ntp4450
bstp4451
Rp4452
(dp4453
g3229
(dp4454
g3202
I01
sg3219
I01
ssg3231
g4435
sg3232
(lp4455
g3202
ag3219
asg3234
(lp4456
I16
aI1
asbsg3236
g3308
sg3238
g3239
(g3205
(I0
tp4457
g3207
tp4458
Rp4459
(I1
(I16
I1
tp4460
g70
I00
S'\x00\x00\x00\x00\x01\x00\x00\x00\x02\x00\x00\x00\x03\x00\x00\x00\x04\x00\x00\x00\x05\x00\x00\x00\x06\x00\x00\x00\x07\x00\x00\x00\x08\x00\x00\x00\t\x00\x00\x00\n\x00\x00\x00\x0b\x00\x00\x00\x0c\x00\x00\x00\r\x00\x00\x00\x0e\x00\x00\x00\x0f\x00\x00\x00'
p4461
tp4462
bsg3246
I01
sg3247
I1
sg3248
I-1
sg3249
(lp4463
g3347
((lp4464
(lp4465
g2438
ag2441
aa(lp4466
g2420
ag2421
aa(lp4467
g2412
ag2413
aa(lp4468
g2432
ag2435
aa(lp4469
g2429
ag439
aa(lp4470
g2422
ag2423
aatp4471
Rp4472
ag3347
((lp4473
(lp4474
g2438
ag2463
aa(lp4475
g2420
ag2421
aa(lp4476
g2412
ag2413
aa(lp4477
g2432
ag2458
aa(lp4478
g2429
ag958
aa(lp4479
g2422
ag2423
aatp4480
Rp4481
ag3347
((lp4482
(lp4483
g2438
ag2485
aa(lp4484
g2420
ag2421
aa(lp4485
g2412
ag2413
aa(lp4486
g2432
ag2480
aa(lp4487
g2429
ag186
aa(lp4488
g2422
ag2423
aatp4489
Rp4490
ag3347
((lp4491
(lp4492
g2438
ag2507
aa(lp4493
g2420
ag2421
aa(lp4494
g2412
ag2413
aa(lp4495
g2432
ag2502
aa(lp4496
g2429
ag689
aa(lp4497
g2422
ag2423
aatp4498
Rp4499
ag3347
((lp4500
(lp4501
g2438
ag2529
aa(lp4502
g2420
ag2421
aa(lp4503
g2412
ag2413
aa(lp4504
g2432
ag2524
aa(lp4505
g2429
ag325
aa(lp4506
g2422
ag2423
aatp4507
Rp4508
ag3347
((lp4509
(lp4510
g2438
ag2551
aa(lp4511
g2420
ag2421
aa(lp4512
g2412
ag2413
aa(lp4513
g2432
ag2546
aa(lp4514
g2429
ag348
aa(lp4515
g2422
ag2423
aatp4516
Rp4517
ag3347
((lp4518
(lp4519
g2438
ag2573
aa(lp4520
g2420
ag2421
aa(lp4521
g2412
ag2413
aa(lp4522
g2432
ag2568
aa(lp4523
g2429
ag348
aa(lp4524
g2422
ag2423
aatp4525
Rp4526
ag3347
((lp4527
(lp4528
g2438
ag2596
aa(lp4529
g2420
ag2421
aa(lp4530
g2412
ag2413
aa(lp4531
g2432
ag2591
aa(lp4532
g2429
ag823
aa(lp4533
g2422
ag2584
aatp4534
Rp4535
ag3347
((lp4536
(lp4537
g2438
ag2618
aa(lp4538
g2420
ag2421
aa(lp4539
g2412
ag2413
aa(lp4540
g2432
ag2613
aa(lp4541
g2429
ag666
aa(lp4542
g2422
ag2423
aatp4543
Rp4544
ag3347
((lp4545
(lp4546
g2438
ag2640
aa(lp4547
g2420
ag2421
aa(lp4548
g2412
ag2413
aa(lp4549
g2432
ag2635
aa(lp4550
g2429
ag689
aa(lp4551
g2422
ag2423
aatp4552
Rp4553
ag3347
((lp4554
(lp4555
g2438
ag2662
aa(lp4556
g2420
ag2421
aa(lp4557
g2412
ag2413
aa(lp4558
g2432
ag2657
aa(lp4559
g2429
ag302
aa(lp4560
g2422
ag2423
aatp4561
Rp4562
ag3347
((lp4563
(lp4564
g2438
ag2684
aa(lp4565
g2420
ag2421
aa(lp4566
g2412
ag2413
aa(lp4567
g2432
ag2679
aa(lp4568
g2429
ag371
aa(lp4569
g2422
ag2423
aatp4570
Rp4571
ag3347
((lp4572
(lp4573
g2438
ag2707
aa(lp4574
g2420
ag2421
aa(lp4575
g2412
ag2413
aa(lp4576
g2432
ag2702
aa(lp4577
g2429
ag233
aa(lp4578
g2422
ag2695
aatp4579
Rp4580
ag3347
((lp4581
(lp4582
g2438
ag2729
aa(lp4583
g2420
ag2421
aa(lp4584
g2412
ag2413
aa(lp4585
g2432
ag2724
aa(lp4586
g2429
ag1469
aa(lp4587
g2422
ag2423
aatp4588
Rp4589
ag3347
((lp4590
(lp4591
g2438
ag2751
aa(lp4592
g2420
ag2421
aa(lp4593
g2412
ag2413
aa(lp4594
g2432
ag2746
aa(lp4595
g2429
ag371
aa(lp4596
g2422
ag2423
aatp4597
Rp4598
ag3347
((lp4599
(lp4600
g2438
ag2773
aa(lp4601
g2420
ag2421
aa(lp4602
g2412
ag2413
aa(lp4603
g2432
ag2768
aa(lp4604
g2429
ag163
aa(lp4605
g2422
ag2423
aatp4606
Rp4607
asg3251
Nsg3252
g2759
sg3253
I16
sg3254
I0
sg3255
I16
sbag0
(g3188
g2
Ntp4608
Rp4609
(dp4610
g3192
Nsg3193
(lp4611
sg3195
I549080304
sg10
g3320
sg6
I-1
sg3197
I1
sg18
I01
sg19
g20
sg3198
g0
(g3199
g3200
(dp4612
g3202
g3203
(g3204
g3205
g3206
g3207
tp4613
Rp4614
(I1
(I17
I1
tp4615
g3213
I00
S'\x00\x00\x80?\x00\x00\x80?\x00\x00\x80?\x00\x00\x80?\x00\x00\x80?\x00\x00\x80?\x00\x00\x80?\x00\x00\x80?\x00\x00\x80?\x00\x00\x80?\x00\x00\x80?\x00\x00\x80?\x00\x00\x80?\x00\x00\x80?\x00\x00\x80?\x00\x00\x80?\x00\x00\x80?'
p4616
S'\x00\x00\x00\x00\x00\x00\x00\x00\x00\x00\x00\x00\x00\x00\x00\x00\x00'
p4617
Ntp4618
bsg3219
g3203
(g3204
g3205
g3206
g3207
tp4619
Rp4620
(I1
(I17
I1
tp4621
g3213
I00
S'\x00\x00\x00\x00\x00\x00\x80?\x00\x00\x00@\x00\x00@@\x00\x00\x80@\x00\x00\xa0@\x00\x00\xc0@\x00\x00\xe0@\x00\x00\x00A\x00\x00\x10A\x00\x00 A\x00\x000A\x00\x00@A\x00\x00PA\x00\x00`A\x00\x00pA\x00\x00\x80A'
p4622
S'\x00\x00\x00\x00\x00\x00\x00\x00\x00\x00\x00\x00\x00\x00\x00\x00\x00'
p4623
Ntp4624
bstp4625
Rp4626
(dp4627
g3229
(dp4628
g3202
I01
sg3219
I01
ssg3231
g4609
sg3232
(lp4629
g3202
ag3219
asg3234
(lp4630
I17
aI1
asbsg3236
g3308
sg3238
g3239
(g3205
(I0
tp4631
g3207
tp4632
Rp4633
(I1
(I17
I1
tp4634
g70
I00
S'\x00\x00\x00\x00\x01\x00\x00\x00\x02\x00\x00\x00\x03\x00\x00\x00\x04\x00\x00\x00\x05\x00\x00\x00\x06\x00\x00\x00\x07\x00\x00\x00\x08\x00\x00\x00\t\x00\x00\x00\n\x00\x00\x00\x0b\x00\x00\x00\x0c\x00\x00\x00\r\x00\x00\x00\x0e\x00\x00\x00\x0f\x00\x00\x00\x10\x00\x00\x00'
p4635
tp4636
bsg3246
I01
sg3247
I1
sg3248
I-1
sg3249
(lp4637
g3347
((lp4638
(lp4639
g2814
ag2817
aa(lp4640
g2795
ag2796
aa(lp4641
g2787
ag2788
aa(lp4642
g2808
ag2811
aa(lp4643
g2804
ag2805
aa(lp4644
g2797
ag2798
aatp4645
Rp4646
ag3347
((lp4647
(lp4648
g2814
ag2840
aa(lp4649
g2795
ag2796
aa(lp4650
g2787
ag2788
aa(lp4651
g2808
ag2835
aa(lp4652
g2804
ag371
aa(lp4653
g2797
ag2828
aatp4654
Rp4655
ag3347
((lp4656
(lp4657
g2814
ag2862
aa(lp4658
g2795
ag2796
aa(lp4659
g2787
ag2788
aa(lp4660
g2808
ag2857
aa(lp4661
g2804
ag439
aa(lp4662
g2797
ag2828
aatp4663
Rp4664
ag3347
((lp4665
(lp4666
g2814
ag2884
aa(lp4667
g2795
ag2796
aa(lp4668
g2787
ag2788
aa(lp4669
g2808
ag2879
aa(lp4670
g2804
ag439
aa(lp4671
g2797
ag2828
aatp4672
Rp4673
ag3347
((lp4674
(lp4675
g2814
ag2906
aa(lp4676
g2795
ag2796
aa(lp4677
g2787
ag2788
aa(lp4678
g2808
ag2901
aa(lp4679
g2804
ag85
aa(lp4680
g2797
ag2828
aatp4681
Rp4682
ag3347
((lp4683
(lp4684
g2814
ag2928
aa(lp4685
g2795
ag2796
aa(lp4686
g2787
ag2788
aa(lp4687
g2808
ag2923
aa(lp4688
g2804
ag712
aa(lp4689
g2797
ag2828
aatp4690
Rp4691
ag3347
((lp4692
(lp4693
g2814
ag2950
aa(lp4694
g2795
ag2796
aa(lp4695
g2787
ag2788
aa(lp4696
g2808
ag2945
aa(lp4697
g2804
ag302
aa(lp4698
g2797
ag2828
aatp4699
Rp4700
ag3347
((lp4701
(lp4702
g2814
ag2972
aa(lp4703
g2795
ag2796
aa(lp4704
g2787
ag2788
aa(lp4705
g2808
ag2967
aa(lp4706
g2804
ag643
aa(lp4707
g2797
ag2828
aatp4708
Rp4709
ag3347
((lp4710
(lp4711
g2814
ag2994
aa(lp4712
g2795
ag2796
aa(lp4713
g2787
ag2788
aa(lp4714
g2808
ag2989
aa(lp4715
g2804
ag1469
aa(lp4716
g2797
ag2828
aatp4717
Rp4718
ag3347
((lp4719
(lp4720
g2814
ag3017
aa(lp4721
g2795
ag2796
aa(lp4722
g2787
ag2788
aa(lp4723
g2808
ag3012
aa(lp4724
g2804
ag3007
aa(lp4725
g2797
ag2798
aatp4726
Rp4727
ag3347
((lp4728
(lp4729
g2814
ag3039
aa(lp4730
g2795
ag2796
aa(lp4731
g2787
ag2788
aa(lp4732
g2808
ag3034
aa(lp4733
g2804
ag209
aa(lp4734
g2797
ag2828
aatp4735
Rp4736
ag3347
((lp4737
(lp4738
g2814
ag3061
aa(lp4739
g2795
ag2796
aa(lp4740
g2787
ag2788
aa(lp4741
g2808
ag3056
aa(lp4742
g2804
ag1811
aa(lp4743
g2797
ag2828
aatp4744
Rp4745
ag3347
((lp4746
(lp4747
g2814
ag3083
aa(lp4748
g2795
ag2796
aa(lp4749
g2787
ag2788
aa(lp4750
g2808
ag3078
aa(lp4751
g2804
ag209
aa(lp4752
g2797
ag2828
aatp4753
Rp4754
ag3347
((lp4755
(lp4756
g2814
ag3105
aa(lp4757
g2795
ag2796
aa(lp4758
g2787
ag2788
aa(lp4759
g2808
ag3100
aa(lp4760
g2804
ag279
aa(lp4761
g2797
ag2828
aatp4762
Rp4763
ag3347
((lp4764
(lp4765
g2814
ag3127
aa(lp4766
g2795
ag2796
aa(lp4767
g2787
ag2788
aa(lp4768
g2808
ag3122
aa(lp4769
g2804
ag302
aa(lp4770
g2797
ag2828
aatp4771
Rp4772
ag3347
((lp4773
(lp4774
g2814
ag3149
aa(lp4775
g2795
ag2796
aa(lp4776
g2787
ag2788
aa(lp4777
g2808
ag3144
aa(lp4778
g2804
ag573
aa(lp4779
g2797
ag2828
aatp4780
Rp4781
ag3347
((lp4782
(lp4783
g2814
ag3171
aa(lp4784
g2795
ag2796
aa(lp4785
g2787
ag2788
aa(lp4786
g2808
ag3166
aa(lp4787
g2804
ag958
aa(lp4788
g2797
ag2828
aatp4789
Rp4790
asg3251
Nsg3252
g3157
sg3253
I17
sg3254
I0
sg3255
I17
sbasS'savePickle'
p4791
I00
sb.