ccopy_reg
_reconstructor
p0
(cpsychopy.data.experiment
ExperimentHandler
p1
c__builtin__
object
p2
Ntp3
Rp4
(dp5
S'originPath'
p6
NsS'dataFileName'
p7
VC:\u005cUsers\u005center\u005cOneDrive - University of Toronto\u005cLabs\u005cInzlicht Lab\u005coutside_project\u005cexperiment\u005cpsychoPy_scripts\u005crsvp\u005cdata/John_rsvp_1001_r2
p8
sS'runtimeInfo'
p9
NsS'name'
p10
Vrsvp
p11
sS'dataNames'
p12
(lp13
S'usr_input_t1.keys'
p14
aS'usr_input_t1.rt'
p15
aS'usr_input_t2.keys'
p16
aS'usr_input_t2.rt'
p17
asS'autoLog'
p18
I01
sS'extraInfo'
p19
(dp20
S'date'
p21
V2018_Oct_17_1522
p22
sVparticipant
p23
g0
(cfuture.types.newstr
newstr
p24
c__builtin__
unicode
p25
V1001
p26
tp27
Rp28
sS'expName'
p29
g11
sVrun
p30
g0
(g24
g25
Vr2
p31
tp32
Rp33
sS'frameRate'
p34
cnumpy.core.multiarray
scalar
p35
(cnumpy
dtype
p36
(S'f8'
p37
I0
I1
tp38
Rp39
(I3
S'<'
p40
NNNI-1
I-1
I0
tp41
bS'\x9e\x9aW\x06\x9e\x7fN@'
p42
tp43
Rp44
ssS'loopsUnfinished'
p45
(lp46
sS'saveWideText'
p47
I00
sS'thisEntry'
p48
(dp49
sS'version'
p50
S''
p51
sS'_paramNamesSoFar'
p52
(lp53
S'block'
p54
aS'sep_dur'
p55
aS'Tx'
p56
aS'trial'
p57
aS'stimulus'
p58
aS'cond'
p59
asS'entries'
p60
(lp61
(dp62
S'block.thisTrialN'
p63
I0
sS'stim.thisTrialN'
p64
I0
sS'block.thisRepN'
p65
I0
sg56
Vt1
p66
sS'stim.thisIndex'
p67
g35
(g36
(S'i4'
p68
I0
I1
tp69
Rp70
(I3
S'<'
p71
NNNI-1
I-1
I0
tp72
bS'\x00\x00\x00\x00'
p73
tp74
Rp75
sg34
g44
sS'block.thisN'
p76
I0
sS'stim.thisN'
p77
I0
sg55
Vshort
p78
sg59
Vdistractor
p79
sg21
g22
sg30
g33
sS'trials.thisIndex'
p80
g35
(g70
S'\x00\x00\x00\x00'
p81
tp82
Rp83
sS'stim.thisRepN'
p84
I0
sg23
g28
sg58
VC
p85
sS'trials.thisRepN'
p86
I0
sS'trials.thisN'
p87
I0
sg57
g35
(g36
(S'i8'
p88
I0
I1
tp89
Rp90
(I3
S'<'
p91
NNNI-1
I-1
I0
tp92
bS'\x01\x00\x00\x00\x00\x00\x00\x00'
p93
tp94
Rp95
sg29
g11
sS'trials.thisTrialN'
p96
I0
sS'block.thisIndex'
p97
g35
(g70
S'\x00\x00\x00\x00'
p98
tp99
Rp100
sg54
g35
(g90
S'\x01\x00\x00\x00\x00\x00\x00\x00'
p101
tp102
Rp103
sa(dp104
S'block.thisTrialN'
p105
I0
sS'stim.thisTrialN'
p106
I1
sS'block.thisRepN'
p107
I0
sg56
g66
sS'stim.thisIndex'
p108
g35
(g70
S'\x01\x00\x00\x00'
p109
tp110
Rp111
sg34
g44
sS'block.thisN'
p112
I0
sS'stim.thisN'
p113
I1
sg55
g78
sg59
g79
sg21
g22
sg30
g33
sS'trials.thisIndex'
p114
g83
sS'stim.thisRepN'
p115
I0
sg23
g28
sg58
VW
p116
sS'trials.thisRepN'
p117
I0
sS'trials.thisN'
p118
I0
sg57
g35
(g90
S'\x02\x00\x00\x00\x00\x00\x00\x00'
p119
tp120
Rp121
sg29
g11
sS'trials.thisTrialN'
p122
I0
sS'block.thisIndex'
p123
g100
sg54
g35
(g90
S'\x01\x00\x00\x00\x00\x00\x00\x00'
p124
tp125
Rp126
sa(dp127
S'block.thisTrialN'
p128
I0
sS'stim.thisTrialN'
p129
I2
sS'block.thisRepN'
p130
I0
sg56
g66
sS'stim.thisIndex'
p131
g35
(g70
S'\x02\x00\x00\x00'
p132
tp133
Rp134
sg34
g44
sS'block.thisN'
p135
I0
sS'stim.thisN'
p136
I2
sg55
g78
sg59
g79
sg21
g22
sg30
g33
sS'trials.thisIndex'
p137
g83
sS'stim.thisRepN'
p138
I0
sg23
g28
sg58
VK
p139
sS'trials.thisRepN'
p140
I0
sS'trials.thisN'
p141
I0
sg57
g35
(g90
S'\x03\x00\x00\x00\x00\x00\x00\x00'
p142
tp143
Rp144
sg29
g11
sS'trials.thisTrialN'
p145
I0
sS'block.thisIndex'
p146
g100
sg54
g35
(g90
S'\x01\x00\x00\x00\x00\x00\x00\x00'
p147
tp148
Rp149
sa(dp150
S'block.thisTrialN'
p151
I0
sS'stim.thisTrialN'
p152
I3
sS'block.thisRepN'
p153
I0
sg56
g66
sS'stim.thisIndex'
p154
g35
(g70
S'\x03\x00\x00\x00'
p155
tp156
Rp157
sg34
g44
sS'block.thisN'
p158
I0
sS'stim.thisN'
p159
I3
sg55
g78
sg59
g79
sg21
g22
sg30
g33
sS'trials.thisIndex'
p160
g83
sS'stim.thisRepN'
p161
I0
sg23
g28
sg58
VT
p162
sS'trials.thisRepN'
p163
I0
sS'trials.thisN'
p164
I0
sg57
g35
(g90
S'\x04\x00\x00\x00\x00\x00\x00\x00'
p165
tp166
Rp167
sg29
g11
sS'trials.thisTrialN'
p168
I0
sS'block.thisIndex'
p169
g100
sg54
g35
(g90
S'\x01\x00\x00\x00\x00\x00\x00\x00'
p170
tp171
Rp172
sa(dp173
S'block.thisTrialN'
p174
I0
sS'stim.thisTrialN'
p175
I4
sS'block.thisRepN'
p176
I0
sg56
g66
sS'stim.thisIndex'
p177
g35
(g70
S'\x04\x00\x00\x00'
p178
tp179
Rp180
sg34
g44
sS'block.thisN'
p181
I0
sS'stim.thisN'
p182
I4
sg55
g78
sg59
g79
sg21
g22
sg30
g33
sS'trials.thisIndex'
p183
g83
sS'stim.thisRepN'
p184
I0
sg23
g28
sg58
VL
p185
sS'trials.thisRepN'
p186
I0
sS'trials.thisN'
p187
I0
sg57
g35
(g90
S'\x05\x00\x00\x00\x00\x00\x00\x00'
p188
tp189
Rp190
sg29
g11
sS'trials.thisTrialN'
p191
I0
sS'block.thisIndex'
p192
g100
sg54
g35
(g90
S'\x01\x00\x00\x00\x00\x00\x00\x00'
p193
tp194
Rp195
sa(dp196
S'block.thisTrialN'
p197
I0
sS'stim.thisTrialN'
p198
I5
sS'block.thisRepN'
p199
I0
sg56
g66
sS'stim.thisIndex'
p200
g35
(g70
S'\x05\x00\x00\x00'
p201
tp202
Rp203
sg34
g44
sS'block.thisN'
p204
I0
sS'stim.thisN'
p205
I5
sg55
g78
sg59
g79
sg21
g22
sg30
g33
sS'trials.thisIndex'
p206
g83
sS'stim.thisRepN'
p207
I0
sg23
g28
sg58
g185
sS'trials.thisRepN'
p208
I0
sS'trials.thisN'
p209
I0
sg57
g35
(g90
S'\x06\x00\x00\x00\x00\x00\x00\x00'
p210
tp211
Rp212
sg29
g11
sS'trials.thisTrialN'
p213
I0
sS'block.thisIndex'
p214
g100
sg54
g35
(g90
S'\x01\x00\x00\x00\x00\x00\x00\x00'
p215
tp216
Rp217
sa(dp218
S'block.thisTrialN'
p219
I0
sS'stim.thisTrialN'
p220
I6
sS'block.thisRepN'
p221
I0
sg56
g66
sS'stim.thisIndex'
p222
g35
(g70
S'\x06\x00\x00\x00'
p223
tp224
Rp225
sg34
g44
sS'block.thisN'
p226
I0
sS'stim.thisN'
p227
I6
sg55
g78
sg59
g79
sg21
g22
sg30
g33
sS'trials.thisIndex'
p228
g83
sS'stim.thisRepN'
p229
I0
sg23
g28
sg58
VS
p230
sS'trials.thisRepN'
p231
I0
sS'trials.thisN'
p232
I0
sg57
g35
(g90
S'\x07\x00\x00\x00\x00\x00\x00\x00'
p233
tp234
Rp235
sg29
g11
sS'trials.thisTrialN'
p236
I0
sS'block.thisIndex'
p237
g100
sg54
g35
(g90
S'\x01\x00\x00\x00\x00\x00\x00\x00'
p238
tp239
Rp240
sa(dp241
S'block.thisTrialN'
p242
I0
sS'stim.thisTrialN'
p243
I7
sS'block.thisRepN'
p244
I0
sg56
g66
sS'stim.thisIndex'
p245
g35
(g70
S'\x07\x00\x00\x00'
p246
tp247
Rp248
sg34
g44
sS'block.thisN'
p249
I0
sS'stim.thisN'
p250
I7
sg55
g78
sg59
g79
sg21
g22
sg30
g33
sS'trials.thisIndex'
p251
g83
sS'stim.thisRepN'
p252
I0
sg23
g28
sg58
VJ
p253
sS'trials.thisRepN'
p254
I0
sS'trials.thisN'
p255
I0
sg57
g35
(g90
S'\x08\x00\x00\x00\x00\x00\x00\x00'
p256
tp257
Rp258
sg29
g11
sS'trials.thisTrialN'
p259
I0
sS'block.thisIndex'
p260
g100
sg54
g35
(g90
S'\x01\x00\x00\x00\x00\x00\x00\x00'
p261
tp262
Rp263
sa(dp264
S'block.thisTrialN'
p265
I0
sS'stim.thisTrialN'
p266
I8
sS'block.thisRepN'
p267
I0
sg56
g66
sS'stim.thisIndex'
p268
g35
(g70
S'\x08\x00\x00\x00'
p269
tp270
Rp271
sg34
g44
sS'block.thisN'
p272
I0
sS'stim.thisN'
p273
I8
sg55
g78
sg59
g79
sg21
g22
sg30
g33
sS'trials.thisIndex'
p274
g83
sS'stim.thisRepN'
p275
I0
sg23
g28
sg58
g185
sS'trials.thisRepN'
p276
I0
sS'trials.thisN'
p277
I0
sg57
g35
(g90
S'\t\x00\x00\x00\x00\x00\x00\x00'
p278
tp279
Rp280
sg29
g11
sS'trials.thisTrialN'
p281
I0
sS'block.thisIndex'
p282
g100
sg54
g35
(g90
S'\x01\x00\x00\x00\x00\x00\x00\x00'
p283
tp284
Rp285
sa(dp286
S'block.thisTrialN'
p287
I0
sS'stim.thisTrialN'
p288
I9
sS'block.thisRepN'
p289
I0
sg56
g66
sS'stim.thisIndex'
p290
g35
(g70
S'\t\x00\x00\x00'
p291
tp292
Rp293
sg34
g44
sS'block.thisN'
p294
I0
sS'stim.thisN'
p295
I9
sg55
g78
sg59
Vtarget
p296
sg21
g22
sg30
g33
sS'trials.thisIndex'
p297
g83
sS'stim.thisRepN'
p298
I0
sg23
g28
sg58
V1
p299
sS'trials.thisRepN'
p300
I0
sS'trials.thisN'
p301
I0
sg57
g35
(g90
S'\n\x00\x00\x00\x00\x00\x00\x00'
p302
tp303
Rp304
sg29
g11
sS'trials.thisTrialN'
p305
I0
sS'block.thisIndex'
p306
g100
sg54
g35
(g90
S'\x01\x00\x00\x00\x00\x00\x00\x00'
p307
tp308
Rp309
sa(dp310
S'block.thisTrialN'
p311
I0
sS'stim.thisTrialN'
p312
I10
sS'block.thisRepN'
p313
I0
sg56
g66
sS'stim.thisIndex'
p314
g35
(g70
S'\n\x00\x00\x00'
p315
tp316
Rp317
sg34
g44
sS'block.thisN'
p318
I0
sS'stim.thisN'
p319
I10
sg55
g78
sg59
g79
sg21
g22
sg30
g33
sS'trials.thisIndex'
p320
g83
sS'stim.thisRepN'
p321
I0
sg23
g28
sg58
VM
p322
sS'trials.thisRepN'
p323
I0
sS'trials.thisN'
p324
I0
sg57
g35
(g90
S'\x0b\x00\x00\x00\x00\x00\x00\x00'
p325
tp326
Rp327
sg29
g11
sS'trials.thisTrialN'
p328
I0
sS'block.thisIndex'
p329
g100
sg54
g35
(g90
S'\x01\x00\x00\x00\x00\x00\x00\x00'
p330
tp331
Rp332
sa(dp333
S'block.thisTrialN'
p334
I0
sS'stim.thisTrialN'
p335
I11
sS'block.thisRepN'
p336
I0
sg56
g66
sS'stim.thisIndex'
p337
g35
(g70
S'\x0b\x00\x00\x00'
p338
tp339
Rp340
sg34
g44
sS'block.thisN'
p341
I0
sS'stim.thisN'
p342
I11
sg55
g78
sg59
g79
sg21
g22
sg30
g33
sS'trials.thisIndex'
p343
g83
sS'stim.thisRepN'
p344
I0
sg23
g28
sg58
VI
p345
sS'trials.thisRepN'
p346
I0
sS'trials.thisN'
p347
I0
sg57
g35
(g90
S'\x0c\x00\x00\x00\x00\x00\x00\x00'
p348
tp349
Rp350
sg29
g11
sS'trials.thisTrialN'
p351
I0
sS'block.thisIndex'
p352
g100
sg54
g35
(g90
S'\x01\x00\x00\x00\x00\x00\x00\x00'
p353
tp354
Rp355
sa(dp356
S'block.thisTrialN'
p357
I0
sS'stim.thisTrialN'
p358
I12
sS'block.thisRepN'
p359
I0
sg56
g66
sS'stim.thisIndex'
p360
g35
(g70
S'\x0c\x00\x00\x00'
p361
tp362
Rp363
sg34
g44
sS'block.thisN'
p364
I0
sS'stim.thisN'
p365
I12
sg55
g78
sg59
g79
sg21
g22
sg30
g33
sS'trials.thisIndex'
p366
g83
sS'stim.thisRepN'
p367
I0
sg23
g28
sg58
g139
sS'trials.thisRepN'
p368
I0
sS'trials.thisN'
p369
I0
sg57
g35
(g90
S'\r\x00\x00\x00\x00\x00\x00\x00'
p370
tp371
Rp372
sg29
g11
sS'trials.thisTrialN'
p373
I0
sS'block.thisIndex'
p374
g100
sg54
g35
(g90
S'\x01\x00\x00\x00\x00\x00\x00\x00'
p375
tp376
Rp377
sa(dp378
S'block.thisTrialN'
p379
I0
sS'stim.thisTrialN'
p380
I13
sS'block.thisRepN'
p381
I0
sg56
g66
sS'stim.thisIndex'
p382
g35
(g70
S'\r\x00\x00\x00'
p383
tp384
Rp385
sg34
g44
sS'block.thisN'
p386
I0
sS'stim.thisN'
p387
I13
sg55
g78
sg59
Vmask
p388
sg21
g22
sg30
g33
sS'trials.thisIndex'
p389
g83
sS'stim.thisRepN'
p390
I0
sg23
g28
sg58
V 
p391
sS'trials.thisRepN'
p392
I0
sS'trials.thisN'
p393
I0
sg57
g35
(g90
S'\x0e\x00\x00\x00\x00\x00\x00\x00'
p394
tp395
Rp396
sg29
g11
sS'trials.thisTrialN'
p397
I0
sS'block.thisIndex'
p398
g100
sg54
g35
(g90
S'\x01\x00\x00\x00\x00\x00\x00\x00'
p399
tp400
Rp401
sa(dp402
S'block.thisTrialN'
p403
I0
sS'stim.thisTrialN'
p404
I14
sS'block.thisRepN'
p405
I0
sg56
g66
sS'stim.thisIndex'
p406
g35
(g70
S'\x0e\x00\x00\x00'
p407
tp408
Rp409
sg34
g44
sS'block.thisN'
p410
I0
sS'stim.thisN'
p411
I14
sg55
g78
sg59
g79
sg21
g22
sg30
g33
sS'trials.thisIndex'
p412
g83
sS'stim.thisRepN'
p413
I0
sg23
g28
sg58
VZ
p414
sS'trials.thisRepN'
p415
I0
sS'trials.thisN'
p416
I0
sg57
g35
(g90
S'\x0f\x00\x00\x00\x00\x00\x00\x00'
p417
tp418
Rp419
sg29
g11
sS'trials.thisTrialN'
p420
I0
sS'block.thisIndex'
p421
g100
sg54
g35
(g90
S'\x01\x00\x00\x00\x00\x00\x00\x00'
p422
tp423
Rp424
sa(dp425
S'block.thisTrialN'
p426
I0
sS'stim.thisTrialN'
p427
I15
sS'block.thisRepN'
p428
I0
sg56
g66
sS'stim.thisIndex'
p429
g35
(g70
S'\x0f\x00\x00\x00'
p430
tp431
Rp432
sg34
g44
sS'block.thisN'
p433
I0
sS'stim.thisN'
p434
I15
sg55
g78
sg59
g79
sg21
g22
sg30
g33
sS'trials.thisIndex'
p435
g83
sS'stim.thisRepN'
p436
I0
sg23
g28
sg58
VN
p437
sS'trials.thisRepN'
p438
I0
sS'trials.thisN'
p439
I0
sg57
g35
(g90
S'\x10\x00\x00\x00\x00\x00\x00\x00'
p440
tp441
Rp442
sg29
g11
sS'trials.thisTrialN'
p443
I0
sS'block.thisIndex'
p444
g100
sg54
g35
(g90
S'\x01\x00\x00\x00\x00\x00\x00\x00'
p445
tp446
Rp447
sa(dp448
S'block.thisTrialN'
p449
I0
sS'stim.thisTrialN'
p450
I16
sS'block.thisRepN'
p451
I0
sg56
g66
sS'stim.thisIndex'
p452
g35
(g70
S'\x10\x00\x00\x00'
p453
tp454
Rp455
sg34
g44
sS'block.thisN'
p456
I0
sS'stim.thisN'
p457
I16
sg55
g78
sg59
g79
sg21
g22
sg30
g33
sS'trials.thisIndex'
p458
g83
sS'stim.thisRepN'
p459
I0
sg23
g28
sg58
g139
sS'trials.thisRepN'
p460
I0
sS'trials.thisN'
p461
I0
sg57
g35
(g90
S'\x11\x00\x00\x00\x00\x00\x00\x00'
p462
tp463
Rp464
sg29
g11
sS'trials.thisTrialN'
p465
I0
sS'block.thisIndex'
p466
g100
sg54
g35
(g90
S'\x01\x00\x00\x00\x00\x00\x00\x00'
p467
tp468
Rp469
sa(dp470
S'block.thisTrialN'
p471
I0
sS'stim.thisTrialN'
p472
I17
sS'block.thisRepN'
p473
I0
sg56
g66
sS'stim.thisIndex'
p474
g35
(g70
S'\x11\x00\x00\x00'
p475
tp476
Rp477
sg34
g44
sS'block.thisN'
p478
I0
sS'stim.thisN'
p479
I17
sg55
g78
sg59
g79
sg21
g22
sg30
g33
sS'trials.thisIndex'
p480
g83
sS'stim.thisRepN'
p481
I0
sg23
g28
sg58
VG
p482
sS'trials.thisRepN'
p483
I0
sS'trials.thisN'
p484
I0
sg57
g35
(g90
S'\x12\x00\x00\x00\x00\x00\x00\x00'
p485
tp486
Rp487
sg29
g11
sS'trials.thisTrialN'
p488
I0
sS'block.thisIndex'
p489
g100
sg54
g35
(g90
S'\x01\x00\x00\x00\x00\x00\x00\x00'
p490
tp491
Rp492
sa(dp493
S'block.thisTrialN'
p494
I0
sS'block.thisRepN'
p495
I0
sg16
S'5'
p496
sS'trials.thisRepN'
p497
I0
sg15
F1.129598671104759
sS'block.thisN'
p498
I0
sg34
g44
sS'trials.thisN'
p499
I0
sg14
g496
sg29
g11
sS'trials.thisTrialN'
p500
I0
sg30
g33
sS'trials.thisIndex'
p501
g83
sg21
g22
sg23
g28
sS'block.thisIndex'
p502
g100
sg17
F0.1522959052817896
sa(dp503
S'block.thisTrialN'
p504
I0
sS'stim.thisTrialN'
p505
I0
sS'block.thisRepN'
p506
I0
sS'Tx'
p507
Vt1
p508
sS'stim.thisIndex'
p509
g35
(g70
S'\x00\x00\x00\x00'
p510
tp511
Rp512
sg34
g44
sS'block.thisN'
p513
I0
sS'stim.thisN'
p514
I0
sS'sep_dur'
p515
Vshort
p516
sS'cond'
p517
Vtarget
p518
sg21
g22
sg30
g33
sS'trials.thisIndex'
p519
g35
(g70
S'\x00\x00\x00\x00'
p520
tp521
Rp522
sS'stim.thisRepN'
p523
I0
sg23
g28
sS'stimulus'
p524
V7
p525
sS'trials.thisRepN'
p526
I1
sS'trials.thisN'
p527
I1
sS'trial'
p528
g35
(g90
S'\x01\x00\x00\x00\x00\x00\x00\x00'
p529
tp530
Rp531
sg29
g11
sS'trials.thisTrialN'
p532
I0
sS'block.thisIndex'
p533
g100
sS'block'
p534
g35
(g90
S'\x02\x00\x00\x00\x00\x00\x00\x00'
p535
tp536
Rp537
sa(dp538
S'block.thisTrialN'
p539
I0
sS'stim.thisTrialN'
p540
I1
sS'block.thisRepN'
p541
I0
sg507
g508
sS'stim.thisIndex'
p542
g35
(g70
S'\x01\x00\x00\x00'
p543
tp544
Rp545
sg34
g44
sS'block.thisN'
p546
I0
sS'stim.thisN'
p547
I1
sg515
g516
sg517
Vdistractor
p548
sg21
g22
sg30
g33
sS'trials.thisIndex'
p549
g522
sS'stim.thisRepN'
p550
I0
sg23
g28
sg524
VA
p551
sS'trials.thisRepN'
p552
I1
sS'trials.thisN'
p553
I1
sg528
g35
(g90
S'\x02\x00\x00\x00\x00\x00\x00\x00'
p554
tp555
Rp556
sg29
g11
sS'trials.thisTrialN'
p557
I0
sS'block.thisIndex'
p558
g100
sg534
g35
(g90
S'\x02\x00\x00\x00\x00\x00\x00\x00'
p559
tp560
Rp561
sa(dp562
S'block.thisTrialN'
p563
I0
sS'stim.thisTrialN'
p564
I2
sS'block.thisRepN'
p565
I0
sg507
g508
sS'stim.thisIndex'
p566
g35
(g70
S'\x02\x00\x00\x00'
p567
tp568
Rp569
sg34
g44
sS'block.thisN'
p570
I0
sS'stim.thisN'
p571
I2
sg515
g516
sg517
g548
sg21
g22
sg30
g33
sS'trials.thisIndex'
p572
g522
sS'stim.thisRepN'
p573
I0
sg23
g28
sg524
g253
sS'trials.thisRepN'
p574
I1
sS'trials.thisN'
p575
I1
sg528
g35
(g90
S'\x03\x00\x00\x00\x00\x00\x00\x00'
p576
tp577
Rp578
sg29
g11
sS'trials.thisTrialN'
p579
I0
sS'block.thisIndex'
p580
g100
sg534
g35
(g90
S'\x02\x00\x00\x00\x00\x00\x00\x00'
p581
tp582
Rp583
sa(dp584
S'block.thisTrialN'
p585
I0
sS'stim.thisTrialN'
p586
I3
sS'block.thisRepN'
p587
I0
sg507
g508
sS'stim.thisIndex'
p588
g35
(g70
S'\x03\x00\x00\x00'
p589
tp590
Rp591
sg34
g44
sS'block.thisN'
p592
I0
sS'stim.thisN'
p593
I3
sg515
g516
sg517
g548
sg21
g22
sg30
g33
sS'trials.thisIndex'
p594
g522
sS'stim.thisRepN'
p595
I0
sg23
g28
sg524
VU
p596
sS'trials.thisRepN'
p597
I1
sS'trials.thisN'
p598
I1
sg528
g35
(g90
S'\x04\x00\x00\x00\x00\x00\x00\x00'
p599
tp600
Rp601
sg29
g11
sS'trials.thisTrialN'
p602
I0
sS'block.thisIndex'
p603
g100
sg534
g35
(g90
S'\x02\x00\x00\x00\x00\x00\x00\x00'
p604
tp605
Rp606
sa(dp607
S'block.thisTrialN'
p608
I0
sS'stim.thisTrialN'
p609
I4
sS'block.thisRepN'
p610
I0
sg507
g508
sS'stim.thisIndex'
p611
g35
(g70
S'\x04\x00\x00\x00'
p612
tp613
Rp614
sg34
g44
sS'block.thisN'
p615
I0
sS'stim.thisN'
p616
I4
sg515
g516
sg517
Vmask
p617
sg21
g22
sg30
g33
sS'trials.thisIndex'
p618
g522
sS'stim.thisRepN'
p619
I0
sg23
g28
sg524
g391
sS'trials.thisRepN'
p620
I1
sS'trials.thisN'
p621
I1
sg528
g35
(g90
S'\x05\x00\x00\x00\x00\x00\x00\x00'
p622
tp623
Rp624
sg29
g11
sS'trials.thisTrialN'
p625
I0
sS'block.thisIndex'
p626
g100
sg534
g35
(g90
S'\x02\x00\x00\x00\x00\x00\x00\x00'
p627
tp628
Rp629
sa(dp630
S'block.thisTrialN'
p631
I0
sS'stim.thisTrialN'
p632
I5
sS'block.thisRepN'
p633
I0
sg507
g508
sS'stim.thisIndex'
p634
g35
(g70
S'\x05\x00\x00\x00'
p635
tp636
Rp637
sg34
g44
sS'block.thisN'
p638
I0
sS'stim.thisN'
p639
I5
sg515
g516
sg517
g548
sg21
g22
sg30
g33
sS'trials.thisIndex'
p640
g522
sS'stim.thisRepN'
p641
I0
sg23
g28
sg524
g185
sS'trials.thisRepN'
p642
I1
sS'trials.thisN'
p643
I1
sg528
g35
(g90
S'\x06\x00\x00\x00\x00\x00\x00\x00'
p644
tp645
Rp646
sg29
g11
sS'trials.thisTrialN'
p647
I0
sS'block.thisIndex'
p648
g100
sg534
g35
(g90
S'\x02\x00\x00\x00\x00\x00\x00\x00'
p649
tp650
Rp651
sa(dp652
S'block.thisTrialN'
p653
I0
sS'stim.thisTrialN'
p654
I6
sS'block.thisRepN'
p655
I0
sg507
g508
sS'stim.thisIndex'
p656
g35
(g70
S'\x06\x00\x00\x00'
p657
tp658
Rp659
sg34
g44
sS'block.thisN'
p660
I0
sS'stim.thisN'
p661
I6
sg515
g516
sg517
g548
sg21
g22
sg30
g33
sS'trials.thisIndex'
p662
g522
sS'stim.thisRepN'
p663
I0
sg23
g28
sg524
g139
sS'trials.thisRepN'
p664
I1
sS'trials.thisN'
p665
I1
sg528
g35
(g90
S'\x07\x00\x00\x00\x00\x00\x00\x00'
p666
tp667
Rp668
sg29
g11
sS'trials.thisTrialN'
p669
I0
sS'block.thisIndex'
p670
g100
sg534
g35
(g90
S'\x02\x00\x00\x00\x00\x00\x00\x00'
p671
tp672
Rp673
sa(dp674
S'block.thisTrialN'
p675
I0
sS'stim.thisTrialN'
p676
I7
sS'block.thisRepN'
p677
I0
sg507
g508
sS'stim.thisIndex'
p678
g35
(g70
S'\x07\x00\x00\x00'
p679
tp680
Rp681
sg34
g44
sS'block.thisN'
p682
I0
sS'stim.thisN'
p683
I7
sg515
g516
sg517
g548
sg21
g22
sg30
g33
sS'trials.thisIndex'
p684
g522
sS'stim.thisRepN'
p685
I0
sg23
g28
sg524
g230
sS'trials.thisRepN'
p686
I1
sS'trials.thisN'
p687
I1
sg528
g35
(g90
S'\x08\x00\x00\x00\x00\x00\x00\x00'
p688
tp689
Rp690
sg29
g11
sS'trials.thisTrialN'
p691
I0
sS'block.thisIndex'
p692
g100
sg534
g35
(g90
S'\x02\x00\x00\x00\x00\x00\x00\x00'
p693
tp694
Rp695
sa(dp696
S'block.thisTrialN'
p697
I0
sS'stim.thisTrialN'
p698
I8
sS'block.thisRepN'
p699
I0
sg507
g508
sS'stim.thisIndex'
p700
g35
(g70
S'\x08\x00\x00\x00'
p701
tp702
Rp703
sg34
g44
sS'block.thisN'
p704
I0
sS'stim.thisN'
p705
I8
sg515
g516
sg517
g548
sg21
g22
sg30
g33
sS'trials.thisIndex'
p706
g522
sS'stim.thisRepN'
p707
I0
sg23
g28
sg524
VF
p708
sS'trials.thisRepN'
p709
I1
sS'trials.thisN'
p710
I1
sg528
g35
(g90
S'\t\x00\x00\x00\x00\x00\x00\x00'
p711
tp712
Rp713
sg29
g11
sS'trials.thisTrialN'
p714
I0
sS'block.thisIndex'
p715
g100
sg534
g35
(g90
S'\x02\x00\x00\x00\x00\x00\x00\x00'
p716
tp717
Rp718
sa(dp719
S'block.thisTrialN'
p720
I0
sS'stim.thisTrialN'
p721
I9
sS'block.thisRepN'
p722
I0
sg507
g508
sS'stim.thisIndex'
p723
g35
(g70
S'\t\x00\x00\x00'
p724
tp725
Rp726
sg34
g44
sS'block.thisN'
p727
I0
sS'stim.thisN'
p728
I9
sg515
g516
sg517
g548
sg21
g22
sg30
g33
sS'trials.thisIndex'
p729
g522
sS'stim.thisRepN'
p730
I0
sg23
g28
sg524
g85
sS'trials.thisRepN'
p731
I1
sS'trials.thisN'
p732
I1
sg528
g35
(g90
S'\n\x00\x00\x00\x00\x00\x00\x00'
p733
tp734
Rp735
sg29
g11
sS'trials.thisTrialN'
p736
I0
sS'block.thisIndex'
p737
g100
sg534
g35
(g90
S'\x02\x00\x00\x00\x00\x00\x00\x00'
p738
tp739
Rp740
sa(dp741
S'block.thisTrialN'
p742
I0
sS'stim.thisTrialN'
p743
I10
sS'block.thisRepN'
p744
I0
sg507
g508
sS'stim.thisIndex'
p745
g35
(g70
S'\n\x00\x00\x00'
p746
tp747
Rp748
sg34
g44
sS'block.thisN'
p749
I0
sS'stim.thisN'
p750
I10
sg515
g516
sg517
g548
sg21
g22
sg30
g33
sS'trials.thisIndex'
p751
g522
sS'stim.thisRepN'
p752
I0
sg23
g28
sg524
g139
sS'trials.thisRepN'
p753
I1
sS'trials.thisN'
p754
I1
sg528
g35
(g90
S'\x0b\x00\x00\x00\x00\x00\x00\x00'
p755
tp756
Rp757
sg29
g11
sS'trials.thisTrialN'
p758
I0
sS'block.thisIndex'
p759
g100
sg534
g35
(g90
S'\x02\x00\x00\x00\x00\x00\x00\x00'
p760
tp761
Rp762
sa(dp763
S'block.thisTrialN'
p764
I0
sS'stim.thisTrialN'
p765
I11
sS'block.thisRepN'
p766
I0
sg507
g508
sS'stim.thisIndex'
p767
g35
(g70
S'\x0b\x00\x00\x00'
p768
tp769
Rp770
sg34
g44
sS'block.thisN'
p771
I0
sS'stim.thisN'
p772
I11
sg515
g516
sg517
g548
sg21
g22
sg30
g33
sS'trials.thisIndex'
p773
g522
sS'stim.thisRepN'
p774
I0
sg23
g28
sg524
VB
p775
sS'trials.thisRepN'
p776
I1
sS'trials.thisN'
p777
I1
sg528
g35
(g90
S'\x0c\x00\x00\x00\x00\x00\x00\x00'
p778
tp779
Rp780
sg29
g11
sS'trials.thisTrialN'
p781
I0
sS'block.thisIndex'
p782
g100
sg534
g35
(g90
S'\x02\x00\x00\x00\x00\x00\x00\x00'
p783
tp784
Rp785
sa(dp786
S'block.thisTrialN'
p787
I0
sS'stim.thisTrialN'
p788
I12
sS'block.thisRepN'
p789
I0
sg507
g508
sS'stim.thisIndex'
p790
g35
(g70
S'\x0c\x00\x00\x00'
p791
tp792
Rp793
sg34
g44
sS'block.thisN'
p794
I0
sS'stim.thisN'
p795
I12
sg515
g516
sg517
g548
sg21
g22
sg30
g33
sS'trials.thisIndex'
p796
g522
sS'stim.thisRepN'
p797
I0
sg23
g28
sg524
VY
p798
sS'trials.thisRepN'
p799
I1
sS'trials.thisN'
p800
I1
sg528
g35
(g90
S'\r\x00\x00\x00\x00\x00\x00\x00'
p801
tp802
Rp803
sg29
g11
sS'trials.thisTrialN'
p804
I0
sS'block.thisIndex'
p805
g100
sg534
g35
(g90
S'\x02\x00\x00\x00\x00\x00\x00\x00'
p806
tp807
Rp808
sa(dp809
S'block.thisTrialN'
p810
I0
sS'stim.thisTrialN'
p811
I13
sS'block.thisRepN'
p812
I0
sg507
g508
sS'stim.thisIndex'
p813
g35
(g70
S'\r\x00\x00\x00'
p814
tp815
Rp816
sg34
g44
sS'block.thisN'
p817
I0
sS'stim.thisN'
p818
I13
sg515
g516
sg517
g548
sg21
g22
sg30
g33
sS'trials.thisIndex'
p819
g522
sS'stim.thisRepN'
p820
I0
sg23
g28
sg524
g162
sS'trials.thisRepN'
p821
I1
sS'trials.thisN'
p822
I1
sg528
g35
(g90
S'\x0e\x00\x00\x00\x00\x00\x00\x00'
p823
tp824
Rp825
sg29
g11
sS'trials.thisTrialN'
p826
I0
sS'block.thisIndex'
p827
g100
sg534
g35
(g90
S'\x02\x00\x00\x00\x00\x00\x00\x00'
p828
tp829
Rp830
sa(dp831
S'block.thisTrialN'
p832
I0
sS'stim.thisTrialN'
p833
I14
sS'block.thisRepN'
p834
I0
sg507
g508
sS'stim.thisIndex'
p835
g35
(g70
S'\x0e\x00\x00\x00'
p836
tp837
Rp838
sg34
g44
sS'block.thisN'
p839
I0
sS'stim.thisN'
p840
I14
sg515
g516
sg517
g548
sg21
g22
sg30
g33
sS'trials.thisIndex'
p841
g522
sS'stim.thisRepN'
p842
I0
sg23
g28
sg524
VP
p843
sS'trials.thisRepN'
p844
I1
sS'trials.thisN'
p845
I1
sg528
g35
(g90
S'\x0f\x00\x00\x00\x00\x00\x00\x00'
p846
tp847
Rp848
sg29
g11
sS'trials.thisTrialN'
p849
I0
sS'block.thisIndex'
p850
g100
sg534
g35
(g90
S'\x02\x00\x00\x00\x00\x00\x00\x00'
p851
tp852
Rp853
sa(dp854
S'block.thisTrialN'
p855
I0
sS'block.thisRepN'
p856
I0
sg16
g496
sS'trials.thisRepN'
p857
I1
sg15
F0.3828401288483292
sS'block.thisN'
p858
I0
sg34
g44
sS'trials.thisN'
p859
I1
sg14
g496
sg29
g11
sS'trials.thisTrialN'
p860
I0
sg30
g33
sS'trials.thisIndex'
p861
g522
sg21
g22
sg23
g28
sS'block.thisIndex'
p862
g100
sg17
F0.8026587177300826
sa(dp863
S'block.thisTrialN'
p864
I0
sS'stim.thisTrialN'
p865
I0
sS'block.thisRepN'
p866
I0
sS'Tx'
p867
Vt1
p868
sS'stim.thisIndex'
p869
g35
(g70
S'\x00\x00\x00\x00'
p870
tp871
Rp872
sg34
g44
sS'block.thisN'
p873
I0
sS'stim.thisN'
p874
I0
sS'sep_dur'
p875
Vshort
p876
sS'cond'
p877
Vdistractor
p878
sg21
g22
sg30
g33
sS'trials.thisIndex'
p879
g35
(g70
S'\x00\x00\x00\x00'
p880
tp881
Rp882
sS'stim.thisRepN'
p883
I0
sg23
g28
sS'stimulus'
p884
VX
p885
sS'trials.thisRepN'
p886
I2
sS'trials.thisN'
p887
I2
sS'trial'
p888
g35
(g90
S'\x01\x00\x00\x00\x00\x00\x00\x00'
p889
tp890
Rp891
sg29
g11
sS'trials.thisTrialN'
p892
I0
sS'block.thisIndex'
p893
g100
sS'block'
p894
g35
(g90
S'\x03\x00\x00\x00\x00\x00\x00\x00'
p895
tp896
Rp897
sa(dp898
S'block.thisTrialN'
p899
I0
sS'stim.thisTrialN'
p900
I1
sS'block.thisRepN'
p901
I0
sg867
g868
sS'stim.thisIndex'
p902
g35
(g70
S'\x01\x00\x00\x00'
p903
tp904
Rp905
sg34
g44
sS'block.thisN'
p906
I0
sS'stim.thisN'
p907
I1
sg875
g876
sg877
g878
sg21
g22
sg30
g33
sS'trials.thisIndex'
p908
g882
sS'stim.thisRepN'
p909
I0
sg23
g28
sg884
g162
sS'trials.thisRepN'
p910
I2
sS'trials.thisN'
p911
I2
sg888
g35
(g90
S'\x02\x00\x00\x00\x00\x00\x00\x00'
p912
tp913
Rp914
sg29
g11
sS'trials.thisTrialN'
p915
I0
sS'block.thisIndex'
p916
g100
sg894
g35
(g90
S'\x03\x00\x00\x00\x00\x00\x00\x00'
p917
tp918
Rp919
sa(dp920
S'block.thisTrialN'
p921
I0
sS'stim.thisTrialN'
p922
I2
sS'block.thisRepN'
p923
I0
sg867
g868
sS'stim.thisIndex'
p924
g35
(g70
S'\x02\x00\x00\x00'
p925
tp926
Rp927
sg34
g44
sS'block.thisN'
p928
I0
sS'stim.thisN'
p929
I2
sg875
g876
sg877
g878
sg21
g22
sg30
g33
sS'trials.thisIndex'
p930
g882
sS'stim.thisRepN'
p931
I0
sg23
g28
sg884
g253
sS'trials.thisRepN'
p932
I2
sS'trials.thisN'
p933
I2
sg888
g35
(g90
S'\x03\x00\x00\x00\x00\x00\x00\x00'
p934
tp935
Rp936
sg29
g11
sS'trials.thisTrialN'
p937
I0
sS'block.thisIndex'
p938
g100
sg894
g35
(g90
S'\x03\x00\x00\x00\x00\x00\x00\x00'
p939
tp940
Rp941
sa(dp942
S'block.thisTrialN'
p943
I0
sS'stim.thisTrialN'
p944
I3
sS'block.thisRepN'
p945
I0
sg867
g868
sS'stim.thisIndex'
p946
g35
(g70
S'\x03\x00\x00\x00'
p947
tp948
Rp949
sg34
g44
sS'block.thisN'
p950
I0
sS'stim.thisN'
p951
I3
sg875
g876
sg877
g878
sg21
g22
sg30
g33
sS'trials.thisIndex'
p952
g882
sS'stim.thisRepN'
p953
I0
sg23
g28
sg884
g437
sS'trials.thisRepN'
p954
I2
sS'trials.thisN'
p955
I2
sg888
g35
(g90
S'\x04\x00\x00\x00\x00\x00\x00\x00'
p956
tp957
Rp958
sg29
g11
sS'trials.thisTrialN'
p959
I0
sS'block.thisIndex'
p960
g100
sg894
g35
(g90
S'\x03\x00\x00\x00\x00\x00\x00\x00'
p961
tp962
Rp963
sa(dp964
S'block.thisTrialN'
p965
I0
sS'stim.thisTrialN'
p966
I4
sS'block.thisRepN'
p967
I0
sg867
g868
sS'stim.thisIndex'
p968
g35
(g70
S'\x04\x00\x00\x00'
p969
tp970
Rp971
sg34
g44
sS'block.thisN'
p972
I0
sS'stim.thisN'
p973
I4
sg875
g876
sg877
g878
sg21
g22
sg30
g33
sS'trials.thisIndex'
p974
g882
sS'stim.thisRepN'
p975
I0
sg23
g28
sg884
VO
p976
sS'trials.thisRepN'
p977
I2
sS'trials.thisN'
p978
I2
sg888
g35
(g90
S'\x05\x00\x00\x00\x00\x00\x00\x00'
p979
tp980
Rp981
sg29
g11
sS'trials.thisTrialN'
p982
I0
sS'block.thisIndex'
p983
g100
sg894
g35
(g90
S'\x03\x00\x00\x00\x00\x00\x00\x00'
p984
tp985
Rp986
sa(dp987
S'block.thisTrialN'
p988
I0
sS'stim.thisTrialN'
p989
I5
sS'block.thisRepN'
p990
I0
sg867
g868
sS'stim.thisIndex'
p991
g35
(g70
S'\x05\x00\x00\x00'
p992
tp993
Rp994
sg34
g44
sS'block.thisN'
p995
I0
sS'stim.thisN'
p996
I5
sg875
g876
sg877
g878
sg21
g22
sg30
g33
sS'trials.thisIndex'
p997
g882
sS'stim.thisRepN'
p998
I0
sg23
g28
sg884
VH
p999
sS'trials.thisRepN'
p1000
I2
sS'trials.thisN'
p1001
I2
sg888
g35
(g90
S'\x06\x00\x00\x00\x00\x00\x00\x00'
p1002
tp1003
Rp1004
sg29
g11
sS'trials.thisTrialN'
p1005
I0
sS'block.thisIndex'
p1006
g100
sg894
g35
(g90
S'\x03\x00\x00\x00\x00\x00\x00\x00'
p1007
tp1008
Rp1009
sa(dp1010
S'block.thisTrialN'
p1011
I0
sS'stim.thisTrialN'
p1012
I6
sS'block.thisRepN'
p1013
I0
sg867
g868
sS'stim.thisIndex'
p1014
g35
(g70
S'\x06\x00\x00\x00'
p1015
tp1016
Rp1017
sg34
g44
sS'block.thisN'
p1018
I0
sS'stim.thisN'
p1019
I6
sg875
g876
sg877
g878
sg21
g22
sg30
g33
sS'trials.thisIndex'
p1020
g882
sS'stim.thisRepN'
p1021
I0
sg23
g28
sg884
g345
sS'trials.thisRepN'
p1022
I2
sS'trials.thisN'
p1023
I2
sg888
g35
(g90
S'\x07\x00\x00\x00\x00\x00\x00\x00'
p1024
tp1025
Rp1026
sg29
g11
sS'trials.thisTrialN'
p1027
I0
sS'block.thisIndex'
p1028
g100
sg894
g35
(g90
S'\x03\x00\x00\x00\x00\x00\x00\x00'
p1029
tp1030
Rp1031
sa(dp1032
S'block.thisTrialN'
p1033
I0
sS'stim.thisTrialN'
p1034
I7
sS'block.thisRepN'
p1035
I0
sg867
g868
sS'stim.thisIndex'
p1036
g35
(g70
S'\x07\x00\x00\x00'
p1037
tp1038
Rp1039
sg34
g44
sS'block.thisN'
p1040
I0
sS'stim.thisN'
p1041
I7
sg875
g876
sg877
Vtarget
p1042
sg21
g22
sg30
g33
sS'trials.thisIndex'
p1043
g882
sS'stim.thisRepN'
p1044
I0
sg23
g28
sg884
V4
p1045
sS'trials.thisRepN'
p1046
I2
sS'trials.thisN'
p1047
I2
sg888
g35
(g90
S'\x08\x00\x00\x00\x00\x00\x00\x00'
p1048
tp1049
Rp1050
sg29
g11
sS'trials.thisTrialN'
p1051
I0
sS'block.thisIndex'
p1052
g100
sg894
g35
(g90
S'\x03\x00\x00\x00\x00\x00\x00\x00'
p1053
tp1054
Rp1055
sa(dp1056
S'block.thisTrialN'
p1057
I0
sS'stim.thisTrialN'
p1058
I8
sS'block.thisRepN'
p1059
I0
sg867
g868
sS'stim.thisIndex'
p1060
g35
(g70
S'\x08\x00\x00\x00'
p1061
tp1062
Rp1063
sg34
g44
sS'block.thisN'
p1064
I0
sS'stim.thisN'
p1065
I8
sg875
g876
sg877
g878
sg21
g22
sg30
g33
sS'trials.thisIndex'
p1066
g882
sS'stim.thisRepN'
p1067
I0
sg23
g28
sg884
VR
p1068
sS'trials.thisRepN'
p1069
I2
sS'trials.thisN'
p1070
I2
sg888
g35
(g90
S'\t\x00\x00\x00\x00\x00\x00\x00'
p1071
tp1072
Rp1073
sg29
g11
sS'trials.thisTrialN'
p1074
I0
sS'block.thisIndex'
p1075
g100
sg894
g35
(g90
S'\x03\x00\x00\x00\x00\x00\x00\x00'
p1076
tp1077
Rp1078
sa(dp1079
S'block.thisTrialN'
p1080
I0
sS'stim.thisTrialN'
p1081
I9
sS'block.thisRepN'
p1082
I0
sg867
g868
sS'stim.thisIndex'
p1083
g35
(g70
S'\t\x00\x00\x00'
p1084
tp1085
Rp1086
sg34
g44
sS'block.thisN'
p1087
I0
sS'stim.thisN'
p1088
I9
sg875
g876
sg877
g878
sg21
g22
sg30
g33
sS'trials.thisIndex'
p1089
g882
sS'stim.thisRepN'
p1090
I0
sg23
g28
sg884
g345
sS'trials.thisRepN'
p1091
I2
sS'trials.thisN'
p1092
I2
sg888
g35
(g90
S'\n\x00\x00\x00\x00\x00\x00\x00'
p1093
tp1094
Rp1095
sg29
g11
sS'trials.thisTrialN'
p1096
I0
sS'block.thisIndex'
p1097
g100
sg894
g35
(g90
S'\x03\x00\x00\x00\x00\x00\x00\x00'
p1098
tp1099
Rp1100
sa(dp1101
S'block.thisTrialN'
p1102
I0
sS'stim.thisTrialN'
p1103
I10
sS'block.thisRepN'
p1104
I0
sg867
g868
sS'stim.thisIndex'
p1105
g35
(g70
S'\n\x00\x00\x00'
p1106
tp1107
Rp1108
sg34
g44
sS'block.thisN'
p1109
I0
sS'stim.thisN'
p1110
I10
sg875
g876
sg877
g878
sg21
g22
sg30
g33
sS'trials.thisIndex'
p1111
g882
sS'stim.thisRepN'
p1112
I0
sg23
g28
sg884
g596
sS'trials.thisRepN'
p1113
I2
sS'trials.thisN'
p1114
I2
sg888
g35
(g90
S'\x0b\x00\x00\x00\x00\x00\x00\x00'
p1115
tp1116
Rp1117
sg29
g11
sS'trials.thisTrialN'
p1118
I0
sS'block.thisIndex'
p1119
g100
sg894
g35
(g90
S'\x03\x00\x00\x00\x00\x00\x00\x00'
p1120
tp1121
Rp1122
sa(dp1123
S'block.thisTrialN'
p1124
I0
sS'stim.thisTrialN'
p1125
I11
sS'block.thisRepN'
p1126
I0
sg867
g868
sS'stim.thisIndex'
p1127
g35
(g70
S'\x0b\x00\x00\x00'
p1128
tp1129
Rp1130
sg34
g44
sS'block.thisN'
p1131
I0
sS'stim.thisN'
p1132
I11
sg875
g876
sg877
Vmask
p1133
sg21
g22
sg30
g33
sS'trials.thisIndex'
p1134
g882
sS'stim.thisRepN'
p1135
I0
sg23
g28
sg884
g391
sS'trials.thisRepN'
p1136
I2
sS'trials.thisN'
p1137
I2
sg888
g35
(g90
S'\x0c\x00\x00\x00\x00\x00\x00\x00'
p1138
tp1139
Rp1140
sg29
g11
sS'trials.thisTrialN'
p1141
I0
sS'block.thisIndex'
p1142
g100
sg894
g35
(g90
S'\x03\x00\x00\x00\x00\x00\x00\x00'
p1143
tp1144
Rp1145
sa(dp1146
S'block.thisTrialN'
p1147
I0
sS'stim.thisTrialN'
p1148
I12
sS'block.thisRepN'
p1149
I0
sg867
g868
sS'stim.thisIndex'
p1150
g35
(g70
S'\x0c\x00\x00\x00'
p1151
tp1152
Rp1153
sg34
g44
sS'block.thisN'
p1154
I0
sS'stim.thisN'
p1155
I12
sg875
g876
sg877
g878
sg21
g22
sg30
g33
sS'trials.thisIndex'
p1156
g882
sS'stim.thisRepN'
p1157
I0
sg23
g28
sg884
g116
sS'trials.thisRepN'
p1158
I2
sS'trials.thisN'
p1159
I2
sg888
g35
(g90
S'\r\x00\x00\x00\x00\x00\x00\x00'
p1160
tp1161
Rp1162
sg29
g11
sS'trials.thisTrialN'
p1163
I0
sS'block.thisIndex'
p1164
g100
sg894
g35
(g90
S'\x03\x00\x00\x00\x00\x00\x00\x00'
p1165
tp1166
Rp1167
sa(dp1168
S'block.thisTrialN'
p1169
I0
sS'stim.thisTrialN'
p1170
I13
sS'block.thisRepN'
p1171
I0
sg867
g868
sS'stim.thisIndex'
p1172
g35
(g70
S'\r\x00\x00\x00'
p1173
tp1174
Rp1175
sg34
g44
sS'block.thisN'
p1176
I0
sS'stim.thisN'
p1177
I13
sg875
g876
sg877
g878
sg21
g22
sg30
g33
sS'trials.thisIndex'
p1178
g882
sS'stim.thisRepN'
p1179
I0
sg23
g28
sg884
g139
sS'trials.thisRepN'
p1180
I2
sS'trials.thisN'
p1181
I2
sg888
g35
(g90
S'\x0e\x00\x00\x00\x00\x00\x00\x00'
p1182
tp1183
Rp1184
sg29
g11
sS'trials.thisTrialN'
p1185
I0
sS'block.thisIndex'
p1186
g100
sg894
g35
(g90
S'\x03\x00\x00\x00\x00\x00\x00\x00'
p1187
tp1188
Rp1189
sa(dp1190
S'block.thisTrialN'
p1191
I0
sS'stim.thisTrialN'
p1192
I14
sS'block.thisRepN'
p1193
I0
sg867
g868
sS'stim.thisIndex'
p1194
g35
(g70
S'\x0e\x00\x00\x00'
p1195
tp1196
Rp1197
sg34
g44
sS'block.thisN'
p1198
I0
sS'stim.thisN'
p1199
I14
sg875
g876
sg877
g878
sg21
g22
sg30
g33
sS'trials.thisIndex'
p1200
g882
sS'stim.thisRepN'
p1201
I0
sg23
g28
sg884
g775
sS'trials.thisRepN'
p1202
I2
sS'trials.thisN'
p1203
I2
sg888
g35
(g90
S'\x0f\x00\x00\x00\x00\x00\x00\x00'
p1204
tp1205
Rp1206
sg29
g11
sS'trials.thisTrialN'
p1207
I0
sS'block.thisIndex'
p1208
g100
sg894
g35
(g90
S'\x03\x00\x00\x00\x00\x00\x00\x00'
p1209
tp1210
Rp1211
sa(dp1212
S'block.thisTrialN'
p1213
I0
sS'block.thisRepN'
p1214
I0
sg16
g496
sS'trials.thisRepN'
p1215
I2
sg15
F0.3521777960122563
sS'block.thisN'
p1216
I0
sg34
g44
sS'trials.thisN'
p1217
I2
sg14
g496
sg29
g11
sS'trials.thisTrialN'
p1218
I0
sg30
g33
sS'trials.thisIndex'
p1219
g882
sg21
g22
sg23
g28
sS'block.thisIndex'
p1220
g100
sg17
F0.21393475285731256
sa(dp1221
S'block.thisTrialN'
p1222
I0
sS'stim.thisTrialN'
p1223
I0
sS'block.thisRepN'
p1224
I0
sS'Tx'
p1225
Vt1
p1226
sS'stim.thisIndex'
p1227
g35
(g70
S'\x00\x00\x00\x00'
p1228
tp1229
Rp1230
sg34
g44
sS'block.thisN'
p1231
I0
sS'stim.thisN'
p1232
I0
sS'sep_dur'
p1233
Vshort
p1234
sS'cond'
p1235
Vdistractor
p1236
sg21
g22
sg30
g33
sS'trials.thisIndex'
p1237
g35
(g70
S'\x00\x00\x00\x00'
p1238
tp1239
Rp1240
sS'stim.thisRepN'
p1241
I0
sg23
g28
sS'stimulus'
p1242
g482
sS'trials.thisRepN'
p1243
I3
sS'trials.thisN'
p1244
I3
sS'trial'
p1245
g35
(g90
S'\x01\x00\x00\x00\x00\x00\x00\x00'
p1246
tp1247
Rp1248
sg29
g11
sS'trials.thisTrialN'
p1249
I0
sS'block.thisIndex'
p1250
g100
sS'block'
p1251
g35
(g90
S'\x04\x00\x00\x00\x00\x00\x00\x00'
p1252
tp1253
Rp1254
sa(dp1255
S'block.thisTrialN'
p1256
I0
sS'stim.thisTrialN'
p1257
I1
sS'block.thisRepN'
p1258
I0
sg1225
g1226
sS'stim.thisIndex'
p1259
g35
(g70
S'\x01\x00\x00\x00'
p1260
tp1261
Rp1262
sg34
g44
sS'block.thisN'
p1263
I0
sS'stim.thisN'
p1264
I1
sg1233
g1234
sg1235
g1236
sg21
g22
sg30
g33
sS'trials.thisIndex'
p1265
g1240
sS'stim.thisRepN'
p1266
I0
sg23
g28
sg1242
g596
sS'trials.thisRepN'
p1267
I3
sS'trials.thisN'
p1268
I3
sg1245
g35
(g90
S'\x02\x00\x00\x00\x00\x00\x00\x00'
p1269
tp1270
Rp1271
sg29
g11
sS'trials.thisTrialN'
p1272
I0
sS'block.thisIndex'
p1273
g100
sg1251
g35
(g90
S'\x04\x00\x00\x00\x00\x00\x00\x00'
p1274
tp1275
Rp1276
sa(dp1277
S'block.thisTrialN'
p1278
I0
sS'stim.thisTrialN'
p1279
I2
sS'block.thisRepN'
p1280
I0
sg1225
g1226
sS'stim.thisIndex'
p1281
g35
(g70
S'\x02\x00\x00\x00'
p1282
tp1283
Rp1284
sg34
g44
sS'block.thisN'
p1285
I0
sS'stim.thisN'
p1286
I2
sg1233
g1234
sg1235
g1236
sg21
g22
sg30
g33
sS'trials.thisIndex'
p1287
g1240
sS'stim.thisRepN'
p1288
I0
sg23
g28
sg1242
g253
sS'trials.thisRepN'
p1289
I3
sS'trials.thisN'
p1290
I3
sg1245
g35
(g90
S'\x03\x00\x00\x00\x00\x00\x00\x00'
p1291
tp1292
Rp1293
sg29
g11
sS'trials.thisTrialN'
p1294
I0
sS'block.thisIndex'
p1295
g100
sg1251
g35
(g90
S'\x04\x00\x00\x00\x00\x00\x00\x00'
p1296
tp1297
Rp1298
sa(dp1299
S'block.thisTrialN'
p1300
I0
sS'stim.thisTrialN'
p1301
I3
sS'block.thisRepN'
p1302
I0
sg1225
g1226
sS'stim.thisIndex'
p1303
g35
(g70
S'\x03\x00\x00\x00'
p1304
tp1305
Rp1306
sg34
g44
sS'block.thisN'
p1307
I0
sS'stim.thisN'
p1308
I3
sg1233
g1234
sg1235
g1236
sg21
g22
sg30
g33
sS'trials.thisIndex'
p1309
g1240
sS'stim.thisRepN'
p1310
I0
sg23
g28
sg1242
g437
sS'trials.thisRepN'
p1311
I3
sS'trials.thisN'
p1312
I3
sg1245
g35
(g90
S'\x04\x00\x00\x00\x00\x00\x00\x00'
p1313
tp1314
Rp1315
sg29
g11
sS'trials.thisTrialN'
p1316
I0
sS'block.thisIndex'
p1317
g100
sg1251
g35
(g90
S'\x04\x00\x00\x00\x00\x00\x00\x00'
p1318
tp1319
Rp1320
sa(dp1321
S'block.thisTrialN'
p1322
I0
sS'stim.thisTrialN'
p1323
I4
sS'block.thisRepN'
p1324
I0
sg1225
g1226
sS'stim.thisIndex'
p1325
g35
(g70
S'\x04\x00\x00\x00'
p1326
tp1327
Rp1328
sg34
g44
sS'block.thisN'
p1329
I0
sS'stim.thisN'
p1330
I4
sg1233
g1234
sg1235
g1236
sg21
g22
sg30
g33
sS'trials.thisIndex'
p1331
g1240
sS'stim.thisRepN'
p1332
I0
sg23
g28
sg1242
VQ
p1333
sS'trials.thisRepN'
p1334
I3
sS'trials.thisN'
p1335
I3
sg1245
g35
(g90
S'\x05\x00\x00\x00\x00\x00\x00\x00'
p1336
tp1337
Rp1338
sg29
g11
sS'trials.thisTrialN'
p1339
I0
sS'block.thisIndex'
p1340
g100
sg1251
g35
(g90
S'\x04\x00\x00\x00\x00\x00\x00\x00'
p1341
tp1342
Rp1343
sa(dp1344
S'block.thisTrialN'
p1345
I0
sS'stim.thisTrialN'
p1346
I5
sS'block.thisRepN'
p1347
I0
sg1225
g1226
sS'stim.thisIndex'
p1348
g35
(g70
S'\x05\x00\x00\x00'
p1349
tp1350
Rp1351
sg34
g44
sS'block.thisN'
p1352
I0
sS'stim.thisN'
p1353
I5
sg1233
g1234
sg1235
g1236
sg21
g22
sg30
g33
sS'trials.thisIndex'
p1354
g1240
sS'stim.thisRepN'
p1355
I0
sg23
g28
sg1242
g775
sS'trials.thisRepN'
p1356
I3
sS'trials.thisN'
p1357
I3
sg1245
g35
(g90
S'\x06\x00\x00\x00\x00\x00\x00\x00'
p1358
tp1359
Rp1360
sg29
g11
sS'trials.thisTrialN'
p1361
I0
sS'block.thisIndex'
p1362
g100
sg1251
g35
(g90
S'\x04\x00\x00\x00\x00\x00\x00\x00'
p1363
tp1364
Rp1365
sa(dp1366
S'block.thisTrialN'
p1367
I0
sS'stim.thisTrialN'
p1368
I6
sS'block.thisRepN'
p1369
I0
sg1225
g1226
sS'stim.thisIndex'
p1370
g35
(g70
S'\x06\x00\x00\x00'
p1371
tp1372
Rp1373
sg34
g44
sS'block.thisN'
p1374
I0
sS'stim.thisN'
p1375
I6
sg1233
g1234
sg1235
g1236
sg21
g22
sg30
g33
sS'trials.thisIndex'
p1376
g1240
sS'stim.thisRepN'
p1377
I0
sg23
g28
sg1242
g139
sS'trials.thisRepN'
p1378
I3
sS'trials.thisN'
p1379
I3
sg1245
g35
(g90
S'\x07\x00\x00\x00\x00\x00\x00\x00'
p1380
tp1381
Rp1382
sg29
g11
sS'trials.thisTrialN'
p1383
I0
sS'block.thisIndex'
p1384
g100
sg1251
g35
(g90
S'\x04\x00\x00\x00\x00\x00\x00\x00'
p1385
tp1386
Rp1387
sa(dp1388
S'block.thisTrialN'
p1389
I0
sS'stim.thisTrialN'
p1390
I7
sS'block.thisRepN'
p1391
I0
sg1225
g1226
sS'stim.thisIndex'
p1392
g35
(g70
S'\x07\x00\x00\x00'
p1393
tp1394
Rp1395
sg34
g44
sS'block.thisN'
p1396
I0
sS'stim.thisN'
p1397
I7
sg1233
g1234
sg1235
Vtarget
p1398
sg21
g22
sg30
g33
sS'trials.thisIndex'
p1399
g1240
sS'stim.thisRepN'
p1400
I0
sg23
g28
sg1242
V5
p1401
sS'trials.thisRepN'
p1402
I3
sS'trials.thisN'
p1403
I3
sg1245
g35
(g90
S'\x08\x00\x00\x00\x00\x00\x00\x00'
p1404
tp1405
Rp1406
sg29
g11
sS'trials.thisTrialN'
p1407
I0
sS'block.thisIndex'
p1408
g100
sg1251
g35
(g90
S'\x04\x00\x00\x00\x00\x00\x00\x00'
p1409
tp1410
Rp1411
sa(dp1412
S'block.thisTrialN'
p1413
I0
sS'stim.thisTrialN'
p1414
I8
sS'block.thisRepN'
p1415
I0
sg1225
g1226
sS'stim.thisIndex'
p1416
g35
(g70
S'\x08\x00\x00\x00'
p1417
tp1418
Rp1419
sg34
g44
sS'block.thisN'
p1420
I0
sS'stim.thisN'
p1421
I8
sg1233
g1234
sg1235
g1236
sg21
g22
sg30
g33
sS'trials.thisIndex'
p1422
g1240
sS'stim.thisRepN'
p1423
I0
sg23
g28
sg1242
g1068
sS'trials.thisRepN'
p1424
I3
sS'trials.thisN'
p1425
I3
sg1245
g35
(g90
S'\t\x00\x00\x00\x00\x00\x00\x00'
p1426
tp1427
Rp1428
sg29
g11
sS'trials.thisTrialN'
p1429
I0
sS'block.thisIndex'
p1430
g100
sg1251
g35
(g90
S'\x04\x00\x00\x00\x00\x00\x00\x00'
p1431
tp1432
Rp1433
sa(dp1434
S'block.thisTrialN'
p1435
I0
sS'stim.thisTrialN'
p1436
I9
sS'block.thisRepN'
p1437
I0
sg1225
g1226
sS'stim.thisIndex'
p1438
g35
(g70
S'\t\x00\x00\x00'
p1439
tp1440
Rp1441
sg34
g44
sS'block.thisN'
p1442
I0
sS'stim.thisN'
p1443
I9
sg1233
g1234
sg1235
g1236
sg21
g22
sg30
g33
sS'trials.thisIndex'
p1444
g1240
sS'stim.thisRepN'
p1445
I0
sg23
g28
sg1242
g253
sS'trials.thisRepN'
p1446
I3
sS'trials.thisN'
p1447
I3
sg1245
g35
(g90
S'\n\x00\x00\x00\x00\x00\x00\x00'
p1448
tp1449
Rp1450
sg29
g11
sS'trials.thisTrialN'
p1451
I0
sS'block.thisIndex'
p1452
g100
sg1251
g35
(g90
S'\x04\x00\x00\x00\x00\x00\x00\x00'
p1453
tp1454
Rp1455
sa(dp1456
S'block.thisTrialN'
p1457
I0
sS'stim.thisTrialN'
p1458
I10
sS'block.thisRepN'
p1459
I0
sg1225
g1226
sS'stim.thisIndex'
p1460
g35
(g70
S'\n\x00\x00\x00'
p1461
tp1462
Rp1463
sg34
g44
sS'block.thisN'
p1464
I0
sS'stim.thisN'
p1465
I10
sg1233
g1234
sg1235
g1236
sg21
g22
sg30
g33
sS'trials.thisIndex'
p1466
g1240
sS'stim.thisRepN'
p1467
I0
sg23
g28
sg1242
g482
sS'trials.thisRepN'
p1468
I3
sS'trials.thisN'
p1469
I3
sg1245
g35
(g90
S'\x0b\x00\x00\x00\x00\x00\x00\x00'
p1470
tp1471
Rp1472
sg29
g11
sS'trials.thisTrialN'
p1473
I0
sS'block.thisIndex'
p1474
g100
sg1251
g35
(g90
S'\x04\x00\x00\x00\x00\x00\x00\x00'
p1475
tp1476
Rp1477
sa(dp1478
S'block.thisTrialN'
p1479
I0
sS'stim.thisTrialN'
p1480
I11
sS'block.thisRepN'
p1481
I0
sg1225
g1226
sS'stim.thisIndex'
p1482
g35
(g70
S'\x0b\x00\x00\x00'
p1483
tp1484
Rp1485
sg34
g44
sS'block.thisN'
p1486
I0
sS'stim.thisN'
p1487
I11
sg1233
g1234
sg1235
Vmask
p1488
sg21
g22
sg30
g33
sS'trials.thisIndex'
p1489
g1240
sS'stim.thisRepN'
p1490
I0
sg23
g28
sg1242
g391
sS'trials.thisRepN'
p1491
I3
sS'trials.thisN'
p1492
I3
sg1245
g35
(g90
S'\x0c\x00\x00\x00\x00\x00\x00\x00'
p1493
tp1494
Rp1495
sg29
g11
sS'trials.thisTrialN'
p1496
I0
sS'block.thisIndex'
p1497
g100
sg1251
g35
(g90
S'\x04\x00\x00\x00\x00\x00\x00\x00'
p1498
tp1499
Rp1500
sa(dp1501
S'block.thisTrialN'
p1502
I0
sS'stim.thisTrialN'
p1503
I12
sS'block.thisRepN'
p1504
I0
sg1225
g1226
sS'stim.thisIndex'
p1505
g35
(g70
S'\x0c\x00\x00\x00'
p1506
tp1507
Rp1508
sg34
g44
sS'block.thisN'
p1509
I0
sS'stim.thisN'
p1510
I12
sg1233
g1234
sg1235
g1236
sg21
g22
sg30
g33
sS'trials.thisIndex'
p1511
g1240
sS'stim.thisRepN'
p1512
I0
sg23
g28
sg1242
VE
p1513
sS'trials.thisRepN'
p1514
I3
sS'trials.thisN'
p1515
I3
sg1245
g35
(g90
S'\r\x00\x00\x00\x00\x00\x00\x00'
p1516
tp1517
Rp1518
sg29
g11
sS'trials.thisTrialN'
p1519
I0
sS'block.thisIndex'
p1520
g100
sg1251
g35
(g90
S'\x04\x00\x00\x00\x00\x00\x00\x00'
p1521
tp1522
Rp1523
sa(dp1524
S'block.thisTrialN'
p1525
I0
sS'stim.thisTrialN'
p1526
I13
sS'block.thisRepN'
p1527
I0
sg1225
g1226
sS'stim.thisIndex'
p1528
g35
(g70
S'\r\x00\x00\x00'
p1529
tp1530
Rp1531
sg34
g44
sS'block.thisN'
p1532
I0
sS'stim.thisN'
p1533
I13
sg1233
g1234
sg1235
g1236
sg21
g22
sg30
g33
sS'trials.thisIndex'
p1534
g1240
sS'stim.thisRepN'
p1535
I0
sg23
g28
sg1242
g345
sS'trials.thisRepN'
p1536
I3
sS'trials.thisN'
p1537
I3
sg1245
g35
(g90
S'\x0e\x00\x00\x00\x00\x00\x00\x00'
p1538
tp1539
Rp1540
sg29
g11
sS'trials.thisTrialN'
p1541
I0
sS'block.thisIndex'
p1542
g100
sg1251
g35
(g90
S'\x04\x00\x00\x00\x00\x00\x00\x00'
p1543
tp1544
Rp1545
sa(dp1546
S'block.thisTrialN'
p1547
I0
sS'stim.thisTrialN'
p1548
I14
sS'block.thisRepN'
p1549
I0
sg1225
g1226
sS'stim.thisIndex'
p1550
g35
(g70
S'\x0e\x00\x00\x00'
p1551
tp1552
Rp1553
sg34
g44
sS'block.thisN'
p1554
I0
sS'stim.thisN'
p1555
I14
sg1233
g1234
sg1235
g1236
sg21
g22
sg30
g33
sS'trials.thisIndex'
p1556
g1240
sS'stim.thisRepN'
p1557
I0
sg23
g28
sg1242
g230
sS'trials.thisRepN'
p1558
I3
sS'trials.thisN'
p1559
I3
sg1245
g35
(g90
S'\x0f\x00\x00\x00\x00\x00\x00\x00'
p1560
tp1561
Rp1562
sg29
g11
sS'trials.thisTrialN'
p1563
I0
sS'block.thisIndex'
p1564
g100
sg1251
g35
(g90
S'\x04\x00\x00\x00\x00\x00\x00\x00'
p1565
tp1566
Rp1567
sa(dp1568
S'block.thisTrialN'
p1569
I0
sS'block.thisRepN'
p1570
I0
sg16
g496
sS'trials.thisRepN'
p1571
I3
sg15
F0.6492476598359644
sS'block.thisN'
p1572
I0
sg34
g44
sS'trials.thisN'
p1573
I3
sg14
g496
sg29
g11
sS'trials.thisTrialN'
p1574
I0
sg30
g33
sS'trials.thisIndex'
p1575
g1240
sg21
g22
sg23
g28
sS'block.thisIndex'
p1576
g100
sg17
F0.21680457383627072
sa(dp1577
S'block.thisTrialN'
p1578
I0
sS'block.thisRepN'
p1579
I0
sg34
g44
sS'block.thisN'
p1580
I0
sg29
g11
sg30
g33
sg21
g22
sg23
g28
sS'block.thisIndex'
p1581
g100
sa(dp1582
S'block.thisTrialN'
p1583
I0
sS'stim.thisTrialN'
p1584
I0
sS'block.thisRepN'
p1585
I1
sS'Tx'
p1586
Vt1
p1587
sS'stim.thisIndex'
p1588
g35
(g70
S'\x00\x00\x00\x00'
p1589
tp1590
Rp1591
sg34
g44
sS'block.thisN'
p1592
I1
sS'stim.thisN'
p1593
I0
sS'sep_dur'
p1594
Vshort
p1595
sS'cond'
p1596
Vdistractor
p1597
sg21
g22
sg30
g33
sS'trials.thisIndex'
p1598
g35
(g70
S'\x00\x00\x00\x00'
p1599
tp1600
Rp1601
sS'stim.thisRepN'
p1602
I0
sg23
g28
sS'stimulus'
p1603
g116
sS'trials.thisRepN'
p1604
I0
sS'trials.thisN'
p1605
I0
sS'trial'
p1606
g35
(g90
S'\x01\x00\x00\x00\x00\x00\x00\x00'
p1607
tp1608
Rp1609
sg29
g11
sS'trials.thisTrialN'
p1610
I0
sS'block.thisIndex'
p1611
g35
(g70
S'\x00\x00\x00\x00'
p1612
tp1613
Rp1614
sS'block'
p1615
g35
(g90
S'\x05\x00\x00\x00\x00\x00\x00\x00'
p1616
tp1617
Rp1618
sa(dp1619
S'block.thisTrialN'
p1620
I0
sS'stim.thisTrialN'
p1621
I1
sS'block.thisRepN'
p1622
I1
sg1586
g1587
sS'stim.thisIndex'
p1623
g35
(g70
S'\x01\x00\x00\x00'
p1624
tp1625
Rp1626
sg34
g44
sS'block.thisN'
p1627
I1
sS'stim.thisN'
p1628
I1
sg1594
g1595
sg1596
g1597
sg21
g22
sg30
g33
sS'trials.thisIndex'
p1629
g1601
sS'stim.thisRepN'
p1630
I0
sg23
g28
sg1603
g999
sS'trials.thisRepN'
p1631
I0
sS'trials.thisN'
p1632
I0
sg1606
g35
(g90
S'\x02\x00\x00\x00\x00\x00\x00\x00'
p1633
tp1634
Rp1635
sg29
g11
sS'trials.thisTrialN'
p1636
I0
sS'block.thisIndex'
p1637
g1614
sg1615
g35
(g90
S'\x05\x00\x00\x00\x00\x00\x00\x00'
p1638
tp1639
Rp1640
sa(dp1641
S'block.thisTrialN'
p1642
I0
sS'stim.thisTrialN'
p1643
I2
sS'block.thisRepN'
p1644
I1
sg1586
g1587
sS'stim.thisIndex'
p1645
g35
(g70
S'\x02\x00\x00\x00'
p1646
tp1647
Rp1648
sg34
g44
sS'block.thisN'
p1649
I1
sS'stim.thisN'
p1650
I2
sg1594
g1595
sg1596
g1597
sg21
g22
sg30
g33
sS'trials.thisIndex'
p1651
g1601
sS'stim.thisRepN'
p1652
I0
sg23
g28
sg1603
g345
sS'trials.thisRepN'
p1653
I0
sS'trials.thisN'
p1654
I0
sg1606
g35
(g90
S'\x03\x00\x00\x00\x00\x00\x00\x00'
p1655
tp1656
Rp1657
sg29
g11
sS'trials.thisTrialN'
p1658
I0
sS'block.thisIndex'
p1659
g1614
sg1615
g35
(g90
S'\x05\x00\x00\x00\x00\x00\x00\x00'
p1660
tp1661
Rp1662
sa(dp1663
S'block.thisTrialN'
p1664
I0
sS'stim.thisTrialN'
p1665
I3
sS'block.thisRepN'
p1666
I1
sg1586
g1587
sS'stim.thisIndex'
p1667
g35
(g70
S'\x03\x00\x00\x00'
p1668
tp1669
Rp1670
sg34
g44
sS'block.thisN'
p1671
I1
sS'stim.thisN'
p1672
I3
sg1594
g1595
sg1596
g1597
sg21
g22
sg30
g33
sS'trials.thisIndex'
p1673
g1601
sS'stim.thisRepN'
p1674
I0
sg23
g28
sg1603
g1068
sS'trials.thisRepN'
p1675
I0
sS'trials.thisN'
p1676
I0
sg1606
g35
(g90
S'\x04\x00\x00\x00\x00\x00\x00\x00'
p1677
tp1678
Rp1679
sg29
g11
sS'trials.thisTrialN'
p1680
I0
sS'block.thisIndex'
p1681
g1614
sg1615
g35
(g90
S'\x05\x00\x00\x00\x00\x00\x00\x00'
p1682
tp1683
Rp1684
sa(dp1685
S'block.thisTrialN'
p1686
I0
sS'stim.thisTrialN'
p1687
I4
sS'block.thisRepN'
p1688
I1
sg1586
g1587
sS'stim.thisIndex'
p1689
g35
(g70
S'\x04\x00\x00\x00'
p1690
tp1691
Rp1692
sg34
g44
sS'block.thisN'
p1693
I1
sS'stim.thisN'
p1694
I4
sg1594
g1595
sg1596
g1597
sg21
g22
sg30
g33
sS'trials.thisIndex'
p1695
g1601
sS'stim.thisRepN'
p1696
I0
sg23
g28
sg1603
g230
sS'trials.thisRepN'
p1697
I0
sS'trials.thisN'
p1698
I0
sg1606
g35
(g90
S'\x05\x00\x00\x00\x00\x00\x00\x00'
p1699
tp1700
Rp1701
sg29
g11
sS'trials.thisTrialN'
p1702
I0
sS'block.thisIndex'
p1703
g1614
sg1615
g35
(g90
S'\x05\x00\x00\x00\x00\x00\x00\x00'
p1704
tp1705
Rp1706
sa(dp1707
S'block.thisTrialN'
p1708
I0
sS'stim.thisTrialN'
p1709
I5
sS'block.thisRepN'
p1710
I1
sg1586
g1587
sS'stim.thisIndex'
p1711
g35
(g70
S'\x05\x00\x00\x00'
p1712
tp1713
Rp1714
sg34
g44
sS'block.thisN'
p1715
I1
sS'stim.thisN'
p1716
I5
sg1594
g1595
sg1596
g1597
sg21
g22
sg30
g33
sS'trials.thisIndex'
p1717
g1601
sS'stim.thisRepN'
p1718
I0
sg23
g28
sg1603
g116
sS'trials.thisRepN'
p1719
I0
sS'trials.thisN'
p1720
I0
sg1606
g35
(g90
S'\x06\x00\x00\x00\x00\x00\x00\x00'
p1721
tp1722
Rp1723
sg29
g11
sS'trials.thisTrialN'
p1724
I0
sS'block.thisIndex'
p1725
g1614
sg1615
g35
(g90
S'\x05\x00\x00\x00\x00\x00\x00\x00'
p1726
tp1727
Rp1728
sa(dp1729
S'block.thisTrialN'
p1730
I0
sS'stim.thisTrialN'
p1731
I6
sS'block.thisRepN'
p1732
I1
sg1586
g1587
sS'stim.thisIndex'
p1733
g35
(g70
S'\x06\x00\x00\x00'
p1734
tp1735
Rp1736
sg34
g44
sS'block.thisN'
p1737
I1
sS'stim.thisN'
p1738
I6
sg1594
g1595
sg1596
g1597
sg21
g22
sg30
g33
sS'trials.thisIndex'
p1739
g1601
sS'stim.thisRepN'
p1740
I0
sg23
g28
sg1603
g482
sS'trials.thisRepN'
p1741
I0
sS'trials.thisN'
p1742
I0
sg1606
g35
(g90
S'\x07\x00\x00\x00\x00\x00\x00\x00'
p1743
tp1744
Rp1745
sg29
g11
sS'trials.thisTrialN'
p1746
I0
sS'block.thisIndex'
p1747
g1614
sg1615
g35
(g90
S'\x05\x00\x00\x00\x00\x00\x00\x00'
p1748
tp1749
Rp1750
sa(dp1751
S'block.thisTrialN'
p1752
I0
sS'stim.thisTrialN'
p1753
I7
sS'block.thisRepN'
p1754
I1
sg1586
g1587
sS'stim.thisIndex'
p1755
g35
(g70
S'\x07\x00\x00\x00'
p1756
tp1757
Rp1758
sg34
g44
sS'block.thisN'
p1759
I1
sS'stim.thisN'
p1760
I7
sg1594
g1595
sg1596
Vtarget
p1761
sg21
g22
sg30
g33
sS'trials.thisIndex'
p1762
g1601
sS'stim.thisRepN'
p1763
I0
sg23
g28
sg1603
V8
p1764
sS'trials.thisRepN'
p1765
I0
sS'trials.thisN'
p1766
I0
sg1606
g35
(g90
S'\x08\x00\x00\x00\x00\x00\x00\x00'
p1767
tp1768
Rp1769
sg29
g11
sS'trials.thisTrialN'
p1770
I0
sS'block.thisIndex'
p1771
g1614
sg1615
g35
(g90
S'\x05\x00\x00\x00\x00\x00\x00\x00'
p1772
tp1773
Rp1774
sa(dp1775
S'block.thisTrialN'
p1776
I0
sS'stim.thisTrialN'
p1777
I8
sS'block.thisRepN'
p1778
I1
sg1586
g1587
sS'stim.thisIndex'
p1779
g35
(g70
S'\x08\x00\x00\x00'
p1780
tp1781
Rp1782
sg34
g44
sS'block.thisN'
p1783
I1
sS'stim.thisN'
p1784
I8
sg1594
g1595
sg1596
g1597
sg21
g22
sg30
g33
sS'trials.thisIndex'
p1785
g1601
sS'stim.thisRepN'
p1786
I0
sg23
g28
sg1603
VD
p1787
sS'trials.thisRepN'
p1788
I0
sS'trials.thisN'
p1789
I0
sg1606
g35
(g90
S'\t\x00\x00\x00\x00\x00\x00\x00'
p1790
tp1791
Rp1792
sg29
g11
sS'trials.thisTrialN'
p1793
I0
sS'block.thisIndex'
p1794
g1614
sg1615
g35
(g90
S'\x05\x00\x00\x00\x00\x00\x00\x00'
p1795
tp1796
Rp1797
sa(dp1798
S'block.thisTrialN'
p1799
I0
sS'stim.thisTrialN'
p1800
I9
sS'block.thisRepN'
p1801
I1
sg1586
g1587
sS'stim.thisIndex'
p1802
g35
(g70
S'\t\x00\x00\x00'
p1803
tp1804
Rp1805
sg34
g44
sS'block.thisN'
p1806
I1
sS'stim.thisN'
p1807
I9
sg1594
g1595
sg1596
g1597
sg21
g22
sg30
g33
sS'trials.thisIndex'
p1808
g1601
sS'stim.thisRepN'
p1809
I0
sg23
g28
sg1603
g116
sS'trials.thisRepN'
p1810
I0
sS'trials.thisN'
p1811
I0
sg1606
g35
(g90
S'\n\x00\x00\x00\x00\x00\x00\x00'
p1812
tp1813
Rp1814
sg29
g11
sS'trials.thisTrialN'
p1815
I0
sS'block.thisIndex'
p1816
g1614
sg1615
g35
(g90
S'\x05\x00\x00\x00\x00\x00\x00\x00'
p1817
tp1818
Rp1819
sa(dp1820
S'block.thisTrialN'
p1821
I0
sS'stim.thisTrialN'
p1822
I10
sS'block.thisRepN'
p1823
I1
sg1586
g1587
sS'stim.thisIndex'
p1824
g35
(g70
S'\n\x00\x00\x00'
p1825
tp1826
Rp1827
sg34
g44
sS'block.thisN'
p1828
I1
sS'stim.thisN'
p1829
I10
sg1594
g1595
sg1596
g1597
sg21
g22
sg30
g33
sS'trials.thisIndex'
p1830
g1601
sS'stim.thisRepN'
p1831
I0
sg23
g28
sg1603
g1787
sS'trials.thisRepN'
p1832
I0
sS'trials.thisN'
p1833
I0
sg1606
g35
(g90
S'\x0b\x00\x00\x00\x00\x00\x00\x00'
p1834
tp1835
Rp1836
sg29
g11
sS'trials.thisTrialN'
p1837
I0
sS'block.thisIndex'
p1838
g1614
sg1615
g35
(g90
S'\x05\x00\x00\x00\x00\x00\x00\x00'
p1839
tp1840
Rp1841
sa(dp1842
S'block.thisTrialN'
p1843
I0
sS'stim.thisTrialN'
p1844
I11
sS'block.thisRepN'
p1845
I1
sg1586
g1587
sS'stim.thisIndex'
p1846
g35
(g70
S'\x0b\x00\x00\x00'
p1847
tp1848
Rp1849
sg34
g44
sS'block.thisN'
p1850
I1
sS'stim.thisN'
p1851
I11
sg1594
g1595
sg1596
Vmask
p1852
sg21
g22
sg30
g33
sS'trials.thisIndex'
p1853
g1601
sS'stim.thisRepN'
p1854
I0
sg23
g28
sg1603
g391
sS'trials.thisRepN'
p1855
I0
sS'trials.thisN'
p1856
I0
sg1606
g35
(g90
S'\x0c\x00\x00\x00\x00\x00\x00\x00'
p1857
tp1858
Rp1859
sg29
g11
sS'trials.thisTrialN'
p1860
I0
sS'block.thisIndex'
p1861
g1614
sg1615
g35
(g90
S'\x05\x00\x00\x00\x00\x00\x00\x00'
p1862
tp1863
Rp1864
sa(dp1865
S'block.thisTrialN'
p1866
I0
sS'stim.thisTrialN'
p1867
I12
sS'block.thisRepN'
p1868
I1
sg1586
g1587
sS'stim.thisIndex'
p1869
g35
(g70
S'\x0c\x00\x00\x00'
p1870
tp1871
Rp1872
sg34
g44
sS'block.thisN'
p1873
I1
sS'stim.thisN'
p1874
I12
sg1594
g1595
sg1596
g1597
sg21
g22
sg30
g33
sS'trials.thisIndex'
p1875
g1601
sS'stim.thisRepN'
p1876
I0
sg23
g28
sg1603
g1787
sS'trials.thisRepN'
p1877
I0
sS'trials.thisN'
p1878
I0
sg1606
g35
(g90
S'\r\x00\x00\x00\x00\x00\x00\x00'
p1879
tp1880
Rp1881
sg29
g11
sS'trials.thisTrialN'
p1882
I0
sS'block.thisIndex'
p1883
g1614
sg1615
g35
(g90
S'\x05\x00\x00\x00\x00\x00\x00\x00'
p1884
tp1885
Rp1886
sa(dp1887
S'block.thisTrialN'
p1888
I0
sS'stim.thisTrialN'
p1889
I13
sS'block.thisRepN'
p1890
I1
sg1586
g1587
sS'stim.thisIndex'
p1891
g35
(g70
S'\r\x00\x00\x00'
p1892
tp1893
Rp1894
sg34
g44
sS'block.thisN'
p1895
I1
sS'stim.thisN'
p1896
I13
sg1594
g1595
sg1596
g1597
sg21
g22
sg30
g33
sS'trials.thisIndex'
p1897
g1601
sS'stim.thisRepN'
p1898
I0
sg23
g28
sg1603
g414
sS'trials.thisRepN'
p1899
I0
sS'trials.thisN'
p1900
I0
sg1606
g35
(g90
S'\x0e\x00\x00\x00\x00\x00\x00\x00'
p1901
tp1902
Rp1903
sg29
g11
sS'trials.thisTrialN'
p1904
I0
sS'block.thisIndex'
p1905
g1614
sg1615
g35
(g90
S'\x05\x00\x00\x00\x00\x00\x00\x00'
p1906
tp1907
Rp1908
sa(dp1909
S'block.thisTrialN'
p1910
I0
sS'stim.thisTrialN'
p1911
I14
sS'block.thisRepN'
p1912
I1
sg1586
g1587
sS'stim.thisIndex'
p1913
g35
(g70
S'\x0e\x00\x00\x00'
p1914
tp1915
Rp1916
sg34
g44
sS'block.thisN'
p1917
I1
sS'stim.thisN'
p1918
I14
sg1594
g1595
sg1596
g1597
sg21
g22
sg30
g33
sS'trials.thisIndex'
p1919
g1601
sS'stim.thisRepN'
p1920
I0
sg23
g28
sg1603
g185
sS'trials.thisRepN'
p1921
I0
sS'trials.thisN'
p1922
I0
sg1606
g35
(g90
S'\x0f\x00\x00\x00\x00\x00\x00\x00'
p1923
tp1924
Rp1925
sg29
g11
sS'trials.thisTrialN'
p1926
I0
sS'block.thisIndex'
p1927
g1614
sg1615
g35
(g90
S'\x05\x00\x00\x00\x00\x00\x00\x00'
p1928
tp1929
Rp1930
sa(dp1931
S'block.thisTrialN'
p1932
I0
sS'stim.thisTrialN'
p1933
I15
sS'block.thisRepN'
p1934
I1
sg1586
g1587
sS'stim.thisIndex'
p1935
g35
(g70
S'\x0f\x00\x00\x00'
p1936
tp1937
Rp1938
sg34
g44
sS'block.thisN'
p1939
I1
sS'stim.thisN'
p1940
I15
sg1594
g1595
sg1596
g1597
sg21
g22
sg30
g33
sS'trials.thisIndex'
p1941
g1601
sS'stim.thisRepN'
p1942
I0
sg23
g28
sg1603
g414
sS'trials.thisRepN'
p1943
I0
sS'trials.thisN'
p1944
I0
sg1606
g35
(g90
S'\x10\x00\x00\x00\x00\x00\x00\x00'
p1945
tp1946
Rp1947
sg29
g11
sS'trials.thisTrialN'
p1948
I0
sS'block.thisIndex'
p1949
g1614
sg1615
g35
(g90
S'\x05\x00\x00\x00\x00\x00\x00\x00'
p1950
tp1951
Rp1952
sa(dp1953
S'block.thisTrialN'
p1954
I0
sS'block.thisRepN'
p1955
I1
sg16
g496
sS'trials.thisRepN'
p1956
I0
sg15
F0.2843643969972618
sS'block.thisN'
p1957
I1
sg34
g44
sS'trials.thisN'
p1958
I0
sg14
g496
sg29
g11
sS'trials.thisTrialN'
p1959
I0
sg30
g33
sS'trials.thisIndex'
p1960
g1601
sg21
g22
sg23
g28
sS'block.thisIndex'
p1961
g1614
sg17
F0.19725400948664173
sa(dp1962
S'block.thisTrialN'
p1963
I0
sS'stim.thisTrialN'
p1964
I0
sS'block.thisRepN'
p1965
I1
sS'Tx'
p1966
Vt2
p1967
sS'stim.thisIndex'
p1968
g35
(g70
S'\x00\x00\x00\x00'
p1969
tp1970
Rp1971
sg34
g44
sS'block.thisN'
p1972
I1
sS'stim.thisN'
p1973
I0
sS'sep_dur'
p1974
Vlong
p1975
sS'cond'
p1976
Vdistractor
p1977
sg21
g22
sg30
g33
sS'trials.thisIndex'
p1978
g35
(g70
S'\x00\x00\x00\x00'
p1979
tp1980
Rp1981
sS'stim.thisRepN'
p1982
I0
sg23
g28
sS'stimulus'
p1983
g843
sS'trials.thisRepN'
p1984
I1
sS'trials.thisN'
p1985
I1
sS'trial'
p1986
g35
(g90
S'\x01\x00\x00\x00\x00\x00\x00\x00'
p1987
tp1988
Rp1989
sg29
g11
sS'trials.thisTrialN'
p1990
I0
sS'block.thisIndex'
p1991
g1614
sS'block'
p1992
g35
(g90
S'\x06\x00\x00\x00\x00\x00\x00\x00'
p1993
tp1994
Rp1995
sa(dp1996
S'block.thisTrialN'
p1997
I0
sS'stim.thisTrialN'
p1998
I1
sS'block.thisRepN'
p1999
I1
sg1966
g1967
sS'stim.thisIndex'
p2000
g35
(g70
S'\x01\x00\x00\x00'
p2001
tp2002
Rp2003
sg34
g44
sS'block.thisN'
p2004
I1
sS'stim.thisN'
p2005
I1
sg1974
g1975
sg1976
g1977
sg21
g22
sg30
g33
sS'trials.thisIndex'
p2006
g1981
sS'stim.thisRepN'
p2007
I0
sg23
g28
sg1983
g1068
sS'trials.thisRepN'
p2008
I1
sS'trials.thisN'
p2009
I1
sg1986
g35
(g90
S'\x02\x00\x00\x00\x00\x00\x00\x00'
p2010
tp2011
Rp2012
sg29
g11
sS'trials.thisTrialN'
p2013
I0
sS'block.thisIndex'
p2014
g1614
sg1992
g35
(g90
S'\x06\x00\x00\x00\x00\x00\x00\x00'
p2015
tp2016
Rp2017
sa(dp2018
S'block.thisTrialN'
p2019
I0
sS'stim.thisTrialN'
p2020
I2
sS'block.thisRepN'
p2021
I1
sg1966
g1967
sS'stim.thisIndex'
p2022
g35
(g70
S'\x02\x00\x00\x00'
p2023
tp2024
Rp2025
sg34
g44
sS'block.thisN'
p2026
I1
sS'stim.thisN'
p2027
I2
sg1974
g1975
sg1976
g1977
sg21
g22
sg30
g33
sS'trials.thisIndex'
p2028
g1981
sS'stim.thisRepN'
p2029
I0
sg23
g28
sg1983
g345
sS'trials.thisRepN'
p2030
I1
sS'trials.thisN'
p2031
I1
sg1986
g35
(g90
S'\x03\x00\x00\x00\x00\x00\x00\x00'
p2032
tp2033
Rp2034
sg29
g11
sS'trials.thisTrialN'
p2035
I0
sS'block.thisIndex'
p2036
g1614
sg1992
g35
(g90
S'\x06\x00\x00\x00\x00\x00\x00\x00'
p2037
tp2038
Rp2039
sa(dp2040
S'block.thisTrialN'
p2041
I0
sS'stim.thisTrialN'
p2042
I3
sS'block.thisRepN'
p2043
I1
sg1966
g1967
sS'stim.thisIndex'
p2044
g35
(g70
S'\x03\x00\x00\x00'
p2045
tp2046
Rp2047
sg34
g44
sS'block.thisN'
p2048
I1
sS'stim.thisN'
p2049
I3
sg1974
g1975
sg1976
g1977
sg21
g22
sg30
g33
sS'trials.thisIndex'
p2050
g1981
sS'stim.thisRepN'
p2051
I0
sg23
g28
sg1983
g885
sS'trials.thisRepN'
p2052
I1
sS'trials.thisN'
p2053
I1
sg1986
g35
(g90
S'\x04\x00\x00\x00\x00\x00\x00\x00'
p2054
tp2055
Rp2056
sg29
g11
sS'trials.thisTrialN'
p2057
I0
sS'block.thisIndex'
p2058
g1614
sg1992
g35
(g90
S'\x06\x00\x00\x00\x00\x00\x00\x00'
p2059
tp2060
Rp2061
sa(dp2062
S'block.thisTrialN'
p2063
I0
sS'stim.thisTrialN'
p2064
I4
sS'block.thisRepN'
p2065
I1
sg1966
g1967
sS'stim.thisIndex'
p2066
g35
(g70
S'\x04\x00\x00\x00'
p2067
tp2068
Rp2069
sg34
g44
sS'block.thisN'
p2070
I1
sS'stim.thisN'
p2071
I4
sg1974
g1975
sg1976
g1977
sg21
g22
sg30
g33
sS'trials.thisIndex'
p2072
g1981
sS'stim.thisRepN'
p2073
I0
sg23
g28
sg1983
g775
sS'trials.thisRepN'
p2074
I1
sS'trials.thisN'
p2075
I1
sg1986
g35
(g90
S'\x05\x00\x00\x00\x00\x00\x00\x00'
p2076
tp2077
Rp2078
sg29
g11
sS'trials.thisTrialN'
p2079
I0
sS'block.thisIndex'
p2080
g1614
sg1992
g35
(g90
S'\x06\x00\x00\x00\x00\x00\x00\x00'
p2081
tp2082
Rp2083
sa(dp2084
S'block.thisTrialN'
p2085
I0
sS'stim.thisTrialN'
p2086
I5
sS'block.thisRepN'
p2087
I1
sg1966
g1967
sS'stim.thisIndex'
p2088
g35
(g70
S'\x05\x00\x00\x00'
p2089
tp2090
Rp2091
sg34
g44
sS'block.thisN'
p2092
I1
sS'stim.thisN'
p2093
I5
sg1974
g1975
sg1976
g1977
sg21
g22
sg30
g33
sS'trials.thisIndex'
p2094
g1981
sS'stim.thisRepN'
p2095
I0
sg23
g28
sg1983
g999
sS'trials.thisRepN'
p2096
I1
sS'trials.thisN'
p2097
I1
sg1986
g35
(g90
S'\x06\x00\x00\x00\x00\x00\x00\x00'
p2098
tp2099
Rp2100
sg29
g11
sS'trials.thisTrialN'
p2101
I0
sS'block.thisIndex'
p2102
g1614
sg1992
g35
(g90
S'\x06\x00\x00\x00\x00\x00\x00\x00'
p2103
tp2104
Rp2105
sa(dp2106
S'block.thisTrialN'
p2107
I0
sS'stim.thisTrialN'
p2108
I6
sS'block.thisRepN'
p2109
I1
sg1966
g1967
sS'stim.thisIndex'
p2110
g35
(g70
S'\x06\x00\x00\x00'
p2111
tp2112
Rp2113
sg34
g44
sS'block.thisN'
p2114
I1
sS'stim.thisN'
p2115
I6
sg1974
g1975
sg1976
g1977
sg21
g22
sg30
g33
sS'trials.thisIndex'
p2116
g1981
sS'stim.thisRepN'
p2117
I0
sg23
g28
sg1983
g322
sS'trials.thisRepN'
p2118
I1
sS'trials.thisN'
p2119
I1
sg1986
g35
(g90
S'\x07\x00\x00\x00\x00\x00\x00\x00'
p2120
tp2121
Rp2122
sg29
g11
sS'trials.thisTrialN'
p2123
I0
sS'block.thisIndex'
p2124
g1614
sg1992
g35
(g90
S'\x06\x00\x00\x00\x00\x00\x00\x00'
p2125
tp2126
Rp2127
sa(dp2128
S'block.thisTrialN'
p2129
I0
sS'stim.thisTrialN'
p2130
I7
sS'block.thisRepN'
p2131
I1
sg1966
g1967
sS'stim.thisIndex'
p2132
g35
(g70
S'\x07\x00\x00\x00'
p2133
tp2134
Rp2135
sg34
g44
sS'block.thisN'
p2136
I1
sS'stim.thisN'
p2137
I7
sg1974
g1975
sg1976
Vtarget
p2138
sg21
g22
sg30
g33
sS'trials.thisIndex'
p2139
g1981
sS'stim.thisRepN'
p2140
I0
sg23
g28
sg1983
V6
p2141
sS'trials.thisRepN'
p2142
I1
sS'trials.thisN'
p2143
I1
sg1986
g35
(g90
S'\x08\x00\x00\x00\x00\x00\x00\x00'
p2144
tp2145
Rp2146
sg29
g11
sS'trials.thisTrialN'
p2147
I0
sS'block.thisIndex'
p2148
g1614
sg1992
g35
(g90
S'\x06\x00\x00\x00\x00\x00\x00\x00'
p2149
tp2150
Rp2151
sa(dp2152
S'block.thisTrialN'
p2153
I0
sS'stim.thisTrialN'
p2154
I8
sS'block.thisRepN'
p2155
I1
sg1966
g1967
sS'stim.thisIndex'
p2156
g35
(g70
S'\x08\x00\x00\x00'
p2157
tp2158
Rp2159
sg34
g44
sS'block.thisN'
p2160
I1
sS'stim.thisN'
p2161
I8
sg1974
g1975
sg1976
g1977
sg21
g22
sg30
g33
sS'trials.thisIndex'
p2162
g1981
sS'stim.thisRepN'
p2163
I0
sg23
g28
sg1983
g139
sS'trials.thisRepN'
p2164
I1
sS'trials.thisN'
p2165
I1
sg1986
g35
(g90
S'\t\x00\x00\x00\x00\x00\x00\x00'
p2166
tp2167
Rp2168
sg29
g11
sS'trials.thisTrialN'
p2169
I0
sS'block.thisIndex'
p2170
g1614
sg1992
g35
(g90
S'\x06\x00\x00\x00\x00\x00\x00\x00'
p2171
tp2172
Rp2173
sa(dp2174
S'block.thisTrialN'
p2175
I0
sS'stim.thisTrialN'
p2176
I9
sS'block.thisRepN'
p2177
I1
sg1966
g1967
sS'stim.thisIndex'
p2178
g35
(g70
S'\t\x00\x00\x00'
p2179
tp2180
Rp2181
sg34
g44
sS'block.thisN'
p2182
I1
sS'stim.thisN'
p2183
I9
sg1974
g1975
sg1976
g1977
sg21
g22
sg30
g33
sS'trials.thisIndex'
p2184
g1981
sS'stim.thisRepN'
p2185
I0
sg23
g28
sg1983
g139
sS'trials.thisRepN'
p2186
I1
sS'trials.thisN'
p2187
I1
sg1986
g35
(g90
S'\n\x00\x00\x00\x00\x00\x00\x00'
p2188
tp2189
Rp2190
sg29
g11
sS'trials.thisTrialN'
p2191
I0
sS'block.thisIndex'
p2192
g1614
sg1992
g35
(g90
S'\x06\x00\x00\x00\x00\x00\x00\x00'
p2193
tp2194
Rp2195
sa(dp2196
S'block.thisTrialN'
p2197
I0
sS'stim.thisTrialN'
p2198
I10
sS'block.thisRepN'
p2199
I1
sg1966
g1967
sS'stim.thisIndex'
p2200
g35
(g70
S'\n\x00\x00\x00'
p2201
tp2202
Rp2203
sg34
g44
sS'block.thisN'
p2204
I1
sS'stim.thisN'
p2205
I10
sg1974
g1975
sg1976
g1977
sg21
g22
sg30
g33
sS'trials.thisIndex'
p2206
g1981
sS'stim.thisRepN'
p2207
I0
sg23
g28
sg1983
g551
sS'trials.thisRepN'
p2208
I1
sS'trials.thisN'
p2209
I1
sg1986
g35
(g90
S'\x0b\x00\x00\x00\x00\x00\x00\x00'
p2210
tp2211
Rp2212
sg29
g11
sS'trials.thisTrialN'
p2213
I0
sS'block.thisIndex'
p2214
g1614
sg1992
g35
(g90
S'\x06\x00\x00\x00\x00\x00\x00\x00'
p2215
tp2216
Rp2217
sa(dp2218
S'block.thisTrialN'
p2219
I0
sS'stim.thisTrialN'
p2220
I11
sS'block.thisRepN'
p2221
I1
sg1966
g1967
sS'stim.thisIndex'
p2222
g35
(g70
S'\x0b\x00\x00\x00'
p2223
tp2224
Rp2225
sg34
g44
sS'block.thisN'
p2226
I1
sS'stim.thisN'
p2227
I11
sg1974
g1975
sg1976
g1977
sg21
g22
sg30
g33
sS'trials.thisIndex'
p2228
g1981
sS'stim.thisRepN'
p2229
I0
sg23
g28
sg1983
g185
sS'trials.thisRepN'
p2230
I1
sS'trials.thisN'
p2231
I1
sg1986
g35
(g90
S'\x0c\x00\x00\x00\x00\x00\x00\x00'
p2232
tp2233
Rp2234
sg29
g11
sS'trials.thisTrialN'
p2235
I0
sS'block.thisIndex'
p2236
g1614
sg1992
g35
(g90
S'\x06\x00\x00\x00\x00\x00\x00\x00'
p2237
tp2238
Rp2239
sa(dp2240
S'block.thisTrialN'
p2241
I0
sS'stim.thisTrialN'
p2242
I12
sS'block.thisRepN'
p2243
I1
sg1966
g1967
sS'stim.thisIndex'
p2244
g35
(g70
S'\x0c\x00\x00\x00'
p2245
tp2246
Rp2247
sg34
g44
sS'block.thisN'
p2248
I1
sS'stim.thisN'
p2249
I12
sg1974
g1975
sg1976
g1977
sg21
g22
sg30
g33
sS'trials.thisIndex'
p2250
g1981
sS'stim.thisRepN'
p2251
I0
sg23
g28
sg1983
g1513
sS'trials.thisRepN'
p2252
I1
sS'trials.thisN'
p2253
I1
sg1986
g35
(g90
S'\r\x00\x00\x00\x00\x00\x00\x00'
p2254
tp2255
Rp2256
sg29
g11
sS'trials.thisTrialN'
p2257
I0
sS'block.thisIndex'
p2258
g1614
sg1992
g35
(g90
S'\x06\x00\x00\x00\x00\x00\x00\x00'
p2259
tp2260
Rp2261
sa(dp2262
S'block.thisTrialN'
p2263
I0
sS'stim.thisTrialN'
p2264
I13
sS'block.thisRepN'
p2265
I1
sg1966
g1967
sS'stim.thisIndex'
p2266
g35
(g70
S'\r\x00\x00\x00'
p2267
tp2268
Rp2269
sg34
g44
sS'block.thisN'
p2270
I1
sS'stim.thisN'
p2271
I13
sg1974
g1975
sg1976
g1977
sg21
g22
sg30
g33
sS'trials.thisIndex'
p2272
g1981
sS'stim.thisRepN'
p2273
I0
sg23
g28
sg1983
g230
sS'trials.thisRepN'
p2274
I1
sS'trials.thisN'
p2275
I1
sg1986
g35
(g90
S'\x0e\x00\x00\x00\x00\x00\x00\x00'
p2276
tp2277
Rp2278
sg29
g11
sS'trials.thisTrialN'
p2279
I0
sS'block.thisIndex'
p2280
g1614
sg1992
g35
(g90
S'\x06\x00\x00\x00\x00\x00\x00\x00'
p2281
tp2282
Rp2283
sa(dp2284
S'block.thisTrialN'
p2285
I0
sS'stim.thisTrialN'
p2286
I14
sS'block.thisRepN'
p2287
I1
sg1966
g1967
sS'stim.thisIndex'
p2288
g35
(g70
S'\x0e\x00\x00\x00'
p2289
tp2290
Rp2291
sg34
g44
sS'block.thisN'
p2292
I1
sS'stim.thisN'
p2293
I14
sg1974
g1975
sg1976
g1977
sg21
g22
sg30
g33
sS'trials.thisIndex'
p2294
g1981
sS'stim.thisRepN'
p2295
I0
sg23
g28
sg1983
g1787
sS'trials.thisRepN'
p2296
I1
sS'trials.thisN'
p2297
I1
sg1986
g35
(g90
S'\x0f\x00\x00\x00\x00\x00\x00\x00'
p2298
tp2299
Rp2300
sg29
g11
sS'trials.thisTrialN'
p2301
I0
sS'block.thisIndex'
p2302
g1614
sg1992
g35
(g90
S'\x06\x00\x00\x00\x00\x00\x00\x00'
p2303
tp2304
Rp2305
sa(dp2306
S'block.thisTrialN'
p2307
I0
sS'stim.thisTrialN'
p2308
I15
sS'block.thisRepN'
p2309
I1
sg1966
g1967
sS'stim.thisIndex'
p2310
g35
(g70
S'\x0f\x00\x00\x00'
p2311
tp2312
Rp2313
sg34
g44
sS'block.thisN'
p2314
I1
sS'stim.thisN'
p2315
I15
sg1974
g1975
sg1976
g2138
sg21
g22
sg30
g33
sS'trials.thisIndex'
p2316
g1981
sS'stim.thisRepN'
p2317
I0
sg23
g28
sg1983
g2141
sS'trials.thisRepN'
p2318
I1
sS'trials.thisN'
p2319
I1
sg1986
g35
(g90
S'\x10\x00\x00\x00\x00\x00\x00\x00'
p2320
tp2321
Rp2322
sg29
g11
sS'trials.thisTrialN'
p2323
I0
sS'block.thisIndex'
p2324
g1614
sg1992
g35
(g90
S'\x06\x00\x00\x00\x00\x00\x00\x00'
p2325
tp2326
Rp2327
sa(dp2328
S'block.thisTrialN'
p2329
I0
sS'stim.thisTrialN'
p2330
I16
sS'block.thisRepN'
p2331
I1
sg1966
g1967
sS'stim.thisIndex'
p2332
g35
(g70
S'\x10\x00\x00\x00'
p2333
tp2334
Rp2335
sg34
g44
sS'block.thisN'
p2336
I1
sS'stim.thisN'
p2337
I16
sg1974
g1975
sg1976
g1977
sg21
g22
sg30
g33
sS'trials.thisIndex'
p2338
g1981
sS'stim.thisRepN'
p2339
I0
sg23
g28
sg1983
g1333
sS'trials.thisRepN'
p2340
I1
sS'trials.thisN'
p2341
I1
sg1986
g35
(g90
S'\x11\x00\x00\x00\x00\x00\x00\x00'
p2342
tp2343
Rp2344
sg29
g11
sS'trials.thisTrialN'
p2345
I0
sS'block.thisIndex'
p2346
g1614
sg1992
g35
(g90
S'\x06\x00\x00\x00\x00\x00\x00\x00'
p2347
tp2348
Rp2349
sa(dp2350
S'block.thisTrialN'
p2351
I0
sS'block.thisRepN'
p2352
I1
sg16
g496
sS'trials.thisRepN'
p2353
I1
sg15
F0.5851099007413723
sS'block.thisN'
p2354
I1
sg34
g44
sS'trials.thisN'
p2355
I1
sg14
g496
sg29
g11
sS'trials.thisTrialN'
p2356
I0
sg30
g33
sS'trials.thisIndex'
p2357
g1981
sg21
g22
sg23
g28
sS'block.thisIndex'
p2358
g1614
sg17
F0.2502867881557904
sa(dp2359
S'block.thisTrialN'
p2360
I0
sS'stim.thisTrialN'
p2361
I0
sS'block.thisRepN'
p2362
I1
sS'Tx'
p2363
Vt1
p2364
sS'stim.thisIndex'
p2365
g35
(g70
S'\x00\x00\x00\x00'
p2366
tp2367
Rp2368
sg34
g44
sS'block.thisN'
p2369
I1
sS'stim.thisN'
p2370
I0
sS'sep_dur'
p2371
Vshort
p2372
sS'cond'
p2373
Vdistractor
p2374
sg21
g22
sg30
g33
sS'trials.thisIndex'
p2375
g35
(g70
S'\x00\x00\x00\x00'
p2376
tp2377
Rp2378
sS'stim.thisRepN'
p2379
I0
sg23
g28
sS'stimulus'
p2380
g437
sS'trials.thisRepN'
p2381
I2
sS'trials.thisN'
p2382
I2
sS'trial'
p2383
g35
(g90
S'\x01\x00\x00\x00\x00\x00\x00\x00'
p2384
tp2385
Rp2386
sg29
g11
sS'trials.thisTrialN'
p2387
I0
sS'block.thisIndex'
p2388
g1614
sS'block'
p2389
g35
(g90
S'\x07\x00\x00\x00\x00\x00\x00\x00'
p2390
tp2391
Rp2392
sa(dp2393
S'block.thisTrialN'
p2394
I0
sS'stim.thisTrialN'
p2395
I1
sS'block.thisRepN'
p2396
I1
sg2363
g2364
sS'stim.thisIndex'
p2397
g35
(g70
S'\x01\x00\x00\x00'
p2398
tp2399
Rp2400
sg34
g44
sS'block.thisN'
p2401
I1
sS'stim.thisN'
p2402
I1
sg2371
g2372
sg2373
g2374
sg21
g22
sg30
g33
sS'trials.thisIndex'
p2403
g2378
sS'stim.thisRepN'
p2404
I0
sg23
g28
sg2380
g253
sS'trials.thisRepN'
p2405
I2
sS'trials.thisN'
p2406
I2
sg2383
g35
(g90
S'\x02\x00\x00\x00\x00\x00\x00\x00'
p2407
tp2408
Rp2409
sg29
g11
sS'trials.thisTrialN'
p2410
I0
sS'block.thisIndex'
p2411
g1614
sg2389
g35
(g90
S'\x07\x00\x00\x00\x00\x00\x00\x00'
p2412
tp2413
Rp2414
sa(dp2415
S'block.thisTrialN'
p2416
I0
sS'stim.thisTrialN'
p2417
I2
sS'block.thisRepN'
p2418
I1
sg2363
g2364
sS'stim.thisIndex'
p2419
g35
(g70
S'\x02\x00\x00\x00'
p2420
tp2421
Rp2422
sg34
g44
sS'block.thisN'
p2423
I1
sS'stim.thisN'
p2424
I2
sg2371
g2372
sg2373
g2374
sg21
g22
sg30
g33
sS'trials.thisIndex'
p2425
g2378
sS'stim.thisRepN'
p2426
I0
sg23
g28
sg2380
g85
sS'trials.thisRepN'
p2427
I2
sS'trials.thisN'
p2428
I2
sg2383
g35
(g90
S'\x03\x00\x00\x00\x00\x00\x00\x00'
p2429
tp2430
Rp2431
sg29
g11
sS'trials.thisTrialN'
p2432
I0
sS'block.thisIndex'
p2433
g1614
sg2389
g35
(g90
S'\x07\x00\x00\x00\x00\x00\x00\x00'
p2434
tp2435
Rp2436
sa(dp2437
S'block.thisTrialN'
p2438
I0
sS'stim.thisTrialN'
p2439
I3
sS'block.thisRepN'
p2440
I1
sg2363
g2364
sS'stim.thisIndex'
p2441
g35
(g70
S'\x03\x00\x00\x00'
p2442
tp2443
Rp2444
sg34
g44
sS'block.thisN'
p2445
I1
sS'stim.thisN'
p2446
I3
sg2371
g2372
sg2373
g2374
sg21
g22
sg30
g33
sS'trials.thisIndex'
p2447
g2378
sS'stim.thisRepN'
p2448
I0
sg23
g28
sg2380
g414
sS'trials.thisRepN'
p2449
I2
sS'trials.thisN'
p2450
I2
sg2383
g35
(g90
S'\x04\x00\x00\x00\x00\x00\x00\x00'
p2451
tp2452
Rp2453
sg29
g11
sS'trials.thisTrialN'
p2454
I0
sS'block.thisIndex'
p2455
g1614
sg2389
g35
(g90
S'\x07\x00\x00\x00\x00\x00\x00\x00'
p2456
tp2457
Rp2458
sa(dp2459
S'block.thisTrialN'
p2460
I0
sS'stim.thisTrialN'
p2461
I4
sS'block.thisRepN'
p2462
I1
sg2363
g2364
sS'stim.thisIndex'
p2463
g35
(g70
S'\x04\x00\x00\x00'
p2464
tp2465
Rp2466
sg34
g44
sS'block.thisN'
p2467
I1
sS'stim.thisN'
p2468
I4
sg2371
g2372
sg2373
g2374
sg21
g22
sg30
g33
sS'trials.thisIndex'
p2469
g2378
sS'stim.thisRepN'
p2470
I0
sg23
g28
sg2380
g162
sS'trials.thisRepN'
p2471
I2
sS'trials.thisN'
p2472
I2
sg2383
g35
(g90
S'\x05\x00\x00\x00\x00\x00\x00\x00'
p2473
tp2474
Rp2475
sg29
g11
sS'trials.thisTrialN'
p2476
I0
sS'block.thisIndex'
p2477
g1614
sg2389
g35
(g90
S'\x07\x00\x00\x00\x00\x00\x00\x00'
p2478
tp2479
Rp2480
sa(dp2481
S'block.thisTrialN'
p2482
I0
sS'stim.thisTrialN'
p2483
I5
sS'block.thisRepN'
p2484
I1
sg2363
g2364
sS'stim.thisIndex'
p2485
g35
(g70
S'\x05\x00\x00\x00'
p2486
tp2487
Rp2488
sg34
g44
sS'block.thisN'
p2489
I1
sS'stim.thisN'
p2490
I5
sg2371
g2372
sg2373
g2374
sg21
g22
sg30
g33
sS'trials.thisIndex'
p2491
g2378
sS'stim.thisRepN'
p2492
I0
sg23
g28
sg2380
g116
sS'trials.thisRepN'
p2493
I2
sS'trials.thisN'
p2494
I2
sg2383
g35
(g90
S'\x06\x00\x00\x00\x00\x00\x00\x00'
p2495
tp2496
Rp2497
sg29
g11
sS'trials.thisTrialN'
p2498
I0
sS'block.thisIndex'
p2499
g1614
sg2389
g35
(g90
S'\x07\x00\x00\x00\x00\x00\x00\x00'
p2500
tp2501
Rp2502
sa(dp2503
S'block.thisTrialN'
p2504
I0
sS'stim.thisTrialN'
p2505
I6
sS'block.thisRepN'
p2506
I1
sg2363
g2364
sS'stim.thisIndex'
p2507
g35
(g70
S'\x06\x00\x00\x00'
p2508
tp2509
Rp2510
sg34
g44
sS'block.thisN'
p2511
I1
sS'stim.thisN'
p2512
I6
sg2371
g2372
sg2373
g2374
sg21
g22
sg30
g33
sS'trials.thisIndex'
p2513
g2378
sS'stim.thisRepN'
p2514
I0
sg23
g28
sg2380
g1068
sS'trials.thisRepN'
p2515
I2
sS'trials.thisN'
p2516
I2
sg2383
g35
(g90
S'\x07\x00\x00\x00\x00\x00\x00\x00'
p2517
tp2518
Rp2519
sg29
g11
sS'trials.thisTrialN'
p2520
I0
sS'block.thisIndex'
p2521
g1614
sg2389
g35
(g90
S'\x07\x00\x00\x00\x00\x00\x00\x00'
p2522
tp2523
Rp2524
sa(dp2525
S'block.thisTrialN'
p2526
I0
sS'stim.thisTrialN'
p2527
I7
sS'block.thisRepN'
p2528
I1
sg2363
g2364
sS'stim.thisIndex'
p2529
g35
(g70
S'\x07\x00\x00\x00'
p2530
tp2531
Rp2532
sg34
g44
sS'block.thisN'
p2533
I1
sS'stim.thisN'
p2534
I7
sg2371
g2372
sg2373
Vtarget
p2535
sg21
g22
sg30
g33
sS'trials.thisIndex'
p2536
g2378
sS'stim.thisRepN'
p2537
I0
sg23
g28
sg2380
g1401
sS'trials.thisRepN'
p2538
I2
sS'trials.thisN'
p2539
I2
sg2383
g35
(g90
S'\x08\x00\x00\x00\x00\x00\x00\x00'
p2540
tp2541
Rp2542
sg29
g11
sS'trials.thisTrialN'
p2543
I0
sS'block.thisIndex'
p2544
g1614
sg2389
g35
(g90
S'\x07\x00\x00\x00\x00\x00\x00\x00'
p2545
tp2546
Rp2547
sa(dp2548
S'block.thisTrialN'
p2549
I0
sS'stim.thisTrialN'
p2550
I8
sS'block.thisRepN'
p2551
I1
sg2363
g2364
sS'stim.thisIndex'
p2552
g35
(g70
S'\x08\x00\x00\x00'
p2553
tp2554
Rp2555
sg34
g44
sS'block.thisN'
p2556
I1
sS'stim.thisN'
p2557
I8
sg2371
g2372
sg2373
g2374
sg21
g22
sg30
g33
sS'trials.thisIndex'
p2558
g2378
sS'stim.thisRepN'
p2559
I0
sg23
g28
sg2380
g345
sS'trials.thisRepN'
p2560
I2
sS'trials.thisN'
p2561
I2
sg2383
g35
(g90
S'\t\x00\x00\x00\x00\x00\x00\x00'
p2562
tp2563
Rp2564
sg29
g11
sS'trials.thisTrialN'
p2565
I0
sS'block.thisIndex'
p2566
g1614
sg2389
g35
(g90
S'\x07\x00\x00\x00\x00\x00\x00\x00'
p2567
tp2568
Rp2569
sa(dp2570
S'block.thisTrialN'
p2571
I0
sS'stim.thisTrialN'
p2572
I9
sS'block.thisRepN'
p2573
I1
sg2363
g2364
sS'stim.thisIndex'
p2574
g35
(g70
S'\t\x00\x00\x00'
p2575
tp2576
Rp2577
sg34
g44
sS'block.thisN'
p2578
I1
sS'stim.thisN'
p2579
I9
sg2371
g2372
sg2373
g2374
sg21
g22
sg30
g33
sS'trials.thisIndex'
p2580
g2378
sS'stim.thisRepN'
p2581
I0
sg23
g28
sg2380
g345
sS'trials.thisRepN'
p2582
I2
sS'trials.thisN'
p2583
I2
sg2383
g35
(g90
S'\n\x00\x00\x00\x00\x00\x00\x00'
p2584
tp2585
Rp2586
sg29
g11
sS'trials.thisTrialN'
p2587
I0
sS'block.thisIndex'
p2588
g1614
sg2389
g35
(g90
S'\x07\x00\x00\x00\x00\x00\x00\x00'
p2589
tp2590
Rp2591
sa(dp2592
S'block.thisTrialN'
p2593
I0
sS'stim.thisTrialN'
p2594
I10
sS'block.thisRepN'
p2595
I1
sg2363
g2364
sS'stim.thisIndex'
p2596
g35
(g70
S'\n\x00\x00\x00'
p2597
tp2598
Rp2599
sg34
g44
sS'block.thisN'
p2600
I1
sS'stim.thisN'
p2601
I10
sg2371
g2372
sg2373
g2374
sg21
g22
sg30
g33
sS'trials.thisIndex'
p2602
g2378
sS'stim.thisRepN'
p2603
I0
sg23
g28
sg2380
g116
sS'trials.thisRepN'
p2604
I2
sS'trials.thisN'
p2605
I2
sg2383
g35
(g90
S'\x0b\x00\x00\x00\x00\x00\x00\x00'
p2606
tp2607
Rp2608
sg29
g11
sS'trials.thisTrialN'
p2609
I0
sS'block.thisIndex'
p2610
g1614
sg2389
g35
(g90
S'\x07\x00\x00\x00\x00\x00\x00\x00'
p2611
tp2612
Rp2613
sa(dp2614
S'block.thisTrialN'
p2615
I0
sS'stim.thisTrialN'
p2616
I11
sS'block.thisRepN'
p2617
I1
sg2363
g2364
sS'stim.thisIndex'
p2618
g35
(g70
S'\x0b\x00\x00\x00'
p2619
tp2620
Rp2621
sg34
g44
sS'block.thisN'
p2622
I1
sS'stim.thisN'
p2623
I11
sg2371
g2372
sg2373
Vmask
p2624
sg21
g22
sg30
g33
sS'trials.thisIndex'
p2625
g2378
sS'stim.thisRepN'
p2626
I0
sg23
g28
sg2380
g391
sS'trials.thisRepN'
p2627
I2
sS'trials.thisN'
p2628
I2
sg2383
g35
(g90
S'\x0c\x00\x00\x00\x00\x00\x00\x00'
p2629
tp2630
Rp2631
sg29
g11
sS'trials.thisTrialN'
p2632
I0
sS'block.thisIndex'
p2633
g1614
sg2389
g35
(g90
S'\x07\x00\x00\x00\x00\x00\x00\x00'
p2634
tp2635
Rp2636
sa(dp2637
S'block.thisTrialN'
p2638
I0
sS'stim.thisTrialN'
p2639
I12
sS'block.thisRepN'
p2640
I1
sg2363
g2364
sS'stim.thisIndex'
p2641
g35
(g70
S'\x0c\x00\x00\x00'
p2642
tp2643
Rp2644
sg34
g44
sS'block.thisN'
p2645
I1
sS'stim.thisN'
p2646
I12
sg2371
g2372
sg2373
g2374
sg21
g22
sg30
g33
sS'trials.thisIndex'
p2647
g2378
sS'stim.thisRepN'
p2648
I0
sg23
g28
sg2380
g85
sS'trials.thisRepN'
p2649
I2
sS'trials.thisN'
p2650
I2
sg2383
g35
(g90
S'\r\x00\x00\x00\x00\x00\x00\x00'
p2651
tp2652
Rp2653
sg29
g11
sS'trials.thisTrialN'
p2654
I0
sS'block.thisIndex'
p2655
g1614
sg2389
g35
(g90
S'\x07\x00\x00\x00\x00\x00\x00\x00'
p2656
tp2657
Rp2658
sa(dp2659
S'block.thisTrialN'
p2660
I0
sS'stim.thisTrialN'
p2661
I13
sS'block.thisRepN'
p2662
I1
sg2363
g2364
sS'stim.thisIndex'
p2663
g35
(g70
S'\r\x00\x00\x00'
p2664
tp2665
Rp2666
sg34
g44
sS'block.thisN'
p2667
I1
sS'stim.thisN'
p2668
I13
sg2371
g2372
sg2373
g2374
sg21
g22
sg30
g33
sS'trials.thisIndex'
p2669
g2378
sS'stim.thisRepN'
p2670
I0
sg23
g28
sg2380
g322
sS'trials.thisRepN'
p2671
I2
sS'trials.thisN'
p2672
I2
sg2383
g35
(g90
S'\x0e\x00\x00\x00\x00\x00\x00\x00'
p2673
tp2674
Rp2675
sg29
g11
sS'trials.thisTrialN'
p2676
I0
sS'block.thisIndex'
p2677
g1614
sg2389
g35
(g90
S'\x07\x00\x00\x00\x00\x00\x00\x00'
p2678
tp2679
Rp2680
sa(dp2681
S'block.thisTrialN'
p2682
I0
sS'stim.thisTrialN'
p2683
I14
sS'block.thisRepN'
p2684
I1
sg2363
g2364
sS'stim.thisIndex'
p2685
g35
(g70
S'\x0e\x00\x00\x00'
p2686
tp2687
Rp2688
sg34
g44
sS'block.thisN'
p2689
I1
sS'stim.thisN'
p2690
I14
sg2371
g2372
sg2373
g2374
sg21
g22
sg30
g33
sS'trials.thisIndex'
p2691
g2378
sS'stim.thisRepN'
p2692
I0
sg23
g28
sg2380
g482
sS'trials.thisRepN'
p2693
I2
sS'trials.thisN'
p2694
I2
sg2383
g35
(g90
S'\x0f\x00\x00\x00\x00\x00\x00\x00'
p2695
tp2696
Rp2697
sg29
g11
sS'trials.thisTrialN'
p2698
I0
sS'block.thisIndex'
p2699
g1614
sg2389
g35
(g90
S'\x07\x00\x00\x00\x00\x00\x00\x00'
p2700
tp2701
Rp2702
sa(dp2703
S'block.thisTrialN'
p2704
I0
sS'stim.thisTrialN'
p2705
I15
sS'block.thisRepN'
p2706
I1
sg2363
g2364
sS'stim.thisIndex'
p2707
g35
(g70
S'\x0f\x00\x00\x00'
p2708
tp2709
Rp2710
sg34
g44
sS'block.thisN'
p2711
I1
sS'stim.thisN'
p2712
I15
sg2371
g2372
sg2373
g2374
sg21
g22
sg30
g33
sS'trials.thisIndex'
p2713
g2378
sS'stim.thisRepN'
p2714
I0
sg23
g28
sg2380
g551
sS'trials.thisRepN'
p2715
I2
sS'trials.thisN'
p2716
I2
sg2383
g35
(g90
S'\x10\x00\x00\x00\x00\x00\x00\x00'
p2717
tp2718
Rp2719
sg29
g11
sS'trials.thisTrialN'
p2720
I0
sS'block.thisIndex'
p2721
g1614
sg2389
g35
(g90
S'\x07\x00\x00\x00\x00\x00\x00\x00'
p2722
tp2723
Rp2724
sa(dp2725
S'block.thisTrialN'
p2726
I0
sS'block.thisRepN'
p2727
I1
sg16
g496
sS'trials.thisRepN'
p2728
I2
sg15
F0.28485845803515986
sS'block.thisN'
p2729
I1
sg34
g44
sS'trials.thisN'
p2730
I2
sg14
g496
sg29
g11
sS'trials.thisTrialN'
p2731
I0
sg30
g33
sS'trials.thisIndex'
p2732
g2378
sg21
g22
sg23
g28
sS'block.thisIndex'
p2733
g1614
sg17
F0.1885975162149407
sa(dp2734
S'block.thisTrialN'
p2735
I0
sS'stim.thisTrialN'
p2736
I0
sS'block.thisRepN'
p2737
I1
sS'Tx'
p2738
Vt1
p2739
sS'stim.thisIndex'
p2740
g35
(g70
S'\x00\x00\x00\x00'
p2741
tp2742
Rp2743
sg34
g44
sS'block.thisN'
p2744
I1
sS'stim.thisN'
p2745
I0
sS'sep_dur'
p2746
Vshort
p2747
sS'cond'
p2748
Vdistractor
p2749
sg21
g22
sg30
g33
sS'trials.thisIndex'
p2750
g35
(g70
S'\x00\x00\x00\x00'
p2751
tp2752
Rp2753
sS'stim.thisRepN'
p2754
I0
sg23
g28
sS'stimulus'
p2755
g322
sS'trials.thisRepN'
p2756
I3
sS'trials.thisN'
p2757
I3
sS'trial'
p2758
g35
(g90
S'\x01\x00\x00\x00\x00\x00\x00\x00'
p2759
tp2760
Rp2761
sg29
g11
sS'trials.thisTrialN'
p2762
I0
sS'block.thisIndex'
p2763
g1614
sS'block'
p2764
g35
(g90
S'\x08\x00\x00\x00\x00\x00\x00\x00'
p2765
tp2766
Rp2767
sa(dp2768
S'block.thisTrialN'
p2769
I0
sS'stim.thisTrialN'
p2770
I1
sS'block.thisRepN'
p2771
I1
sg2738
g2739
sS'stim.thisIndex'
p2772
g35
(g70
S'\x01\x00\x00\x00'
p2773
tp2774
Rp2775
sg34
g44
sS'block.thisN'
p2776
I1
sS'stim.thisN'
p2777
I1
sg2746
g2747
sg2748
g2749
sg21
g22
sg30
g33
sS'trials.thisIndex'
p2778
g2753
sS'stim.thisRepN'
p2779
I0
sg23
g28
sg2755
g843
sS'trials.thisRepN'
p2780
I3
sS'trials.thisN'
p2781
I3
sg2758
g35
(g90
S'\x02\x00\x00\x00\x00\x00\x00\x00'
p2782
tp2783
Rp2784
sg29
g11
sS'trials.thisTrialN'
p2785
I0
sS'block.thisIndex'
p2786
g1614
sg2764
g35
(g90
S'\x08\x00\x00\x00\x00\x00\x00\x00'
p2787
tp2788
Rp2789
sa(dp2790
S'block.thisTrialN'
p2791
I0
sS'stim.thisTrialN'
p2792
I2
sS'block.thisRepN'
p2793
I1
sg2738
g2739
sS'stim.thisIndex'
p2794
g35
(g70
S'\x02\x00\x00\x00'
p2795
tp2796
Rp2797
sg34
g44
sS'block.thisN'
p2798
I1
sS'stim.thisN'
p2799
I2
sg2746
g2747
sg2748
g2749
sg21
g22
sg30
g33
sS'trials.thisIndex'
p2800
g2753
sS'stim.thisRepN'
p2801
I0
sg23
g28
sg2755
g162
sS'trials.thisRepN'
p2802
I3
sS'trials.thisN'
p2803
I3
sg2758
g35
(g90
S'\x03\x00\x00\x00\x00\x00\x00\x00'
p2804
tp2805
Rp2806
sg29
g11
sS'trials.thisTrialN'
p2807
I0
sS'block.thisIndex'
p2808
g1614
sg2764
g35
(g90
S'\x08\x00\x00\x00\x00\x00\x00\x00'
p2809
tp2810
Rp2811
sa(dp2812
S'block.thisTrialN'
p2813
I0
sS'stim.thisTrialN'
p2814
I3
sS'block.thisRepN'
p2815
I1
sg2738
g2739
sS'stim.thisIndex'
p2816
g35
(g70
S'\x03\x00\x00\x00'
p2817
tp2818
Rp2819
sg34
g44
sS'block.thisN'
p2820
I1
sS'stim.thisN'
p2821
I3
sg2746
g2747
sg2748
g2749
sg21
g22
sg30
g33
sS'trials.thisIndex'
p2822
g2753
sS'stim.thisRepN'
p2823
I0
sg23
g28
sg2755
g230
sS'trials.thisRepN'
p2824
I3
sS'trials.thisN'
p2825
I3
sg2758
g35
(g90
S'\x04\x00\x00\x00\x00\x00\x00\x00'
p2826
tp2827
Rp2828
sg29
g11
sS'trials.thisTrialN'
p2829
I0
sS'block.thisIndex'
p2830
g1614
sg2764
g35
(g90
S'\x08\x00\x00\x00\x00\x00\x00\x00'
p2831
tp2832
Rp2833
sa(dp2834
S'block.thisTrialN'
p2835
I0
sS'stim.thisTrialN'
p2836
I4
sS'block.thisRepN'
p2837
I1
sg2738
g2739
sS'stim.thisIndex'
p2838
g35
(g70
S'\x04\x00\x00\x00'
p2839
tp2840
Rp2841
sg34
g44
sS'block.thisN'
p2842
I1
sS'stim.thisN'
p2843
I4
sg2746
g2747
sg2748
g2749
sg21
g22
sg30
g33
sS'trials.thisIndex'
p2844
g2753
sS'stim.thisRepN'
p2845
I0
sg23
g28
sg2755
g1513
sS'trials.thisRepN'
p2846
I3
sS'trials.thisN'
p2847
I3
sg2758
g35
(g90
S'\x05\x00\x00\x00\x00\x00\x00\x00'
p2848
tp2849
Rp2850
sg29
g11
sS'trials.thisTrialN'
p2851
I0
sS'block.thisIndex'
p2852
g1614
sg2764
g35
(g90
S'\x08\x00\x00\x00\x00\x00\x00\x00'
p2853
tp2854
Rp2855
sa(dp2856
S'block.thisTrialN'
p2857
I0
sS'stim.thisTrialN'
p2858
I5
sS'block.thisRepN'
p2859
I1
sg2738
g2739
sS'stim.thisIndex'
p2860
g35
(g70
S'\x05\x00\x00\x00'
p2861
tp2862
Rp2863
sg34
g44
sS'block.thisN'
p2864
I1
sS'stim.thisN'
p2865
I5
sg2746
g2747
sg2748
g2749
sg21
g22
sg30
g33
sS'trials.thisIndex'
p2866
g2753
sS'stim.thisRepN'
p2867
I0
sg23
g28
sg2755
g185
sS'trials.thisRepN'
p2868
I3
sS'trials.thisN'
p2869
I3
sg2758
g35
(g90
S'\x06\x00\x00\x00\x00\x00\x00\x00'
p2870
tp2871
Rp2872
sg29
g11
sS'trials.thisTrialN'
p2873
I0
sS'block.thisIndex'
p2874
g1614
sg2764
g35
(g90
S'\x08\x00\x00\x00\x00\x00\x00\x00'
p2875
tp2876
Rp2877
sa(dp2878
S'block.thisTrialN'
p2879
I0
sS'stim.thisTrialN'
p2880
I6
sS'block.thisRepN'
p2881
I1
sg2738
g2739
sS'stim.thisIndex'
p2882
g35
(g70
S'\x06\x00\x00\x00'
p2883
tp2884
Rp2885
sg34
g44
sS'block.thisN'
p2886
I1
sS'stim.thisN'
p2887
I6
sg2746
g2747
sg2748
Vtarget
p2888
sg21
g22
sg30
g33
sS'trials.thisIndex'
p2889
g2753
sS'stim.thisRepN'
p2890
I0
sg23
g28
sg2755
V3
p2891
sS'trials.thisRepN'
p2892
I3
sS'trials.thisN'
p2893
I3
sg2758
g35
(g90
S'\x07\x00\x00\x00\x00\x00\x00\x00'
p2894
tp2895
Rp2896
sg29
g11
sS'trials.thisTrialN'
p2897
I0
sS'block.thisIndex'
p2898
g1614
sg2764
g35
(g90
S'\x08\x00\x00\x00\x00\x00\x00\x00'
p2899
tp2900
Rp2901
sa(dp2902
S'block.thisTrialN'
p2903
I0
sS'stim.thisTrialN'
p2904
I7
sS'block.thisRepN'
p2905
I1
sg2738
g2739
sS'stim.thisIndex'
p2906
g35
(g70
S'\x07\x00\x00\x00'
p2907
tp2908
Rp2909
sg34
g44
sS'block.thisN'
p2910
I1
sS'stim.thisN'
p2911
I7
sg2746
g2747
sg2748
g2749
sg21
g22
sg30
g33
sS'trials.thisIndex'
p2912
g2753
sS'stim.thisRepN'
p2913
I0
sg23
g28
sg2755
g437
sS'trials.thisRepN'
p2914
I3
sS'trials.thisN'
p2915
I3
sg2758
g35
(g90
S'\x08\x00\x00\x00\x00\x00\x00\x00'
p2916
tp2917
Rp2918
sg29
g11
sS'trials.thisTrialN'
p2919
I0
sS'block.thisIndex'
p2920
g1614
sg2764
g35
(g90
S'\x08\x00\x00\x00\x00\x00\x00\x00'
p2921
tp2922
Rp2923
sa(dp2924
S'block.thisTrialN'
p2925
I0
sS'stim.thisTrialN'
p2926
I8
sS'block.thisRepN'
p2927
I1
sg2738
g2739
sS'stim.thisIndex'
p2928
g35
(g70
S'\x08\x00\x00\x00'
p2929
tp2930
Rp2931
sg34
g44
sS'block.thisN'
p2932
I1
sS'stim.thisN'
p2933
I8
sg2746
g2747
sg2748
g2749
sg21
g22
sg30
g33
sS'trials.thisIndex'
p2934
g2753
sS'stim.thisRepN'
p2935
I0
sg23
g28
sg2755
g482
sS'trials.thisRepN'
p2936
I3
sS'trials.thisN'
p2937
I3
sg2758
g35
(g90
S'\t\x00\x00\x00\x00\x00\x00\x00'
p2938
tp2939
Rp2940
sg29
g11
sS'trials.thisTrialN'
p2941
I0
sS'block.thisIndex'
p2942
g1614
sg2764
g35
(g90
S'\x08\x00\x00\x00\x00\x00\x00\x00'
p2943
tp2944
Rp2945
sa(dp2946
S'block.thisTrialN'
p2947
I0
sS'stim.thisTrialN'
p2948
I9
sS'block.thisRepN'
p2949
I1
sg2738
g2739
sS'stim.thisIndex'
p2950
g35
(g70
S'\t\x00\x00\x00'
p2951
tp2952
Rp2953
sg34
g44
sS'block.thisN'
p2954
I1
sS'stim.thisN'
p2955
I9
sg2746
g2747
sg2748
g2749
sg21
g22
sg30
g33
sS'trials.thisIndex'
p2956
g2753
sS'stim.thisRepN'
p2957
I0
sg23
g28
sg2755
g253
sS'trials.thisRepN'
p2958
I3
sS'trials.thisN'
p2959
I3
sg2758
g35
(g90
S'\n\x00\x00\x00\x00\x00\x00\x00'
p2960
tp2961
Rp2962
sg29
g11
sS'trials.thisTrialN'
p2963
I0
sS'block.thisIndex'
p2964
g1614
sg2764
g35
(g90
S'\x08\x00\x00\x00\x00\x00\x00\x00'
p2965
tp2966
Rp2967
sa(dp2968
S'block.thisTrialN'
p2969
I0
sS'stim.thisTrialN'
p2970
I10
sS'block.thisRepN'
p2971
I1
sg2738
g2739
sS'stim.thisIndex'
p2972
g35
(g70
S'\n\x00\x00\x00'
p2973
tp2974
Rp2975
sg34
g44
sS'block.thisN'
p2976
I1
sS'stim.thisN'
p2977
I10
sg2746
g2747
sg2748
Vmask
p2978
sg21
g22
sg30
g33
sS'trials.thisIndex'
p2979
g2753
sS'stim.thisRepN'
p2980
I0
sg23
g28
sg2755
g391
sS'trials.thisRepN'
p2981
I3
sS'trials.thisN'
p2982
I3
sg2758
g35
(g90
S'\x0b\x00\x00\x00\x00\x00\x00\x00'
p2983
tp2984
Rp2985
sg29
g11
sS'trials.thisTrialN'
p2986
I0
sS'block.thisIndex'
p2987
g1614
sg2764
g35
(g90
S'\x08\x00\x00\x00\x00\x00\x00\x00'
p2988
tp2989
Rp2990
sa(dp2991
S'block.thisTrialN'
p2992
I0
sS'stim.thisTrialN'
p2993
I11
sS'block.thisRepN'
p2994
I1
sg2738
g2739
sS'stim.thisIndex'
p2995
g35
(g70
S'\x0b\x00\x00\x00'
p2996
tp2997
Rp2998
sg34
g44
sS'block.thisN'
p2999
I1
sS'stim.thisN'
p3000
I11
sg2746
g2747
sg2748
g2749
sg21
g22
sg30
g33
sS'trials.thisIndex'
p3001
g2753
sS'stim.thisRepN'
p3002
I0
sg23
g28
sg2755
g437
sS'trials.thisRepN'
p3003
I3
sS'trials.thisN'
p3004
I3
sg2758
g35
(g90
S'\x0c\x00\x00\x00\x00\x00\x00\x00'
p3005
tp3006
Rp3007
sg29
g11
sS'trials.thisTrialN'
p3008
I0
sS'block.thisIndex'
p3009
g1614
sg2764
g35
(g90
S'\x08\x00\x00\x00\x00\x00\x00\x00'
p3010
tp3011
Rp3012
sa(dp3013
S'block.thisTrialN'
p3014
I0
sS'stim.thisTrialN'
p3015
I12
sS'block.thisRepN'
p3016
I1
sg2738
g2739
sS'stim.thisIndex'
p3017
g35
(g70
S'\x0c\x00\x00\x00'
p3018
tp3019
Rp3020
sg34
g44
sS'block.thisN'
p3021
I1
sS'stim.thisN'
p3022
I12
sg2746
g2747
sg2748
g2749
sg21
g22
sg30
g33
sS'trials.thisIndex'
p3023
g2753
sS'stim.thisRepN'
p3024
I0
sg23
g28
sg2755
g551
sS'trials.thisRepN'
p3025
I3
sS'trials.thisN'
p3026
I3
sg2758
g35
(g90
S'\r\x00\x00\x00\x00\x00\x00\x00'
p3027
tp3028
Rp3029
sg29
g11
sS'trials.thisTrialN'
p3030
I0
sS'block.thisIndex'
p3031
g1614
sg2764
g35
(g90
S'\x08\x00\x00\x00\x00\x00\x00\x00'
p3032
tp3033
Rp3034
sa(dp3035
S'block.thisTrialN'
p3036
I0
sS'stim.thisTrialN'
p3037
I13
sS'block.thisRepN'
p3038
I1
sg2738
g2739
sS'stim.thisIndex'
p3039
g35
(g70
S'\r\x00\x00\x00'
p3040
tp3041
Rp3042
sg34
g44
sS'block.thisN'
p3043
I1
sS'stim.thisN'
p3044
I13
sg2746
g2747
sg2748
g2749
sg21
g22
sg30
g33
sS'trials.thisIndex'
p3045
g2753
sS'stim.thisRepN'
p3046
I0
sg23
g28
sg2755
g775
sS'trials.thisRepN'
p3047
I3
sS'trials.thisN'
p3048
I3
sg2758
g35
(g90
S'\x0e\x00\x00\x00\x00\x00\x00\x00'
p3049
tp3050
Rp3051
sg29
g11
sS'trials.thisTrialN'
p3052
I0
sS'block.thisIndex'
p3053
g1614
sg2764
g35
(g90
S'\x08\x00\x00\x00\x00\x00\x00\x00'
p3054
tp3055
Rp3056
sa(dp3057
S'block.thisTrialN'
p3058
I0
sS'stim.thisTrialN'
p3059
I14
sS'block.thisRepN'
p3060
I1
sg2738
g2739
sS'stim.thisIndex'
p3061
g35
(g70
S'\x0e\x00\x00\x00'
p3062
tp3063
Rp3064
sg34
g44
sS'block.thisN'
p3065
I1
sS'stim.thisN'
p3066
I14
sg2746
g2747
sg2748
g2749
sg21
g22
sg30
g33
sS'trials.thisIndex'
p3067
g2753
sS'stim.thisRepN'
p3068
I0
sg23
g28
sg2755
g162
sS'trials.thisRepN'
p3069
I3
sS'trials.thisN'
p3070
I3
sg2758
g35
(g90
S'\x0f\x00\x00\x00\x00\x00\x00\x00'
p3071
tp3072
Rp3073
sg29
g11
sS'trials.thisTrialN'
p3074
I0
sS'block.thisIndex'
p3075
g1614
sg2764
g35
(g90
S'\x08\x00\x00\x00\x00\x00\x00\x00'
p3076
tp3077
Rp3078
sa(dp3079
S'block.thisTrialN'
p3080
I0
sS'block.thisRepN'
p3081
I1
sg16
g496
sS'trials.thisRepN'
p3082
I3
sg15
F0.26670037978328764
sS'block.thisN'
p3083
I1
sg34
g44
sS'trials.thisN'
p3084
I3
sg14
g496
sg29
g11
sS'trials.thisTrialN'
p3085
I0
sg30
g33
sS'trials.thisIndex'
p3086
g2753
sg21
g22
sg23
g28
sS'block.thisIndex'
p3087
g1614
sg17
F0.25081042503006756
sa(dp3088
S'block.thisTrialN'
p3089
I0
sS'block.thisRepN'
p3090
I1
sg34
g44
sS'block.thisN'
p3091
I1
sg29
g11
sg30
g33
sg21
g22
sg23
g28
sS'block.thisIndex'
p3092
g1614
sasS'loops'
p3093
(lp3094
g0
(cpsychopy.data.trial
TrialHandler
p3095
g2
Ntp3096
Rp3097
(dp3098
S'origin'
p3099
NsS'thisTrial'
p3100
(lp3101
sS'_exp'
p3102
I551898352
sg10
S'block'
p3103
sg6
I-1
sS'thisRepN'
p3104
I2
sg18
I01
sg19
g20
sS'data'
p3105
g0
(cpsychopy.data.base
DataHandler
p3106
c__builtin__
dict
p3107
(dp3108
S'ran'
p3109
cnumpy.ma.core
_mareconstruct
p3110
(cnumpy.ma.core
MaskedArray
p3111
cnumpy
ndarray
p3112
(I0
tp3113
S'b'
p3114
tp3115
Rp3116
(I1
(I1
I2
tp3117
g36
(S'f4'
p3118
I0
I1
tp3119
Rp3120
(I3
S'<'
p3121
NNNI-1
I-1
I0
tp3122
bI00
S'\x00\x00\x80?\x00\x00\x80?'
p3123
S'\x00\x00'
p3124
Ntp3125
bsS'order'
p3126
g3110
(g3111
g3112
g3113
g3114
tp3127
Rp3128
(I1
(I1
I2
tp3129
g3120
I00
S'\x00\x00\x00\x00\x00\x00\x80?'
p3130
S'\x00\x00'
p3131
Ntp3132
bstp3133
Rp3134
(dp3135
S'isNumeric'
p3136
(dp3137
g3109
I01
sg3126
I01
ssS'trials'
p3138
g3097
sS'dataTypes'
p3139
(lp3140
g3109
ag3126
asS'dataShape'
p3141
(lp3142
I1
aI2
asbsS'method'
p3143
S'random'
p3144
sS'sequenceIndices'
p3145
cnumpy.core.multiarray
_reconstruct
p3146
(g3112
(I0
tp3147
g3114
tp3148
Rp3149
(I1
(I1
I2
tp3150
g70
I00
S'\x00\x00\x00\x00\x00\x00\x00\x00'
p3151
tp3152
bsS'finished'
p3153
I01
sS'nReps'
p3154
I2
sS'nRemaining'
p3155
I-1
sS'trialList'
p3156
(lp3157
NasS'seed'
p3158
NsS'thisIndex'
p3159
g1614
sS'thisN'
p3160
I2
sS'thisTrialN'
p3161
I0
sS'nTotal'
p3162
I2
sbag0
(g3095
g2
Ntp3163
Rp3164
(dp3165
g3099
Nsg3100
(lp3166
sg3102
I551898352
sg10
g3138
sg6
I-1
sg3104
I4
sg18
I01
sg19
g20
sg3105
g0
(g3106
g3107
(dp3167
g14
g3146
(g3112
(I0
tp3168
g3114
tp3169
Rp3170
(I1
(I1
I4
tp3171
g36
(S'O4'
p3172
I0
I1
tp3173
Rp3174
(I3
S'|'
p3175
NNNI-1
I-1
I63
tp3176
bI00
(lp3177
g496
ag496
ag496
ag496
atp3178
bsg16
g3146
(g3112
(I0
tp3179
g3114
tp3180
Rp3181
(I1
(I1
I4
tp3182
g3174
I00
(lp3183
g496
ag496
ag496
ag496
atp3184
bsg3109
g3110
(g3111
g3112
g3113
g3114
tp3185
Rp3186
(I1
(I1
I4
tp3187
g3120
I00
S'\x00\x00\x80?\x00\x00\x80?\x00\x00\x80?\x00\x00\x80?'
p3188
S'\x00\x00\x00\x00'
p3189
Ntp3190
bsg15
g3110
(g3111
g3112
g3113
g3114
tp3191
Rp3192
(I1
(I1
I4
tp3193
g3120
I00
S'\xb0\x96\x90?\x9f\x03\xc4>\xa6P\xb4>\x185&?'
p3194
S'\x00\x00\x00\x00'
p3195
Ntp3196
bsg3126
g3110
(g3111
g3112
g3113
g3114
tp3197
Rp3198
(I1
(I1
I4
tp3199
g3120
I00
S'\x00\x00\x00\x00\x00\x00\x80?\x00\x00\x00@\x00\x00@@'
p3200
S'\x00\x00\x00\x00'
p3201
Ntp3202
bsg17
g3110
(g3111
g3112
g3113
g3114
tp3203
Rp3204
(I1
(I1
I4
tp3205
g3120
I00
S'u\xf3\x1b>\x0b{M?\xb6\x11[>\x05\x02^>'
p3206
S'\x00\x00\x00\x00'
p3207
Ntp3208
bstp3209
Rp3210
(dp3211
g3136
(dp3212
g16
I00
sg3109
I01
sg15
I01
sg14
I00
sg3126
I01
sg17
I01
ssg3138
g3164
sg3139
(lp3213
g3109
ag3126
ag14
ag15
ag16
ag17
asg3141
(lp3214
I1
aI4
asbsg3143
S'sequential'
p3215
sg3145
g3146
(g3112
(I0
tp3216
g3114
tp3217
Rp3218
(I1
(I1
I4
tp3219
g70
I00
S'\x00\x00\x00\x00\x00\x00\x00\x00\x00\x00\x00\x00\x00\x00\x00\x00'
p3220
tp3221
bsg3153
I01
sg3154
I4
sg3155
I-1
sg3156
(lp3222
Nasg3158
Nsg3159
g1240
sg3160
I4
sg3161
I0
sg3162
I4
sbag0
(g3095
g2
Ntp3223
Rp3224
(dp3225
g3099
Nsg3100
(lp3226
sg3102
I551898352
sg10
S'stim'
p3227
sg6
I-1
sg3104
I1
sg18
I01
sg19
g20
sg3105
g0
(g3106
g3107
(dp3228
g3109
g3110
(g3111
g3112
g3113
g3114
tp3229
Rp3230
(I1
(I18
I1
tp3231
g3120
I00
S'\x00\x00\x80?\x00\x00\x80?\x00\x00\x80?\x00\x00\x80?\x00\x00\x80?\x00\x00\x80?\x00\x00\x80?\x00\x00\x80?\x00\x00\x80?\x00\x00\x80?\x00\x00\x80?\x00\x00\x80?\x00\x00\x80?\x00\x00\x80?\x00\x00\x80?\x00\x00\x80?\x00\x00\x80?\x00\x00\x80?'
p3232
S'\x00\x00\x00\x00\x00\x00\x00\x00\x00\x00\x00\x00\x00\x00\x00\x00\x00\x00'
p3233
Ntp3234
bsg3126
g3110
(g3111
g3112
g3113
g3114
tp3235
Rp3236
(I1
(I18
I1
tp3237
g3120
I00
S'\x00\x00\x00\x00\x00\x00\x80?\x00\x00\x00@\x00\x00@@\x00\x00\x80@\x00\x00\xa0@\x00\x00\xc0@\x00\x00\xe0@\x00\x00\x00A\x00\x00\x10A\x00\x00 A\x00\x000A\x00\x00@A\x00\x00PA\x00\x00`A\x00\x00pA\x00\x00\x80A\x00\x00\x88A'
p3238
S'\x00\x00\x00\x00\x00\x00\x00\x00\x00\x00\x00\x00\x00\x00\x00\x00\x00\x00'
p3239
Ntp3240
bstp3241
Rp3242
(dp3243
g3136
(dp3244
g3109
I01
sg3126
I01
ssg3138
g3224
sg3139
(lp3245
g3109
ag3126
asg3141
(lp3246
I18
aI1
asbsg3143
g3215
sg3145
g3146
(g3112
(I0
tp3247
g3114
tp3248
Rp3249
(I1
(I18
I1
tp3250
g70
I00
S'\x00\x00\x00\x00\x01\x00\x00\x00\x02\x00\x00\x00\x03\x00\x00\x00\x04\x00\x00\x00\x05\x00\x00\x00\x06\x00\x00\x00\x07\x00\x00\x00\x08\x00\x00\x00\t\x00\x00\x00\n\x00\x00\x00\x0b\x00\x00\x00\x0c\x00\x00\x00\r\x00\x00\x00\x0e\x00\x00\x00\x0f\x00\x00\x00\x10\x00\x00\x00\x11\x00\x00\x00'
p3251
tp3252
bsg3153
I01
sg3154
I1
sg3155
I-1
sg3156
(lp3253
ccollections
OrderedDict
p3254
((lp3255
(lp3256
g54
ag103
aa(lp3257
g55
ag78
aa(lp3258
g56
ag66
aa(lp3259
g57
ag95
aa(lp3260
g58
ag85
aa(lp3261
g59
ag79
aatp3262
Rp3263
ag3254
((lp3264
(lp3265
g54
ag126
aa(lp3266
g55
ag78
aa(lp3267
g56
ag66
aa(lp3268
g57
ag121
aa(lp3269
g58
ag116
aa(lp3270
g59
ag79
aatp3271
Rp3272
ag3254
((lp3273
(lp3274
g54
ag149
aa(lp3275
g55
ag78
aa(lp3276
g56
ag66
aa(lp3277
g57
ag144
aa(lp3278
g58
ag139
aa(lp3279
g59
ag79
aatp3280
Rp3281
ag3254
((lp3282
(lp3283
g54
ag172
aa(lp3284
g55
ag78
aa(lp3285
g56
ag66
aa(lp3286
g57
ag167
aa(lp3287
g58
ag162
aa(lp3288
g59
ag79
aatp3289
Rp3290
ag3254
((lp3291
(lp3292
g54
ag195
aa(lp3293
g55
ag78
aa(lp3294
g56
ag66
aa(lp3295
g57
ag190
aa(lp3296
g58
ag185
aa(lp3297
g59
ag79
aatp3298
Rp3299
ag3254
((lp3300
(lp3301
g54
ag217
aa(lp3302
g55
ag78
aa(lp3303
g56
ag66
aa(lp3304
g57
ag212
aa(lp3305
g58
ag185
aa(lp3306
g59
ag79
aatp3307
Rp3308
ag3254
((lp3309
(lp3310
g54
ag240
aa(lp3311
g55
ag78
aa(lp3312
g56
ag66
aa(lp3313
g57
ag235
aa(lp3314
g58
ag230
aa(lp3315
g59
ag79
aatp3316
Rp3317
ag3254
((lp3318
(lp3319
g54
ag263
aa(lp3320
g55
ag78
aa(lp3321
g56
ag66
aa(lp3322
g57
ag258
aa(lp3323
g58
ag253
aa(lp3324
g59
ag79
aatp3325
Rp3326
ag3254
((lp3327
(lp3328
g54
ag285
aa(lp3329
g55
ag78
aa(lp3330
g56
ag66
aa(lp3331
g57
ag280
aa(lp3332
g58
ag185
aa(lp3333
g59
ag79
aatp3334
Rp3335
ag3254
((lp3336
(lp3337
g54
ag309
aa(lp3338
g55
ag78
aa(lp3339
g56
ag66
aa(lp3340
g57
ag304
aa(lp3341
g58
ag299
aa(lp3342
g59
ag296
aatp3343
Rp3344
ag3254
((lp3345
(lp3346
g54
ag332
aa(lp3347
g55
ag78
aa(lp3348
g56
ag66
aa(lp3349
g57
ag327
aa(lp3350
g58
ag322
aa(lp3351
g59
ag79
aatp3352
Rp3353
ag3254
((lp3354
(lp3355
g54
ag355
aa(lp3356
g55
ag78
aa(lp3357
g56
ag66
aa(lp3358
g57
ag350
aa(lp3359
g58
ag345
aa(lp3360
g59
ag79
aatp3361
Rp3362
ag3254
((lp3363
(lp3364
g54
ag377
aa(lp3365
g55
ag78
aa(lp3366
g56
ag66
aa(lp3367
g57
ag372
aa(lp3368
g58
ag139
aa(lp3369
g59
ag79
aatp3370
Rp3371
ag3254
((lp3372
(lp3373
g54
ag401
aa(lp3374
g55
ag78
aa(lp3375
g56
ag66
aa(lp3376
g57
ag396
aa(lp3377
g58
ag391
aa(lp3378
g59
ag388
aatp3379
Rp3380
ag3254
((lp3381
(lp3382
g54
ag424
aa(lp3383
g55
ag78
aa(lp3384
g56
ag66
aa(lp3385
g57
ag419
aa(lp3386
g58
ag414
aa(lp3387
g59
ag79
aatp3388
Rp3389
ag3254
((lp3390
(lp3391
g54
ag447
aa(lp3392
g55
ag78
aa(lp3393
g56
ag66
aa(lp3394
g57
ag442
aa(lp3395
g58
ag437
aa(lp3396
g59
ag79
aatp3397
Rp3398
ag3254
((lp3399
(lp3400
g54
ag469
aa(lp3401
g55
ag78
aa(lp3402
g56
ag66
aa(lp3403
g57
ag464
aa(lp3404
g58
ag139
aa(lp3405
g59
ag79
aatp3406
Rp3407
ag3254
((lp3408
(lp3409
g54
ag492
aa(lp3410
g55
ag78
aa(lp3411
g56
ag66
aa(lp3412
g57
ag487
aa(lp3413
g58
ag482
aa(lp3414
g59
ag79
aatp3415
Rp3416
asg3158
Nsg3159
g477
sg3160
I18
sg3161
I0
sg3162
I18
sbag0
(g3095
g2
Ntp3417
Rp3418
(dp3419
g3099
Nsg3100
(lp3420
sg3102
I551898352
sg10
g3227
sg6
I-1
sg3104
I1
sg18
I01
sg19
g20
sg3105
g0
(g3106
g3107
(dp3421
g3109
g3110
(g3111
g3112
g3113
g3114
tp3422
Rp3423
(I1
(I15
I1
tp3424
g3120
I00
S'\x00\x00\x80?\x00\x00\x80?\x00\x00\x80?\x00\x00\x80?\x00\x00\x80?\x00\x00\x80?\x00\x00\x80?\x00\x00\x80?\x00\x00\x80?\x00\x00\x80?\x00\x00\x80?\x00\x00\x80?\x00\x00\x80?\x00\x00\x80?\x00\x00\x80?'
p3425
S'\x00\x00\x00\x00\x00\x00\x00\x00\x00\x00\x00\x00\x00\x00\x00'
p3426
Ntp3427
bsg3126
g3110
(g3111
g3112
g3113
g3114
tp3428
Rp3429
(I1
(I15
I1
tp3430
g3120
I00
S'\x00\x00\x00\x00\x00\x00\x80?\x00\x00\x00@\x00\x00@@\x00\x00\x80@\x00\x00\xa0@\x00\x00\xc0@\x00\x00\xe0@\x00\x00\x00A\x00\x00\x10A\x00\x00 A\x00\x000A\x00\x00@A\x00\x00PA\x00\x00`A'
p3431
S'\x00\x00\x00\x00\x00\x00\x00\x00\x00\x00\x00\x00\x00\x00\x00'
p3432
Ntp3433
bstp3434
Rp3435
(dp3436
g3136
(dp3437
g3109
I01
sg3126
I01
ssg3138
g3418
sg3139
(lp3438
g3109
ag3126
asg3141
(lp3439
I15
aI1
asbsg3143
g3215
sg3145
g3146
(g3112
(I0
tp3440
g3114
tp3441
Rp3442
(I1
(I15
I1
tp3443
g70
I00
S'\x00\x00\x00\x00\x01\x00\x00\x00\x02\x00\x00\x00\x03\x00\x00\x00\x04\x00\x00\x00\x05\x00\x00\x00\x06\x00\x00\x00\x07\x00\x00\x00\x08\x00\x00\x00\t\x00\x00\x00\n\x00\x00\x00\x0b\x00\x00\x00\x0c\x00\x00\x00\r\x00\x00\x00\x0e\x00\x00\x00'
p3444
tp3445
bsg3153
I01
sg3154
I1
sg3155
I-1
sg3156
(lp3446
g3254
((lp3447
(lp3448
g534
ag537
aa(lp3449
g515
ag516
aa(lp3450
g507
ag508
aa(lp3451
g528
ag531
aa(lp3452
g524
ag525
aa(lp3453
g517
ag518
aatp3454
Rp3455
ag3254
((lp3456
(lp3457
g534
ag561
aa(lp3458
g515
ag516
aa(lp3459
g507
ag508
aa(lp3460
g528
ag556
aa(lp3461
g524
ag551
aa(lp3462
g517
ag548
aatp3463
Rp3464
ag3254
((lp3465
(lp3466
g534
ag583
aa(lp3467
g515
ag516
aa(lp3468
g507
ag508
aa(lp3469
g528
ag578
aa(lp3470
g524
ag253
aa(lp3471
g517
ag548
aatp3472
Rp3473
ag3254
((lp3474
(lp3475
g534
ag606
aa(lp3476
g515
ag516
aa(lp3477
g507
ag508
aa(lp3478
g528
ag601
aa(lp3479
g524
ag596
aa(lp3480
g517
ag548
aatp3481
Rp3482
ag3254
((lp3483
(lp3484
g534
ag629
aa(lp3485
g515
ag516
aa(lp3486
g507
ag508
aa(lp3487
g528
ag624
aa(lp3488
g524
ag391
aa(lp3489
g517
ag617
aatp3490
Rp3491
ag3254
((lp3492
(lp3493
g534
ag651
aa(lp3494
g515
ag516
aa(lp3495
g507
ag508
aa(lp3496
g528
ag646
aa(lp3497
g524
ag185
aa(lp3498
g517
ag548
aatp3499
Rp3500
ag3254
((lp3501
(lp3502
g534
ag673
aa(lp3503
g515
ag516
aa(lp3504
g507
ag508
aa(lp3505
g528
ag668
aa(lp3506
g524
ag139
aa(lp3507
g517
ag548
aatp3508
Rp3509
ag3254
((lp3510
(lp3511
g534
ag695
aa(lp3512
g515
ag516
aa(lp3513
g507
ag508
aa(lp3514
g528
ag690
aa(lp3515
g524
ag230
aa(lp3516
g517
ag548
aatp3517
Rp3518
ag3254
((lp3519
(lp3520
g534
ag718
aa(lp3521
g515
ag516
aa(lp3522
g507
ag508
aa(lp3523
g528
ag713
aa(lp3524
g524
ag708
aa(lp3525
g517
ag548
aatp3526
Rp3527
ag3254
((lp3528
(lp3529
g534
ag740
aa(lp3530
g515
ag516
aa(lp3531
g507
ag508
aa(lp3532
g528
ag735
aa(lp3533
g524
ag85
aa(lp3534
g517
ag548
aatp3535
Rp3536
ag3254
((lp3537
(lp3538
g534
ag762
aa(lp3539
g515
ag516
aa(lp3540
g507
ag508
aa(lp3541
g528
ag757
aa(lp3542
g524
ag139
aa(lp3543
g517
ag548
aatp3544
Rp3545
ag3254
((lp3546
(lp3547
g534
ag785
aa(lp3548
g515
ag516
aa(lp3549
g507
ag508
aa(lp3550
g528
ag780
aa(lp3551
g524
ag775
aa(lp3552
g517
ag548
aatp3553
Rp3554
ag3254
((lp3555
(lp3556
g534
ag808
aa(lp3557
g515
ag516
aa(lp3558
g507
ag508
aa(lp3559
g528
ag803
aa(lp3560
g524
ag798
aa(lp3561
g517
ag548
aatp3562
Rp3563
ag3254
((lp3564
(lp3565
g534
ag830
aa(lp3566
g515
ag516
aa(lp3567
g507
ag508
aa(lp3568
g528
ag825
aa(lp3569
g524
ag162
aa(lp3570
g517
ag548
aatp3571
Rp3572
ag3254
((lp3573
(lp3574
g534
ag853
aa(lp3575
g515
ag516
aa(lp3576
g507
ag508
aa(lp3577
g528
ag848
aa(lp3578
g524
ag843
aa(lp3579
g517
ag548
aatp3580
Rp3581
asg3158
Nsg3159
g838
sg3160
I15
sg3161
I0
sg3162
I15
sbag0
(g3095
g2
Ntp3582
Rp3583
(dp3584
g3099
Nsg3100
(lp3585
sg3102
I551898352
sg10
g3227
sg6
I-1
sg3104
I1
sg18
I01
sg19
g20
sg3105
g0
(g3106
g3107
(dp3586
g3109
g3110
(g3111
g3112
g3113
g3114
tp3587
Rp3588
(I1
(I15
I1
tp3589
g3120
I00
S'\x00\x00\x80?\x00\x00\x80?\x00\x00\x80?\x00\x00\x80?\x00\x00\x80?\x00\x00\x80?\x00\x00\x80?\x00\x00\x80?\x00\x00\x80?\x00\x00\x80?\x00\x00\x80?\x00\x00\x80?\x00\x00\x80?\x00\x00\x80?\x00\x00\x80?'
p3590
S'\x00\x00\x00\x00\x00\x00\x00\x00\x00\x00\x00\x00\x00\x00\x00'
p3591
Ntp3592
bsg3126
g3110
(g3111
g3112
g3113
g3114
tp3593
Rp3594
(I1
(I15
I1
tp3595
g3120
I00
S'\x00\x00\x00\x00\x00\x00\x80?\x00\x00\x00@\x00\x00@@\x00\x00\x80@\x00\x00\xa0@\x00\x00\xc0@\x00\x00\xe0@\x00\x00\x00A\x00\x00\x10A\x00\x00 A\x00\x000A\x00\x00@A\x00\x00PA\x00\x00`A'
p3596
S'\x00\x00\x00\x00\x00\x00\x00\x00\x00\x00\x00\x00\x00\x00\x00'
p3597
Ntp3598
bstp3599
Rp3600
(dp3601
g3136
(dp3602
g3109
I01
sg3126
I01
ssg3138
g3583
sg3139
(lp3603
g3109
ag3126
asg3141
(lp3604
I15
aI1
asbsg3143
g3215
sg3145
g3146
(g3112
(I0
tp3605
g3114
tp3606
Rp3607
(I1
(I15
I1
tp3608
g70
I00
S'\x00\x00\x00\x00\x01\x00\x00\x00\x02\x00\x00\x00\x03\x00\x00\x00\x04\x00\x00\x00\x05\x00\x00\x00\x06\x00\x00\x00\x07\x00\x00\x00\x08\x00\x00\x00\t\x00\x00\x00\n\x00\x00\x00\x0b\x00\x00\x00\x0c\x00\x00\x00\r\x00\x00\x00\x0e\x00\x00\x00'
p3609
tp3610
bsg3153
I01
sg3154
I1
sg3155
I-1
sg3156
(lp3611
g3254
((lp3612
(lp3613
g894
ag897
aa(lp3614
g875
ag876
aa(lp3615
g867
ag868
aa(lp3616
g888
ag891
aa(lp3617
g884
ag885
aa(lp3618
g877
ag878
aatp3619
Rp3620
ag3254
((lp3621
(lp3622
g894
ag919
aa(lp3623
g875
ag876
aa(lp3624
g867
ag868
aa(lp3625
g888
ag914
aa(lp3626
g884
ag162
aa(lp3627
g877
ag878
aatp3628
Rp3629
ag3254
((lp3630
(lp3631
g894
ag941
aa(lp3632
g875
ag876
aa(lp3633
g867
ag868
aa(lp3634
g888
ag936
aa(lp3635
g884
ag253
aa(lp3636
g877
ag878
aatp3637
Rp3638
ag3254
((lp3639
(lp3640
g894
ag963
aa(lp3641
g875
ag876
aa(lp3642
g867
ag868
aa(lp3643
g888
ag958
aa(lp3644
g884
ag437
aa(lp3645
g877
ag878
aatp3646
Rp3647
ag3254
((lp3648
(lp3649
g894
ag986
aa(lp3650
g875
ag876
aa(lp3651
g867
ag868
aa(lp3652
g888
ag981
aa(lp3653
g884
ag976
aa(lp3654
g877
ag878
aatp3655
Rp3656
ag3254
((lp3657
(lp3658
g894
ag1009
aa(lp3659
g875
ag876
aa(lp3660
g867
ag868
aa(lp3661
g888
ag1004
aa(lp3662
g884
ag999
aa(lp3663
g877
ag878
aatp3664
Rp3665
ag3254
((lp3666
(lp3667
g894
ag1031
aa(lp3668
g875
ag876
aa(lp3669
g867
ag868
aa(lp3670
g888
ag1026
aa(lp3671
g884
ag345
aa(lp3672
g877
ag878
aatp3673
Rp3674
ag3254
((lp3675
(lp3676
g894
ag1055
aa(lp3677
g875
ag876
aa(lp3678
g867
ag868
aa(lp3679
g888
ag1050
aa(lp3680
g884
ag1045
aa(lp3681
g877
ag1042
aatp3682
Rp3683
ag3254
((lp3684
(lp3685
g894
ag1078
aa(lp3686
g875
ag876
aa(lp3687
g867
ag868
aa(lp3688
g888
ag1073
aa(lp3689
g884
ag1068
aa(lp3690
g877
ag878
aatp3691
Rp3692
ag3254
((lp3693
(lp3694
g894
ag1100
aa(lp3695
g875
ag876
aa(lp3696
g867
ag868
aa(lp3697
g888
ag1095
aa(lp3698
g884
ag345
aa(lp3699
g877
ag878
aatp3700
Rp3701
ag3254
((lp3702
(lp3703
g894
ag1122
aa(lp3704
g875
ag876
aa(lp3705
g867
ag868
aa(lp3706
g888
ag1117
aa(lp3707
g884
ag596
aa(lp3708
g877
ag878
aatp3709
Rp3710
ag3254
((lp3711
(lp3712
g894
ag1145
aa(lp3713
g875
ag876
aa(lp3714
g867
ag868
aa(lp3715
g888
ag1140
aa(lp3716
g884
ag391
aa(lp3717
g877
ag1133
aatp3718
Rp3719
ag3254
((lp3720
(lp3721
g894
ag1167
aa(lp3722
g875
ag876
aa(lp3723
g867
ag868
aa(lp3724
g888
ag1162
aa(lp3725
g884
ag116
aa(lp3726
g877
ag878
aatp3727
Rp3728
ag3254
((lp3729
(lp3730
g894
ag1189
aa(lp3731
g875
ag876
aa(lp3732
g867
ag868
aa(lp3733
g888
ag1184
aa(lp3734
g884
ag139
aa(lp3735
g877
ag878
aatp3736
Rp3737
ag3254
((lp3738
(lp3739
g894
ag1211
aa(lp3740
g875
ag876
aa(lp3741
g867
ag868
aa(lp3742
g888
ag1206
aa(lp3743
g884
ag775
aa(lp3744
g877
ag878
aatp3745
Rp3746
asg3158
Nsg3159
g1197
sg3160
I15
sg3161
I0
sg3162
I15
sbag0
(g3095
g2
Ntp3747
Rp3748
(dp3749
g3099
Nsg3100
(lp3750
sg3102
I551898352
sg10
g3227
sg6
I-1
sg3104
I1
sg18
I01
sg19
g20
sg3105
g0
(g3106
g3107
(dp3751
g3109
g3110
(g3111
g3112
g3113
g3114
tp3752
Rp3753
(I1
(I15
I1
tp3754
g3120
I00
S'\x00\x00\x80?\x00\x00\x80?\x00\x00\x80?\x00\x00\x80?\x00\x00\x80?\x00\x00\x80?\x00\x00\x80?\x00\x00\x80?\x00\x00\x80?\x00\x00\x80?\x00\x00\x80?\x00\x00\x80?\x00\x00\x80?\x00\x00\x80?\x00\x00\x80?'
p3755
S'\x00\x00\x00\x00\x00\x00\x00\x00\x00\x00\x00\x00\x00\x00\x00'
p3756
Ntp3757
bsg3126
g3110
(g3111
g3112
g3113
g3114
tp3758
Rp3759
(I1
(I15
I1
tp3760
g3120
I00
S'\x00\x00\x00\x00\x00\x00\x80?\x00\x00\x00@\x00\x00@@\x00\x00\x80@\x00\x00\xa0@\x00\x00\xc0@\x00\x00\xe0@\x00\x00\x00A\x00\x00\x10A\x00\x00 A\x00\x000A\x00\x00@A\x00\x00PA\x00\x00`A'
p3761
S'\x00\x00\x00\x00\x00\x00\x00\x00\x00\x00\x00\x00\x00\x00\x00'
p3762
Ntp3763
bstp3764
Rp3765
(dp3766
g3136
(dp3767
g3109
I01
sg3126
I01
ssg3138
g3748
sg3139
(lp3768
g3109
ag3126
asg3141
(lp3769
I15
aI1
asbsg3143
g3215
sg3145
g3146
(g3112
(I0
tp3770
g3114
tp3771
Rp3772
(I1
(I15
I1
tp3773
g70
I00
S'\x00\x00\x00\x00\x01\x00\x00\x00\x02\x00\x00\x00\x03\x00\x00\x00\x04\x00\x00\x00\x05\x00\x00\x00\x06\x00\x00\x00\x07\x00\x00\x00\x08\x00\x00\x00\t\x00\x00\x00\n\x00\x00\x00\x0b\x00\x00\x00\x0c\x00\x00\x00\r\x00\x00\x00\x0e\x00\x00\x00'
p3774
tp3775
bsg3153
I01
sg3154
I1
sg3155
I-1
sg3156
(lp3776
g3254
((lp3777
(lp3778
g1251
ag1254
aa(lp3779
g1233
ag1234
aa(lp3780
g1225
ag1226
aa(lp3781
g1245
ag1248
aa(lp3782
g1242
ag482
aa(lp3783
g1235
ag1236
aatp3784
Rp3785
ag3254
((lp3786
(lp3787
g1251
ag1276
aa(lp3788
g1233
ag1234
aa(lp3789
g1225
ag1226
aa(lp3790
g1245
ag1271
aa(lp3791
g1242
ag596
aa(lp3792
g1235
ag1236
aatp3793
Rp3794
ag3254
((lp3795
(lp3796
g1251
ag1298
aa(lp3797
g1233
ag1234
aa(lp3798
g1225
ag1226
aa(lp3799
g1245
ag1293
aa(lp3800
g1242
ag253
aa(lp3801
g1235
ag1236
aatp3802
Rp3803
ag3254
((lp3804
(lp3805
g1251
ag1320
aa(lp3806
g1233
ag1234
aa(lp3807
g1225
ag1226
aa(lp3808
g1245
ag1315
aa(lp3809
g1242
ag437
aa(lp3810
g1235
ag1236
aatp3811
Rp3812
ag3254
((lp3813
(lp3814
g1251
ag1343
aa(lp3815
g1233
ag1234
aa(lp3816
g1225
ag1226
aa(lp3817
g1245
ag1338
aa(lp3818
g1242
ag1333
aa(lp3819
g1235
ag1236
aatp3820
Rp3821
ag3254
((lp3822
(lp3823
g1251
ag1365
aa(lp3824
g1233
ag1234
aa(lp3825
g1225
ag1226
aa(lp3826
g1245
ag1360
aa(lp3827
g1242
ag775
aa(lp3828
g1235
ag1236
aatp3829
Rp3830
ag3254
((lp3831
(lp3832
g1251
ag1387
aa(lp3833
g1233
ag1234
aa(lp3834
g1225
ag1226
aa(lp3835
g1245
ag1382
aa(lp3836
g1242
ag139
aa(lp3837
g1235
ag1236
aatp3838
Rp3839
ag3254
((lp3840
(lp3841
g1251
ag1411
aa(lp3842
g1233
ag1234
aa(lp3843
g1225
ag1226
aa(lp3844
g1245
ag1406
aa(lp3845
g1242
ag1401
aa(lp3846
g1235
ag1398
aatp3847
Rp3848
ag3254
((lp3849
(lp3850
g1251
ag1433
aa(lp3851
g1233
ag1234
aa(lp3852
g1225
ag1226
aa(lp3853
g1245
ag1428
aa(lp3854
g1242
ag1068
aa(lp3855
g1235
ag1236
aatp3856
Rp3857
ag3254
((lp3858
(lp3859
g1251
ag1455
aa(lp3860
g1233
ag1234
aa(lp3861
g1225
ag1226
aa(lp3862
g1245
ag1450
aa(lp3863
g1242
ag253
aa(lp3864
g1235
ag1236
aatp3865
Rp3866
ag3254
((lp3867
(lp3868
g1251
ag1477
aa(lp3869
g1233
ag1234
aa(lp3870
g1225
ag1226
aa(lp3871
g1245
ag1472
aa(lp3872
g1242
ag482
aa(lp3873
g1235
ag1236
aatp3874
Rp3875
ag3254
((lp3876
(lp3877
g1251
ag1500
aa(lp3878
g1233
ag1234
aa(lp3879
g1225
ag1226
aa(lp3880
g1245
ag1495
aa(lp3881
g1242
ag391
aa(lp3882
g1235
ag1488
aatp3883
Rp3884
ag3254
((lp3885
(lp3886
g1251
ag1523
aa(lp3887
g1233
ag1234
aa(lp3888
g1225
ag1226
aa(lp3889
g1245
ag1518
aa(lp3890
g1242
ag1513
aa(lp3891
g1235
ag1236
aatp3892
Rp3893
ag3254
((lp3894
(lp3895
g1251
ag1545
aa(lp3896
g1233
ag1234
aa(lp3897
g1225
ag1226
aa(lp3898
g1245
ag1540
aa(lp3899
g1242
ag345
aa(lp3900
g1235
ag1236
aatp3901
Rp3902
ag3254
((lp3903
(lp3904
g1251
ag1567
aa(lp3905
g1233
ag1234
aa(lp3906
g1225
ag1226
aa(lp3907
g1245
ag1562
aa(lp3908
g1242
ag230
aa(lp3909
g1235
ag1236
aatp3910
Rp3911
asg3158
Nsg3159
g1553
sg3160
I15
sg3161
I0
sg3162
I15
sbag0
(g3095
g2
Ntp3912
Rp3913
(dp3914
g3099
Nsg3100
(lp3915
sg3102
I551898352
sg10
g3138
sg6
I-1
sg3104
I4
sg18
I01
sg19
g20
sg3105
g0
(g3106
g3107
(dp3916
g14
g3146
(g3112
(I0
tp3917
g3114
tp3918
Rp3919
(I1
(I1
I4
tp3920
g3174
I00
(lp3921
g496
ag496
ag496
ag496
atp3922
bsg16
g3146
(g3112
(I0
tp3923
g3114
tp3924
Rp3925
(I1
(I1
I4
tp3926
g3174
I00
(lp3927
g496
ag496
ag496
ag496
atp3928
bsg3109
g3110
(g3111
g3112
g3113
g3114
tp3929
Rp3930
(I1
(I1
I4
tp3931
g3120
I00
S'\x00\x00\x80?\x00\x00\x80?\x00\x00\x80?\x00\x00\x80?'
p3932
S'\x00\x00\x00\x00'
p3933
Ntp3934
bsg15
g3110
(g3111
g3112
g3113
g3114
tp3935
Rp3936
(I1
(I1
I4
tp3937
g3120
I00
S'6\x98\x91>\xc3\xc9\x15?\xf8\xd8\x91>\xf4\x8c\x88>'
p3938
S'\x00\x00\x00\x00'
p3939
Ntp3940
bsg3126
g3110
(g3111
g3112
g3113
g3114
tp3941
Rp3942
(I1
(I1
I4
tp3943
g3120
I00
S'\x00\x00\x00\x00\x00\x00\x80?\x00\x00\x00@\x00\x00@@'
p3944
S'\x00\x00\x00\x00'
p3945
Ntp3946
bsg17
g3110
(g3111
g3112
g3113
g3114
tp3947
Rp3948
(I1
(I1
I4
tp3949
g3120
I00
S'\xf4\xfcI>\x97%\x80>\xb5\x1fA>9j\x80>'
p3950
S'\x00\x00\x00\x00'
p3951
Ntp3952
bstp3953
Rp3954
(dp3955
g3136
(dp3956
g16
I00
sg3109
I01
sg15
I01
sg14
I00
sg3126
I01
sg17
I01
ssg3138
g3913
sg3139
(lp3957
g3109
ag3126
ag14
ag15
ag16
ag17
asg3141
(lp3958
I1
aI4
asbsg3143
g3215
sg3145
g3146
(g3112
(I0
tp3959
g3114
tp3960
Rp3961
(I1
(I1
I4
tp3962
g70
I00
S'\x00\x00\x00\x00\x00\x00\x00\x00\x00\x00\x00\x00\x00\x00\x00\x00'
p3963
tp3964
bsg3153
I01
sg3154
I4
sg3155
I-1
sg3156
(lp3965
Nasg3158
Nsg3159
g2753
sg3160
I4
sg3161
I0
sg3162
I4
sbag0
(g3095
g2
Ntp3966
Rp3967
(dp3968
g3099
Nsg3100
(lp3969
sg3102
I551898352
sg10
g3227
sg6
I-1
sg3104
I1
sg18
I01
sg19
g20
sg3105
g0
(g3106
g3107
(dp3970
g3109
g3110
(g3111
g3112
g3113
g3114
tp3971
Rp3972
(I1
(I16
I1
tp3973
g3120
I00
S'\x00\x00\x80?\x00\x00\x80?\x00\x00\x80?\x00\x00\x80?\x00\x00\x80?\x00\x00\x80?\x00\x00\x80?\x00\x00\x80?\x00\x00\x80?\x00\x00\x80?\x00\x00\x80?\x00\x00\x80?\x00\x00\x80?\x00\x00\x80?\x00\x00\x80?\x00\x00\x80?'
p3974
S'\x00\x00\x00\x00\x00\x00\x00\x00\x00\x00\x00\x00\x00\x00\x00\x00'
p3975
Ntp3976
bsg3126
g3110
(g3111
g3112
g3113
g3114
tp3977
Rp3978
(I1
(I16
I1
tp3979
g3120
I00
S'\x00\x00\x00\x00\x00\x00\x80?\x00\x00\x00@\x00\x00@@\x00\x00\x80@\x00\x00\xa0@\x00\x00\xc0@\x00\x00\xe0@\x00\x00\x00A\x00\x00\x10A\x00\x00 A\x00\x000A\x00\x00@A\x00\x00PA\x00\x00`A\x00\x00pA'
p3980
S'\x00\x00\x00\x00\x00\x00\x00\x00\x00\x00\x00\x00\x00\x00\x00\x00'
p3981
Ntp3982
bstp3983
Rp3984
(dp3985
g3136
(dp3986
g3109
I01
sg3126
I01
ssg3138
g3967
sg3139
(lp3987
g3109
ag3126
asg3141
(lp3988
I16
aI1
asbsg3143
g3215
sg3145
g3146
(g3112
(I0
tp3989
g3114
tp3990
Rp3991
(I1
(I16
I1
tp3992
g70
I00
S'\x00\x00\x00\x00\x01\x00\x00\x00\x02\x00\x00\x00\x03\x00\x00\x00\x04\x00\x00\x00\x05\x00\x00\x00\x06\x00\x00\x00\x07\x00\x00\x00\x08\x00\x00\x00\t\x00\x00\x00\n\x00\x00\x00\x0b\x00\x00\x00\x0c\x00\x00\x00\r\x00\x00\x00\x0e\x00\x00\x00\x0f\x00\x00\x00'
p3993
tp3994
bsg3153
I01
sg3154
I1
sg3155
I-1
sg3156
(lp3995
g3254
((lp3996
(lp3997
g1615
ag1618
aa(lp3998
g1594
ag1595
aa(lp3999
g1586
ag1587
aa(lp4000
g1606
ag1609
aa(lp4001
g1603
ag116
aa(lp4002
g1596
ag1597
aatp4003
Rp4004
ag3254
((lp4005
(lp4006
g1615
ag1640
aa(lp4007
g1594
ag1595
aa(lp4008
g1586
ag1587
aa(lp4009
g1606
ag1635
aa(lp4010
g1603
ag999
aa(lp4011
g1596
ag1597
aatp4012
Rp4013
ag3254
((lp4014
(lp4015
g1615
ag1662
aa(lp4016
g1594
ag1595
aa(lp4017
g1586
ag1587
aa(lp4018
g1606
ag1657
aa(lp4019
g1603
ag345
aa(lp4020
g1596
ag1597
aatp4021
Rp4022
ag3254
((lp4023
(lp4024
g1615
ag1684
aa(lp4025
g1594
ag1595
aa(lp4026
g1586
ag1587
aa(lp4027
g1606
ag1679
aa(lp4028
g1603
ag1068
aa(lp4029
g1596
ag1597
aatp4030
Rp4031
ag3254
((lp4032
(lp4033
g1615
ag1706
aa(lp4034
g1594
ag1595
aa(lp4035
g1586
ag1587
aa(lp4036
g1606
ag1701
aa(lp4037
g1603
ag230
aa(lp4038
g1596
ag1597
aatp4039
Rp4040
ag3254
((lp4041
(lp4042
g1615
ag1728
aa(lp4043
g1594
ag1595
aa(lp4044
g1586
ag1587
aa(lp4045
g1606
ag1723
aa(lp4046
g1603
ag116
aa(lp4047
g1596
ag1597
aatp4048
Rp4049
ag3254
((lp4050
(lp4051
g1615
ag1750
aa(lp4052
g1594
ag1595
aa(lp4053
g1586
ag1587
aa(lp4054
g1606
ag1745
aa(lp4055
g1603
ag482
aa(lp4056
g1596
ag1597
aatp4057
Rp4058
ag3254
((lp4059
(lp4060
g1615
ag1774
aa(lp4061
g1594
ag1595
aa(lp4062
g1586
ag1587
aa(lp4063
g1606
ag1769
aa(lp4064
g1603
ag1764
aa(lp4065
g1596
ag1761
aatp4066
Rp4067
ag3254
((lp4068
(lp4069
g1615
ag1797
aa(lp4070
g1594
ag1595
aa(lp4071
g1586
ag1587
aa(lp4072
g1606
ag1792
aa(lp4073
g1603
ag1787
aa(lp4074
g1596
ag1597
aatp4075
Rp4076
ag3254
((lp4077
(lp4078
g1615
ag1819
aa(lp4079
g1594
ag1595
aa(lp4080
g1586
ag1587
aa(lp4081
g1606
ag1814
aa(lp4082
g1603
ag116
aa(lp4083
g1596
ag1597
aatp4084
Rp4085
ag3254
((lp4086
(lp4087
g1615
ag1841
aa(lp4088
g1594
ag1595
aa(lp4089
g1586
ag1587
aa(lp4090
g1606
ag1836
aa(lp4091
g1603
ag1787
aa(lp4092
g1596
ag1597
aatp4093
Rp4094
ag3254
((lp4095
(lp4096
g1615
ag1864
aa(lp4097
g1594
ag1595
aa(lp4098
g1586
ag1587
aa(lp4099
g1606
ag1859
aa(lp4100
g1603
ag391
aa(lp4101
g1596
ag1852
aatp4102
Rp4103
ag3254
((lp4104
(lp4105
g1615
ag1886
aa(lp4106
g1594
ag1595
aa(lp4107
g1586
ag1587
aa(lp4108
g1606
ag1881
aa(lp4109
g1603
ag1787
aa(lp4110
g1596
ag1597
aatp4111
Rp4112
ag3254
((lp4113
(lp4114
g1615
ag1908
aa(lp4115
g1594
ag1595
aa(lp4116
g1586
ag1587
aa(lp4117
g1606
ag1903
aa(lp4118
g1603
ag414
aa(lp4119
g1596
ag1597
aatp4120
Rp4121
ag3254
((lp4122
(lp4123
g1615
ag1930
aa(lp4124
g1594
ag1595
aa(lp4125
g1586
ag1587
aa(lp4126
g1606
ag1925
aa(lp4127
g1603
ag185
aa(lp4128
g1596
ag1597
aatp4129
Rp4130
ag3254
((lp4131
(lp4132
g1615
ag1952
aa(lp4133
g1594
ag1595
aa(lp4134
g1586
ag1587
aa(lp4135
g1606
ag1947
aa(lp4136
g1603
ag414
aa(lp4137
g1596
ag1597
aatp4138
Rp4139
asg3158
Nsg3159
g1938
sg3160
I16
sg3161
I0
sg3162
I16
sbag0
(g3095
g2
Ntp4140
Rp4141
(dp4142
g3099
Nsg3100
(lp4143
sg3102
I551898352
sg10
g3227
sg6
I-1
sg3104
I1
sg18
I01
sg19
g20
sg3105
g0
(g3106
g3107
(dp4144
g3109
g3110
(g3111
g3112
g3113
g3114
tp4145
Rp4146
(I1
(I17
I1
tp4147
g3120
I00
S'\x00\x00\x80?\x00\x00\x80?\x00\x00\x80?\x00\x00\x80?\x00\x00\x80?\x00\x00\x80?\x00\x00\x80?\x00\x00\x80?\x00\x00\x80?\x00\x00\x80?\x00\x00\x80?\x00\x00\x80?\x00\x00\x80?\x00\x00\x80?\x00\x00\x80?\x00\x00\x80?\x00\x00\x80?'
p4148
S'\x00\x00\x00\x00\x00\x00\x00\x00\x00\x00\x00\x00\x00\x00\x00\x00\x00'
p4149
Ntp4150
bsg3126
g3110
(g3111
g3112
g3113
g3114
tp4151
Rp4152
(I1
(I17
I1
tp4153
g3120
I00
S'\x00\x00\x00\x00\x00\x00\x80?\x00\x00\x00@\x00\x00@@\x00\x00\x80@\x00\x00\xa0@\x00\x00\xc0@\x00\x00\xe0@\x00\x00\x00A\x00\x00\x10A\x00\x00 A\x00\x000A\x00\x00@A\x00\x00PA\x00\x00`A\x00\x00pA\x00\x00\x80A'
p4154
S'\x00\x00\x00\x00\x00\x00\x00\x00\x00\x00\x00\x00\x00\x00\x00\x00\x00'
p4155
Ntp4156
bstp4157
Rp4158
(dp4159
g3136
(dp4160
g3109
I01
sg3126
I01
ssg3138
g4141
sg3139
(lp4161
g3109
ag3126
asg3141
(lp4162
I17
aI1
asbsg3143
g3215
sg3145
g3146
(g3112
(I0
tp4163
g3114
tp4164
Rp4165
(I1
(I17
I1
tp4166
g70
I00
S'\x00\x00\x00\x00\x01\x00\x00\x00\x02\x00\x00\x00\x03\x00\x00\x00\x04\x00\x00\x00\x05\x00\x00\x00\x06\x00\x00\x00\x07\x00\x00\x00\x08\x00\x00\x00\t\x00\x00\x00\n\x00\x00\x00\x0b\x00\x00\x00\x0c\x00\x00\x00\r\x00\x00\x00\x0e\x00\x00\x00\x0f\x00\x00\x00\x10\x00\x00\x00'
p4167
tp4168
bsg3153
I01
sg3154
I1
sg3155
I-1
sg3156
(lp4169
g3254
((lp4170
(lp4171
g1992
ag1995
aa(lp4172
g1974
ag1975
aa(lp4173
g1966
ag1967
aa(lp4174
g1986
ag1989
aa(lp4175
g1983
ag843
aa(lp4176
g1976
ag1977
aatp4177
Rp4178
ag3254
((lp4179
(lp4180
g1992
ag2017
aa(lp4181
g1974
ag1975
aa(lp4182
g1966
ag1967
aa(lp4183
g1986
ag2012
aa(lp4184
g1983
ag1068
aa(lp4185
g1976
ag1977
aatp4186
Rp4187
ag3254
((lp4188
(lp4189
g1992
ag2039
aa(lp4190
g1974
ag1975
aa(lp4191
g1966
ag1967
aa(lp4192
g1986
ag2034
aa(lp4193
g1983
ag345
aa(lp4194
g1976
ag1977
aatp4195
Rp4196
ag3254
((lp4197
(lp4198
g1992
ag2061
aa(lp4199
g1974
ag1975
aa(lp4200
g1966
ag1967
aa(lp4201
g1986
ag2056
aa(lp4202
g1983
ag885
aa(lp4203
g1976
ag1977
aatp4204
Rp4205
ag3254
((lp4206
(lp4207
g1992
ag2083
aa(lp4208
g1974
ag1975
aa(lp4209
g1966
ag1967
aa(lp4210
g1986
ag2078
aa(lp4211
g1983
ag775
aa(lp4212
g1976
ag1977
aatp4213
Rp4214
ag3254
((lp4215
(lp4216
g1992
ag2105
aa(lp4217
g1974
ag1975
aa(lp4218
g1966
ag1967
aa(lp4219
g1986
ag2100
aa(lp4220
g1983
ag999
aa(lp4221
g1976
ag1977
aatp4222
Rp4223
ag3254
((lp4224
(lp4225
g1992
ag2127
aa(lp4226
g1974
ag1975
aa(lp4227
g1966
ag1967
aa(lp4228
g1986
ag2122
aa(lp4229
g1983
ag322
aa(lp4230
g1976
ag1977
aatp4231
Rp4232
ag3254
((lp4233
(lp4234
g1992
ag2151
aa(lp4235
g1974
ag1975
aa(lp4236
g1966
ag1967
aa(lp4237
g1986
ag2146
aa(lp4238
g1983
ag2141
aa(lp4239
g1976
ag2138
aatp4240
Rp4241
ag3254
((lp4242
(lp4243
g1992
ag2173
aa(lp4244
g1974
ag1975
aa(lp4245
g1966
ag1967
aa(lp4246
g1986
ag2168
aa(lp4247
g1983
ag139
aa(lp4248
g1976
ag1977
aatp4249
Rp4250
ag3254
((lp4251
(lp4252
g1992
ag2195
aa(lp4253
g1974
ag1975
aa(lp4254
g1966
ag1967
aa(lp4255
g1986
ag2190
aa(lp4256
g1983
ag139
aa(lp4257
g1976
ag1977
aatp4258
Rp4259
ag3254
((lp4260
(lp4261
g1992
ag2217
aa(lp4262
g1974
ag1975
aa(lp4263
g1966
ag1967
aa(lp4264
g1986
ag2212
aa(lp4265
g1983
ag551
aa(lp4266
g1976
ag1977
aatp4267
Rp4268
ag3254
((lp4269
(lp4270
g1992
ag2239
aa(lp4271
g1974
ag1975
aa(lp4272
g1966
ag1967
aa(lp4273
g1986
ag2234
aa(lp4274
g1983
ag185
aa(lp4275
g1976
ag1977
aatp4276
Rp4277
ag3254
((lp4278
(lp4279
g1992
ag2261
aa(lp4280
g1974
ag1975
aa(lp4281
g1966
ag1967
aa(lp4282
g1986
ag2256
aa(lp4283
g1983
ag1513
aa(lp4284
g1976
ag1977
aatp4285
Rp4286
ag3254
((lp4287
(lp4288
g1992
ag2283
aa(lp4289
g1974
ag1975
aa(lp4290
g1966
ag1967
aa(lp4291
g1986
ag2278
aa(lp4292
g1983
ag230
aa(lp4293
g1976
ag1977
aatp4294
Rp4295
ag3254
((lp4296
(lp4297
g1992
ag2305
aa(lp4298
g1974
ag1975
aa(lp4299
g1966
ag1967
aa(lp4300
g1986
ag2300
aa(lp4301
g1983
ag1787
aa(lp4302
g1976
ag1977
aatp4303
Rp4304
ag3254
((lp4305
(lp4306
g1992
ag2327
aa(lp4307
g1974
ag1975
aa(lp4308
g1966
ag1967
aa(lp4309
g1986
ag2322
aa(lp4310
g1983
ag2141
aa(lp4311
g1976
ag2138
aatp4312
Rp4313
ag3254
((lp4314
(lp4315
g1992
ag2349
aa(lp4316
g1974
ag1975
aa(lp4317
g1966
ag1967
aa(lp4318
g1986
ag2344
aa(lp4319
g1983
ag1333
aa(lp4320
g1976
ag1977
aatp4321
Rp4322
asg3158
Nsg3159
g2335
sg3160
I17
sg3161
I0
sg3162
I17
sbag0
(g3095
g2
Ntp4323
Rp4324
(dp4325
g3099
Nsg3100
(lp4326
sg3102
I551898352
sg10
g3227
sg6
I-1
sg3104
I1
sg18
I01
sg19
g20
sg3105
g0
(g3106
g3107
(dp4327
g3109
g3110
(g3111
g3112
g3113
g3114
tp4328
Rp4329
(I1
(I16
I1
tp4330
g3120
I00
S'\x00\x00\x80?\x00\x00\x80?\x00\x00\x80?\x00\x00\x80?\x00\x00\x80?\x00\x00\x80?\x00\x00\x80?\x00\x00\x80?\x00\x00\x80?\x00\x00\x80?\x00\x00\x80?\x00\x00\x80?\x00\x00\x80?\x00\x00\x80?\x00\x00\x80?\x00\x00\x80?'
p4331
S'\x00\x00\x00\x00\x00\x00\x00\x00\x00\x00\x00\x00\x00\x00\x00\x00'
p4332
Ntp4333
bsg3126
g3110
(g3111
g3112
g3113
g3114
tp4334
Rp4335
(I1
(I16
I1
tp4336
g3120
I00
S'\x00\x00\x00\x00\x00\x00\x80?\x00\x00\x00@\x00\x00@@\x00\x00\x80@\x00\x00\xa0@\x00\x00\xc0@\x00\x00\xe0@\x00\x00\x00A\x00\x00\x10A\x00\x00 A\x00\x000A\x00\x00@A\x00\x00PA\x00\x00`A\x00\x00pA'
p4337
S'\x00\x00\x00\x00\x00\x00\x00\x00\x00\x00\x00\x00\x00\x00\x00\x00'
p4338
Ntp4339
bstp4340
Rp4341
(dp4342
g3136
(dp4343
g3109
I01
sg3126
I01
ssg3138
g4324
sg3139
(lp4344
g3109
ag3126
asg3141
(lp4345
I16
aI1
asbsg3143
g3215
sg3145
g3146
(g3112
(I0
tp4346
g3114
tp4347
Rp4348
(I1
(I16
I1
tp4349
g70
I00
S'\x00\x00\x00\x00\x01\x00\x00\x00\x02\x00\x00\x00\x03\x00\x00\x00\x04\x00\x00\x00\x05\x00\x00\x00\x06\x00\x00\x00\x07\x00\x00\x00\x08\x00\x00\x00\t\x00\x00\x00\n\x00\x00\x00\x0b\x00\x00\x00\x0c\x00\x00\x00\r\x00\x00\x00\x0e\x00\x00\x00\x0f\x00\x00\x00'
p4350
tp4351
bsg3153
I01
sg3154
I1
sg3155
I-1
sg3156
(lp4352
g3254
((lp4353
(lp4354
g2389
ag2392
aa(lp4355
g2371
ag2372
aa(lp4356
g2363
ag2364
aa(lp4357
g2383
ag2386
aa(lp4358
g2380
ag437
aa(lp4359
g2373
ag2374
aatp4360
Rp4361
ag3254
((lp4362
(lp4363
g2389
ag2414
aa(lp4364
g2371
ag2372
aa(lp4365
g2363
ag2364
aa(lp4366
g2383
ag2409
aa(lp4367
g2380
ag253
aa(lp4368
g2373
ag2374
aatp4369
Rp4370
ag3254
((lp4371
(lp4372
g2389
ag2436
aa(lp4373
g2371
ag2372
aa(lp4374
g2363
ag2364
aa(lp4375
g2383
ag2431
aa(lp4376
g2380
ag85
aa(lp4377
g2373
ag2374
aatp4378
Rp4379
ag3254
((lp4380
(lp4381
g2389
ag2458
aa(lp4382
g2371
ag2372
aa(lp4383
g2363
ag2364
aa(lp4384
g2383
ag2453
aa(lp4385
g2380
ag414
aa(lp4386
g2373
ag2374
aatp4387
Rp4388
ag3254
((lp4389
(lp4390
g2389
ag2480
aa(lp4391
g2371
ag2372
aa(lp4392
g2363
ag2364
aa(lp4393
g2383
ag2475
aa(lp4394
g2380
ag162
aa(lp4395
g2373
ag2374
aatp4396
Rp4397
ag3254
((lp4398
(lp4399
g2389
ag2502
aa(lp4400
g2371
ag2372
aa(lp4401
g2363
ag2364
aa(lp4402
g2383
ag2497
aa(lp4403
g2380
ag116
aa(lp4404
g2373
ag2374
aatp4405
Rp4406
ag3254
((lp4407
(lp4408
g2389
ag2524
aa(lp4409
g2371
ag2372
aa(lp4410
g2363
ag2364
aa(lp4411
g2383
ag2519
aa(lp4412
g2380
ag1068
aa(lp4413
g2373
ag2374
aatp4414
Rp4415
ag3254
((lp4416
(lp4417
g2389
ag2547
aa(lp4418
g2371
ag2372
aa(lp4419
g2363
ag2364
aa(lp4420
g2383
ag2542
aa(lp4421
g2380
ag1401
aa(lp4422
g2373
ag2535
aatp4423
Rp4424
ag3254
((lp4425
(lp4426
g2389
ag2569
aa(lp4427
g2371
ag2372
aa(lp4428
g2363
ag2364
aa(lp4429
g2383
ag2564
aa(lp4430
g2380
ag345
aa(lp4431
g2373
ag2374
aatp4432
Rp4433
ag3254
((lp4434
(lp4435
g2389
ag2591
aa(lp4436
g2371
ag2372
aa(lp4437
g2363
ag2364
aa(lp4438
g2383
ag2586
aa(lp4439
g2380
ag345
aa(lp4440
g2373
ag2374
aatp4441
Rp4442
ag3254
((lp4443
(lp4444
g2389
ag2613
aa(lp4445
g2371
ag2372
aa(lp4446
g2363
ag2364
aa(lp4447
g2383
ag2608
aa(lp4448
g2380
ag116
aa(lp4449
g2373
ag2374
aatp4450
Rp4451
ag3254
((lp4452
(lp4453
g2389
ag2636
aa(lp4454
g2371
ag2372
aa(lp4455
g2363
ag2364
aa(lp4456
g2383
ag2631
aa(lp4457
g2380
ag391
aa(lp4458
g2373
ag2624
aatp4459
Rp4460
ag3254
((lp4461
(lp4462
g2389
ag2658
aa(lp4463
g2371
ag2372
aa(lp4464
g2363
ag2364
aa(lp4465
g2383
ag2653
aa(lp4466
g2380
ag85
aa(lp4467
g2373
ag2374
aatp4468
Rp4469
ag3254
((lp4470
(lp4471
g2389
ag2680
aa(lp4472
g2371
ag2372
aa(lp4473
g2363
ag2364
aa(lp4474
g2383
ag2675
aa(lp4475
g2380
ag322
aa(lp4476
g2373
ag2374
aatp4477
Rp4478
ag3254
((lp4479
(lp4480
g2389
ag2702
aa(lp4481
g2371
ag2372
aa(lp4482
g2363
ag2364
aa(lp4483
g2383
ag2697
aa(lp4484
g2380
ag482
aa(lp4485
g2373
ag2374
aatp4486
Rp4487
ag3254
((lp4488
(lp4489
g2389
ag2724
aa(lp4490
g2371
ag2372
aa(lp4491
g2363
ag2364
aa(lp4492
g2383
ag2719
aa(lp4493
g2380
ag551
aa(lp4494
g2373
ag2374
aatp4495
Rp4496
asg3158
Nsg3159
g2710
sg3160
I16
sg3161
I0
sg3162
I16
sbag0
(g3095
g2
Ntp4497
Rp4498
(dp4499
g3099
Nsg3100
(lp4500
sg3102
I551898352
sg10
g3227
sg6
I-1
sg3104
I1
sg18
I01
sg19
g20
sg3105
g0
(g3106
g3107
(dp4501
g3109
g3110
(g3111
g3112
g3113
g3114
tp4502
Rp4503
(I1
(I15
I1
tp4504
g3120
I00
S'\x00\x00\x80?\x00\x00\x80?\x00\x00\x80?\x00\x00\x80?\x00\x00\x80?\x00\x00\x80?\x00\x00\x80?\x00\x00\x80?\x00\x00\x80?\x00\x00\x80?\x00\x00\x80?\x00\x00\x80?\x00\x00\x80?\x00\x00\x80?\x00\x00\x80?'
p4505
S'\x00\x00\x00\x00\x00\x00\x00\x00\x00\x00\x00\x00\x00\x00\x00'
p4506
Ntp4507
bsg3126
g3110
(g3111
g3112
g3113
g3114
tp4508
Rp4509
(I1
(I15
I1
tp4510
g3120
I00
S'\x00\x00\x00\x00\x00\x00\x80?\x00\x00\x00@\x00\x00@@\x00\x00\x80@\x00\x00\xa0@\x00\x00\xc0@\x00\x00\xe0@\x00\x00\x00A\x00\x00\x10A\x00\x00 A\x00\x000A\x00\x00@A\x00\x00PA\x00\x00`A'
p4511
S'\x00\x00\x00\x00\x00\x00\x00\x00\x00\x00\x00\x00\x00\x00\x00'
p4512
Ntp4513
bstp4514
Rp4515
(dp4516
g3136
(dp4517
g3109
I01
sg3126
I01
ssg3138
g4498
sg3139
(lp4518
g3109
ag3126
asg3141
(lp4519
I15
aI1
asbsg3143
g3215
sg3145
g3146
(g3112
(I0
tp4520
g3114
tp4521
Rp4522
(I1
(I15
I1
tp4523
g70
I00
S'\x00\x00\x00\x00\x01\x00\x00\x00\x02\x00\x00\x00\x03\x00\x00\x00\x04\x00\x00\x00\x05\x00\x00\x00\x06\x00\x00\x00\x07\x00\x00\x00\x08\x00\x00\x00\t\x00\x00\x00\n\x00\x00\x00\x0b\x00\x00\x00\x0c\x00\x00\x00\r\x00\x00\x00\x0e\x00\x00\x00'
p4524
tp4525
bsg3153
I01
sg3154
I1
sg3155
I-1
sg3156
(lp4526
g3254
((lp4527
(lp4528
g2764
ag2767
aa(lp4529
g2746
ag2747
aa(lp4530
g2738
ag2739
aa(lp4531
g2758
ag2761
aa(lp4532
g2755
ag322
aa(lp4533
g2748
ag2749
aatp4534
Rp4535
ag3254
((lp4536
(lp4537
g2764
ag2789
aa(lp4538
g2746
ag2747
aa(lp4539
g2738
ag2739
aa(lp4540
g2758
ag2784
aa(lp4541
g2755
ag843
aa(lp4542
g2748
ag2749
aatp4543
Rp4544
ag3254
((lp4545
(lp4546
g2764
ag2811
aa(lp4547
g2746
ag2747
aa(lp4548
g2738
ag2739
aa(lp4549
g2758
ag2806
aa(lp4550
g2755
ag162
aa(lp4551
g2748
ag2749
aatp4552
Rp4553
ag3254
((lp4554
(lp4555
g2764
ag2833
aa(lp4556
g2746
ag2747
aa(lp4557
g2738
ag2739
aa(lp4558
g2758
ag2828
aa(lp4559
g2755
ag230
aa(lp4560
g2748
ag2749
aatp4561
Rp4562
ag3254
((lp4563
(lp4564
g2764
ag2855
aa(lp4565
g2746
ag2747
aa(lp4566
g2738
ag2739
aa(lp4567
g2758
ag2850
aa(lp4568
g2755
ag1513
aa(lp4569
g2748
ag2749
aatp4570
Rp4571
ag3254
((lp4572
(lp4573
g2764
ag2877
aa(lp4574
g2746
ag2747
aa(lp4575
g2738
ag2739
aa(lp4576
g2758
ag2872
aa(lp4577
g2755
ag185
aa(lp4578
g2748
ag2749
aatp4579
Rp4580
ag3254
((lp4581
(lp4582
g2764
ag2901
aa(lp4583
g2746
ag2747
aa(lp4584
g2738
ag2739
aa(lp4585
g2758
ag2896
aa(lp4586
g2755
ag2891
aa(lp4587
g2748
ag2888
aatp4588
Rp4589
ag3254
((lp4590
(lp4591
g2764
ag2923
aa(lp4592
g2746
ag2747
aa(lp4593
g2738
ag2739
aa(lp4594
g2758
ag2918
aa(lp4595
g2755
ag437
aa(lp4596
g2748
ag2749
aatp4597
Rp4598
ag3254
((lp4599
(lp4600
g2764
ag2945
aa(lp4601
g2746
ag2747
aa(lp4602
g2738
ag2739
aa(lp4603
g2758
ag2940
aa(lp4604
g2755
ag482
aa(lp4605
g2748
ag2749
aatp4606
Rp4607
ag3254
((lp4608
(lp4609
g2764
ag2967
aa(lp4610
g2746
ag2747
aa(lp4611
g2738
ag2739
aa(lp4612
g2758
ag2962
aa(lp4613
g2755
ag253
aa(lp4614
g2748
ag2749
aatp4615
Rp4616
ag3254
((lp4617
(lp4618
g2764
ag2990
aa(lp4619
g2746
ag2747
aa(lp4620
g2738
ag2739
aa(lp4621
g2758
ag2985
aa(lp4622
g2755
ag391
aa(lp4623
g2748
ag2978
aatp4624
Rp4625
ag3254
((lp4626
(lp4627
g2764
ag3012
aa(lp4628
g2746
ag2747
aa(lp4629
g2738
ag2739
aa(lp4630
g2758
ag3007
aa(lp4631
g2755
ag437
aa(lp4632
g2748
ag2749
aatp4633
Rp4634
ag3254
((lp4635
(lp4636
g2764
ag3034
aa(lp4637
g2746
ag2747
aa(lp4638
g2738
ag2739
aa(lp4639
g2758
ag3029
aa(lp4640
g2755
ag551
aa(lp4641
g2748
ag2749
aatp4642
Rp4643
ag3254
((lp4644
(lp4645
g2764
ag3056
aa(lp4646
g2746
ag2747
aa(lp4647
g2738
ag2739
aa(lp4648
g2758
ag3051
aa(lp4649
g2755
ag775
aa(lp4650
g2748
ag2749
aatp4651
Rp4652
ag3254
((lp4653
(lp4654
g2764
ag3078
aa(lp4655
g2746
ag2747
aa(lp4656
g2738
ag2739
aa(lp4657
g2758
ag3073
aa(lp4658
g2755
ag162
aa(lp4659
g2748
ag2749
aatp4660
Rp4661
asg3158
Nsg3159
g3064
sg3160
I15
sg3161
I0
sg3162
I15
sbasS'savePickle'
p4662
I00
sb.