ccopy_reg
_reconstructor
p0
(cpsychopy.data.experiment
ExperimentHandler
p1
c__builtin__
object
p2
Ntp3
Rp4
(dp5
S'originPath'
p6
NsS'dataFileName'
p7
VC:\u005cUsers\u005center\u005cOneDrive - University of Toronto\u005cLabs\u005cInzlicht Lab\u005coutside_project\u005cexperiment\u005cpsychoPy_scripts\u005crsvp\u005cdata/John_rsvp_10_r
p8
sS'runtimeInfo'
p9
NsS'name'
p10
Vrsvp
p11
sS'dataNames'
p12
(lp13
S'usr_input_t1.keys'
p14
aS'usr_input_t1.rt'
p15
aS'usr_input_t2.keys'
p16
aS'usr_input_t2.rt'
p17
asS'autoLog'
p18
I01
sS'extraInfo'
p19
(dp20
S'date'
p21
V2018_Oct_17_1615
p22
sVparticipant
p23
V10
p24
sS'expName'
p25
g11
sVrun
p26
Vr
p27
sS'frameRate'
p28
cnumpy.core.multiarray
scalar
p29
(cnumpy
dtype
p30
(S'f8'
p31
I0
I1
tp32
Rp33
(I3
S'<'
p34
NNNI-1
I-1
I0
tp35
bS'\xac\x94\xd4K\xc6\x00N@'
p36
tp37
Rp38
ssS'loopsUnfinished'
p39
(lp40
sS'saveWideText'
p41
I00
sS'thisEntry'
p42
(dp43
sS'version'
p44
S''
p45
sS'_paramNamesSoFar'
p46
(lp47
S'block'
p48
aS'sep_dur'
p49
aS'Tx'
p50
aS'trial'
p51
aS'stimulus'
p52
aS'cond'
p53
asS'entries'
p54
(lp55
(dp56
S'block.thisTrialN'
p57
I0
sS'stim.thisTrialN'
p58
I0
sS'block.thisRepN'
p59
I0
sg50
Vt1
p60
sS'stim.thisIndex'
p61
g29
(g30
(S'i4'
p62
I0
I1
tp63
Rp64
(I3
S'<'
p65
NNNI-1
I-1
I0
tp66
bS'\x00\x00\x00\x00'
p67
tp68
Rp69
sg28
g38
sS'block.thisN'
p70
I0
sS'stim.thisN'
p71
I0
sg49
Vshort
p72
sg53
Vdistractor
p73
sg21
g22
sg26
g27
sS'trials.thisIndex'
p74
g29
(g64
S'\x00\x00\x00\x00'
p75
tp76
Rp77
sS'stim.thisRepN'
p78
I0
sg23
g24
sg52
VB
p79
sS'trials.thisRepN'
p80
I0
sS'trials.thisN'
p81
I0
sg51
g29
(g30
(S'i8'
p82
I0
I1
tp83
Rp84
(I3
S'<'
p85
NNNI-1
I-1
I0
tp86
bS'\x01\x00\x00\x00\x00\x00\x00\x00'
p87
tp88
Rp89
sg25
g11
sS'trials.thisTrialN'
p90
I0
sS'block.thisIndex'
p91
g29
(g64
S'\x00\x00\x00\x00'
p92
tp93
Rp94
sg48
g29
(g84
S'\x01\x00\x00\x00\x00\x00\x00\x00'
p95
tp96
Rp97
sa(dp98
S'block.thisTrialN'
p99
I0
sS'stim.thisTrialN'
p100
I1
sS'block.thisRepN'
p101
I0
sg50
g60
sS'stim.thisIndex'
p102
g29
(g64
S'\x01\x00\x00\x00'
p103
tp104
Rp105
sg28
g38
sS'block.thisN'
p106
I0
sS'stim.thisN'
p107
I1
sg49
g72
sg53
Vtarget
p108
sg21
g22
sg26
g27
sS'trials.thisIndex'
p109
g77
sS'stim.thisRepN'
p110
I0
sg23
g24
sg52
V5
p111
sS'trials.thisRepN'
p112
I0
sS'trials.thisN'
p113
I0
sg51
g29
(g84
S'\x02\x00\x00\x00\x00\x00\x00\x00'
p114
tp115
Rp116
sg25
g11
sS'trials.thisTrialN'
p117
I0
sS'block.thisIndex'
p118
g94
sg48
g29
(g84
S'\x01\x00\x00\x00\x00\x00\x00\x00'
p119
tp120
Rp121
sa(dp122
S'block.thisTrialN'
p123
I0
sS'stim.thisTrialN'
p124
I2
sS'block.thisRepN'
p125
I0
sg50
g60
sS'stim.thisIndex'
p126
g29
(g64
S'\x02\x00\x00\x00'
p127
tp128
Rp129
sg28
g38
sS'block.thisN'
p130
I0
sS'stim.thisN'
p131
I2
sg49
g72
sg53
g73
sg21
g22
sg26
g27
sS'trials.thisIndex'
p132
g77
sS'stim.thisRepN'
p133
I0
sg23
g24
sg52
VL
p134
sS'trials.thisRepN'
p135
I0
sS'trials.thisN'
p136
I0
sg51
g29
(g84
S'\x03\x00\x00\x00\x00\x00\x00\x00'
p137
tp138
Rp139
sg25
g11
sS'trials.thisTrialN'
p140
I0
sS'block.thisIndex'
p141
g94
sg48
g29
(g84
S'\x01\x00\x00\x00\x00\x00\x00\x00'
p142
tp143
Rp144
sa(dp145
S'block.thisTrialN'
p146
I0
sS'stim.thisTrialN'
p147
I3
sS'block.thisRepN'
p148
I0
sg50
g60
sS'stim.thisIndex'
p149
g29
(g64
S'\x03\x00\x00\x00'
p150
tp151
Rp152
sg28
g38
sS'block.thisN'
p153
I0
sS'stim.thisN'
p154
I3
sg49
g72
sg53
g73
sg21
g22
sg26
g27
sS'trials.thisIndex'
p155
g77
sS'stim.thisRepN'
p156
I0
sg23
g24
sg52
VP
p157
sS'trials.thisRepN'
p158
I0
sS'trials.thisN'
p159
I0
sg51
g29
(g84
S'\x04\x00\x00\x00\x00\x00\x00\x00'
p160
tp161
Rp162
sg25
g11
sS'trials.thisTrialN'
p163
I0
sS'block.thisIndex'
p164
g94
sg48
g29
(g84
S'\x01\x00\x00\x00\x00\x00\x00\x00'
p165
tp166
Rp167
sa(dp168
S'block.thisTrialN'
p169
I0
sS'stim.thisTrialN'
p170
I4
sS'block.thisRepN'
p171
I0
sg50
g60
sS'stim.thisIndex'
p172
g29
(g64
S'\x04\x00\x00\x00'
p173
tp174
Rp175
sg28
g38
sS'block.thisN'
p176
I0
sS'stim.thisN'
p177
I4
sg49
g72
sg53
g73
sg21
g22
sg26
g27
sS'trials.thisIndex'
p178
g77
sS'stim.thisRepN'
p179
I0
sg23
g24
sg52
VE
p180
sS'trials.thisRepN'
p181
I0
sS'trials.thisN'
p182
I0
sg51
g29
(g84
S'\x05\x00\x00\x00\x00\x00\x00\x00'
p183
tp184
Rp185
sg25
g11
sS'trials.thisTrialN'
p186
I0
sS'block.thisIndex'
p187
g94
sg48
g29
(g84
S'\x01\x00\x00\x00\x00\x00\x00\x00'
p188
tp189
Rp190
sa(dp191
S'block.thisTrialN'
p192
I0
sS'stim.thisTrialN'
p193
I5
sS'block.thisRepN'
p194
I0
sg50
g60
sS'stim.thisIndex'
p195
g29
(g64
S'\x05\x00\x00\x00'
p196
tp197
Rp198
sg28
g38
sS'block.thisN'
p199
I0
sS'stim.thisN'
p200
I5
sg49
g72
sg53
g73
sg21
g22
sg26
g27
sS'trials.thisIndex'
p201
g77
sS'stim.thisRepN'
p202
I0
sg23
g24
sg52
g157
sS'trials.thisRepN'
p203
I0
sS'trials.thisN'
p204
I0
sg51
g29
(g84
S'\x06\x00\x00\x00\x00\x00\x00\x00'
p205
tp206
Rp207
sg25
g11
sS'trials.thisTrialN'
p208
I0
sS'block.thisIndex'
p209
g94
sg48
g29
(g84
S'\x01\x00\x00\x00\x00\x00\x00\x00'
p210
tp211
Rp212
sa(dp213
S'block.thisTrialN'
p214
I0
sS'stim.thisTrialN'
p215
I6
sS'block.thisRepN'
p216
I0
sg50
g60
sS'stim.thisIndex'
p217
g29
(g64
S'\x06\x00\x00\x00'
p218
tp219
Rp220
sg28
g38
sS'block.thisN'
p221
I0
sS'stim.thisN'
p222
I6
sg49
g72
sg53
Vmask
p223
sg21
g22
sg26
g27
sS'trials.thisIndex'
p224
g77
sS'stim.thisRepN'
p225
I0
sg23
g24
sg52
V 
p226
sS'trials.thisRepN'
p227
I0
sS'trials.thisN'
p228
I0
sg51
g29
(g84
S'\x07\x00\x00\x00\x00\x00\x00\x00'
p229
tp230
Rp231
sg25
g11
sS'trials.thisTrialN'
p232
I0
sS'block.thisIndex'
p233
g94
sg48
g29
(g84
S'\x01\x00\x00\x00\x00\x00\x00\x00'
p234
tp235
Rp236
sa(dp237
S'block.thisTrialN'
p238
I0
sS'stim.thisTrialN'
p239
I7
sS'block.thisRepN'
p240
I0
sg50
g60
sS'stim.thisIndex'
p241
g29
(g64
S'\x07\x00\x00\x00'
p242
tp243
Rp244
sg28
g38
sS'block.thisN'
p245
I0
sS'stim.thisN'
p246
I7
sg49
g72
sg53
g73
sg21
g22
sg26
g27
sS'trials.thisIndex'
p247
g77
sS'stim.thisRepN'
p248
I0
sg23
g24
sg52
VR
p249
sS'trials.thisRepN'
p250
I0
sS'trials.thisN'
p251
I0
sg51
g29
(g84
S'\x08\x00\x00\x00\x00\x00\x00\x00'
p252
tp253
Rp254
sg25
g11
sS'trials.thisTrialN'
p255
I0
sS'block.thisIndex'
p256
g94
sg48
g29
(g84
S'\x01\x00\x00\x00\x00\x00\x00\x00'
p257
tp258
Rp259
sa(dp260
S'block.thisTrialN'
p261
I0
sS'stim.thisTrialN'
p262
I8
sS'block.thisRepN'
p263
I0
sg50
g60
sS'stim.thisIndex'
p264
g29
(g64
S'\x08\x00\x00\x00'
p265
tp266
Rp267
sg28
g38
sS'block.thisN'
p268
I0
sS'stim.thisN'
p269
I8
sg49
g72
sg53
g73
sg21
g22
sg26
g27
sS'trials.thisIndex'
p270
g77
sS'stim.thisRepN'
p271
I0
sg23
g24
sg52
VI
p272
sS'trials.thisRepN'
p273
I0
sS'trials.thisN'
p274
I0
sg51
g29
(g84
S'\t\x00\x00\x00\x00\x00\x00\x00'
p275
tp276
Rp277
sg25
g11
sS'trials.thisTrialN'
p278
I0
sS'block.thisIndex'
p279
g94
sg48
g29
(g84
S'\x01\x00\x00\x00\x00\x00\x00\x00'
p280
tp281
Rp282
sa(dp283
S'block.thisTrialN'
p284
I0
sS'stim.thisTrialN'
p285
I9
sS'block.thisRepN'
p286
I0
sg50
g60
sS'stim.thisIndex'
p287
g29
(g64
S'\t\x00\x00\x00'
p288
tp289
Rp290
sg28
g38
sS'block.thisN'
p291
I0
sS'stim.thisN'
p292
I9
sg49
g72
sg53
g73
sg21
g22
sg26
g27
sS'trials.thisIndex'
p293
g77
sS'stim.thisRepN'
p294
I0
sg23
g24
sg52
VU
p295
sS'trials.thisRepN'
p296
I0
sS'trials.thisN'
p297
I0
sg51
g29
(g84
S'\n\x00\x00\x00\x00\x00\x00\x00'
p298
tp299
Rp300
sg25
g11
sS'trials.thisTrialN'
p301
I0
sS'block.thisIndex'
p302
g94
sg48
g29
(g84
S'\x01\x00\x00\x00\x00\x00\x00\x00'
p303
tp304
Rp305
sa(dp306
S'block.thisTrialN'
p307
I0
sS'stim.thisTrialN'
p308
I10
sS'block.thisRepN'
p309
I0
sg50
g60
sS'stim.thisIndex'
p310
g29
(g64
S'\n\x00\x00\x00'
p311
tp312
Rp313
sg28
g38
sS'block.thisN'
p314
I0
sS'stim.thisN'
p315
I10
sg49
g72
sg53
g73
sg21
g22
sg26
g27
sS'trials.thisIndex'
p316
g77
sS'stim.thisRepN'
p317
I0
sg23
g24
sg52
VS
p318
sS'trials.thisRepN'
p319
I0
sS'trials.thisN'
p320
I0
sg51
g29
(g84
S'\x0b\x00\x00\x00\x00\x00\x00\x00'
p321
tp322
Rp323
sg25
g11
sS'trials.thisTrialN'
p324
I0
sS'block.thisIndex'
p325
g94
sg48
g29
(g84
S'\x01\x00\x00\x00\x00\x00\x00\x00'
p326
tp327
Rp328
sa(dp329
S'block.thisTrialN'
p330
I0
sS'stim.thisTrialN'
p331
I11
sS'block.thisRepN'
p332
I0
sg50
g60
sS'stim.thisIndex'
p333
g29
(g64
S'\x0b\x00\x00\x00'
p334
tp335
Rp336
sg28
g38
sS'block.thisN'
p337
I0
sS'stim.thisN'
p338
I11
sg49
g72
sg53
g73
sg21
g22
sg26
g27
sS'trials.thisIndex'
p339
g77
sS'stim.thisRepN'
p340
I0
sg23
g24
sg52
g180
sS'trials.thisRepN'
p341
I0
sS'trials.thisN'
p342
I0
sg51
g29
(g84
S'\x0c\x00\x00\x00\x00\x00\x00\x00'
p343
tp344
Rp345
sg25
g11
sS'trials.thisTrialN'
p346
I0
sS'block.thisIndex'
p347
g94
sg48
g29
(g84
S'\x01\x00\x00\x00\x00\x00\x00\x00'
p348
tp349
Rp350
sa(dp351
S'block.thisTrialN'
p352
I0
sS'stim.thisTrialN'
p353
I12
sS'block.thisRepN'
p354
I0
sg50
g60
sS'stim.thisIndex'
p355
g29
(g64
S'\x0c\x00\x00\x00'
p356
tp357
Rp358
sg28
g38
sS'block.thisN'
p359
I0
sS'stim.thisN'
p360
I12
sg49
g72
sg53
g73
sg21
g22
sg26
g27
sS'trials.thisIndex'
p361
g77
sS'stim.thisRepN'
p362
I0
sg23
g24
sg52
VM
p363
sS'trials.thisRepN'
p364
I0
sS'trials.thisN'
p365
I0
sg51
g29
(g84
S'\r\x00\x00\x00\x00\x00\x00\x00'
p366
tp367
Rp368
sg25
g11
sS'trials.thisTrialN'
p369
I0
sS'block.thisIndex'
p370
g94
sg48
g29
(g84
S'\x01\x00\x00\x00\x00\x00\x00\x00'
p371
tp372
Rp373
sa(dp374
S'block.thisTrialN'
p375
I0
sS'stim.thisTrialN'
p376
I13
sS'block.thisRepN'
p377
I0
sg50
g60
sS'stim.thisIndex'
p378
g29
(g64
S'\r\x00\x00\x00'
p379
tp380
Rp381
sg28
g38
sS'block.thisN'
p382
I0
sS'stim.thisN'
p383
I13
sg49
g72
sg53
g73
sg21
g22
sg26
g27
sS'trials.thisIndex'
p384
g77
sS'stim.thisRepN'
p385
I0
sg23
g24
sg52
VV
p386
sS'trials.thisRepN'
p387
I0
sS'trials.thisN'
p388
I0
sg51
g29
(g84
S'\x0e\x00\x00\x00\x00\x00\x00\x00'
p389
tp390
Rp391
sg25
g11
sS'trials.thisTrialN'
p392
I0
sS'block.thisIndex'
p393
g94
sg48
g29
(g84
S'\x01\x00\x00\x00\x00\x00\x00\x00'
p394
tp395
Rp396
sa(dp397
S'block.thisTrialN'
p398
I0
sS'stim.thisTrialN'
p399
I14
sS'block.thisRepN'
p400
I0
sg50
g60
sS'stim.thisIndex'
p401
g29
(g64
S'\x0e\x00\x00\x00'
p402
tp403
Rp404
sg28
g38
sS'block.thisN'
p405
I0
sS'stim.thisN'
p406
I14
sg49
g72
sg53
g73
sg21
g22
sg26
g27
sS'trials.thisIndex'
p407
g77
sS'stim.thisRepN'
p408
I0
sg23
g24
sg52
VO
p409
sS'trials.thisRepN'
p410
I0
sS'trials.thisN'
p411
I0
sg51
g29
(g84
S'\x0f\x00\x00\x00\x00\x00\x00\x00'
p412
tp413
Rp414
sg25
g11
sS'trials.thisTrialN'
p415
I0
sS'block.thisIndex'
p416
g94
sg48
g29
(g84
S'\x01\x00\x00\x00\x00\x00\x00\x00'
p417
tp418
Rp419
sa(dp420
S'block.thisTrialN'
p421
I0
sS'block.thisRepN'
p422
I0
sg16
S'5'
p423
sS'trials.thisRepN'
p424
I0
sg15
F0.09990264236694202
sS'block.thisN'
p425
I0
sg28
g38
sS'trials.thisN'
p426
I0
sg14
g423
sg25
g11
sS'trials.thisTrialN'
p427
I0
sg26
g27
sS'trials.thisIndex'
p428
g77
sg21
g22
sg23
g24
sS'block.thisIndex'
p429
g94
sg17
F0.16629010066390038
sa(dp430
S'block.thisTrialN'
p431
I0
sS'stim.thisTrialN'
p432
I0
sS'block.thisRepN'
p433
I0
sS'Tx'
p434
Vt1
p435
sS'stim.thisIndex'
p436
g29
(g64
S'\x00\x00\x00\x00'
p437
tp438
Rp439
sg28
g38
sS'block.thisN'
p440
I0
sS'stim.thisN'
p441
I0
sS'sep_dur'
p442
Vshort
p443
sS'cond'
p444
Vdistractor
p445
sg21
g22
sg26
g27
sS'trials.thisIndex'
p446
g29
(g64
S'\x00\x00\x00\x00'
p447
tp448
Rp449
sS'stim.thisRepN'
p450
I0
sg23
g24
sS'stimulus'
p451
VG
p452
sS'trials.thisRepN'
p453
I1
sS'trials.thisN'
p454
I1
sS'trial'
p455
g29
(g84
S'\x01\x00\x00\x00\x00\x00\x00\x00'
p456
tp457
Rp458
sg25
g11
sS'trials.thisTrialN'
p459
I0
sS'block.thisIndex'
p460
g94
sS'block'
p461
g29
(g84
S'\x02\x00\x00\x00\x00\x00\x00\x00'
p462
tp463
Rp464
sa(dp465
S'block.thisTrialN'
p466
I0
sS'stim.thisTrialN'
p467
I1
sS'block.thisRepN'
p468
I0
sg434
g435
sS'stim.thisIndex'
p469
g29
(g64
S'\x01\x00\x00\x00'
p470
tp471
Rp472
sg28
g38
sS'block.thisN'
p473
I0
sS'stim.thisN'
p474
I1
sg442
g443
sg444
g445
sg21
g22
sg26
g27
sS'trials.thisIndex'
p475
g449
sS'stim.thisRepN'
p476
I0
sg23
g24
sg451
VD
p477
sS'trials.thisRepN'
p478
I1
sS'trials.thisN'
p479
I1
sg455
g29
(g84
S'\x02\x00\x00\x00\x00\x00\x00\x00'
p480
tp481
Rp482
sg25
g11
sS'trials.thisTrialN'
p483
I0
sS'block.thisIndex'
p484
g94
sg461
g29
(g84
S'\x02\x00\x00\x00\x00\x00\x00\x00'
p485
tp486
Rp487
sa(dp488
S'block.thisTrialN'
p489
I0
sS'stim.thisTrialN'
p490
I2
sS'block.thisRepN'
p491
I0
sg434
g435
sS'stim.thisIndex'
p492
g29
(g64
S'\x02\x00\x00\x00'
p493
tp494
Rp495
sg28
g38
sS'block.thisN'
p496
I0
sS'stim.thisN'
p497
I2
sg442
g443
sg444
g445
sg21
g22
sg26
g27
sS'trials.thisIndex'
p498
g449
sS'stim.thisRepN'
p499
I0
sg23
g24
sg451
g409
sS'trials.thisRepN'
p500
I1
sS'trials.thisN'
p501
I1
sg455
g29
(g84
S'\x03\x00\x00\x00\x00\x00\x00\x00'
p502
tp503
Rp504
sg25
g11
sS'trials.thisTrialN'
p505
I0
sS'block.thisIndex'
p506
g94
sg461
g29
(g84
S'\x02\x00\x00\x00\x00\x00\x00\x00'
p507
tp508
Rp509
sa(dp510
S'block.thisTrialN'
p511
I0
sS'stim.thisTrialN'
p512
I3
sS'block.thisRepN'
p513
I0
sg434
g435
sS'stim.thisIndex'
p514
g29
(g64
S'\x03\x00\x00\x00'
p515
tp516
Rp517
sg28
g38
sS'block.thisN'
p518
I0
sS'stim.thisN'
p519
I3
sg442
g443
sg444
g445
sg21
g22
sg26
g27
sS'trials.thisIndex'
p520
g449
sS'stim.thisRepN'
p521
I0
sg23
g24
sg451
VY
p522
sS'trials.thisRepN'
p523
I1
sS'trials.thisN'
p524
I1
sg455
g29
(g84
S'\x04\x00\x00\x00\x00\x00\x00\x00'
p525
tp526
Rp527
sg25
g11
sS'trials.thisTrialN'
p528
I0
sS'block.thisIndex'
p529
g94
sg461
g29
(g84
S'\x02\x00\x00\x00\x00\x00\x00\x00'
p530
tp531
Rp532
sa(dp533
S'block.thisTrialN'
p534
I0
sS'stim.thisTrialN'
p535
I4
sS'block.thisRepN'
p536
I0
sg434
g435
sS'stim.thisIndex'
p537
g29
(g64
S'\x04\x00\x00\x00'
p538
tp539
Rp540
sg28
g38
sS'block.thisN'
p541
I0
sS'stim.thisN'
p542
I4
sg442
g443
sg444
g445
sg21
g22
sg26
g27
sS'trials.thisIndex'
p543
g449
sS'stim.thisRepN'
p544
I0
sg23
g24
sg451
g79
sS'trials.thisRepN'
p545
I1
sS'trials.thisN'
p546
I1
sg455
g29
(g84
S'\x05\x00\x00\x00\x00\x00\x00\x00'
p547
tp548
Rp549
sg25
g11
sS'trials.thisTrialN'
p550
I0
sS'block.thisIndex'
p551
g94
sg461
g29
(g84
S'\x02\x00\x00\x00\x00\x00\x00\x00'
p552
tp553
Rp554
sa(dp555
S'block.thisTrialN'
p556
I0
sS'stim.thisTrialN'
p557
I5
sS'block.thisRepN'
p558
I0
sg434
g435
sS'stim.thisIndex'
p559
g29
(g64
S'\x05\x00\x00\x00'
p560
tp561
Rp562
sg28
g38
sS'block.thisN'
p563
I0
sS'stim.thisN'
p564
I5
sg442
g443
sg444
g445
sg21
g22
sg26
g27
sS'trials.thisIndex'
p565
g449
sS'stim.thisRepN'
p566
I0
sg23
g24
sg451
g409
sS'trials.thisRepN'
p567
I1
sS'trials.thisN'
p568
I1
sg455
g29
(g84
S'\x06\x00\x00\x00\x00\x00\x00\x00'
p569
tp570
Rp571
sg25
g11
sS'trials.thisTrialN'
p572
I0
sS'block.thisIndex'
p573
g94
sg461
g29
(g84
S'\x02\x00\x00\x00\x00\x00\x00\x00'
p574
tp575
Rp576
sa(dp577
S'block.thisTrialN'
p578
I0
sS'stim.thisTrialN'
p579
I6
sS'block.thisRepN'
p580
I0
sg434
g435
sS'stim.thisIndex'
p581
g29
(g64
S'\x06\x00\x00\x00'
p582
tp583
Rp584
sg28
g38
sS'block.thisN'
p585
I0
sS'stim.thisN'
p586
I6
sg442
g443
sg444
g445
sg21
g22
sg26
g27
sS'trials.thisIndex'
p587
g449
sS'stim.thisRepN'
p588
I0
sg23
g24
sg451
g477
sS'trials.thisRepN'
p589
I1
sS'trials.thisN'
p590
I1
sg455
g29
(g84
S'\x07\x00\x00\x00\x00\x00\x00\x00'
p591
tp592
Rp593
sg25
g11
sS'trials.thisTrialN'
p594
I0
sS'block.thisIndex'
p595
g94
sg461
g29
(g84
S'\x02\x00\x00\x00\x00\x00\x00\x00'
p596
tp597
Rp598
sa(dp599
S'block.thisTrialN'
p600
I0
sS'stim.thisTrialN'
p601
I7
sS'block.thisRepN'
p602
I0
sg434
g435
sS'stim.thisIndex'
p603
g29
(g64
S'\x07\x00\x00\x00'
p604
tp605
Rp606
sg28
g38
sS'block.thisN'
p607
I0
sS'stim.thisN'
p608
I7
sg442
g443
sg444
Vtarget
p609
sg21
g22
sg26
g27
sS'trials.thisIndex'
p610
g449
sS'stim.thisRepN'
p611
I0
sg23
g24
sg451
V1
p612
sS'trials.thisRepN'
p613
I1
sS'trials.thisN'
p614
I1
sg455
g29
(g84
S'\x08\x00\x00\x00\x00\x00\x00\x00'
p615
tp616
Rp617
sg25
g11
sS'trials.thisTrialN'
p618
I0
sS'block.thisIndex'
p619
g94
sg461
g29
(g84
S'\x02\x00\x00\x00\x00\x00\x00\x00'
p620
tp621
Rp622
sa(dp623
S'block.thisTrialN'
p624
I0
sS'stim.thisTrialN'
p625
I8
sS'block.thisRepN'
p626
I0
sg434
g435
sS'stim.thisIndex'
p627
g29
(g64
S'\x08\x00\x00\x00'
p628
tp629
Rp630
sg28
g38
sS'block.thisN'
p631
I0
sS'stim.thisN'
p632
I8
sg442
g443
sg444
g445
sg21
g22
sg26
g27
sS'trials.thisIndex'
p633
g449
sS'stim.thisRepN'
p634
I0
sg23
g24
sg451
VX
p635
sS'trials.thisRepN'
p636
I1
sS'trials.thisN'
p637
I1
sg455
g29
(g84
S'\t\x00\x00\x00\x00\x00\x00\x00'
p638
tp639
Rp640
sg25
g11
sS'trials.thisTrialN'
p641
I0
sS'block.thisIndex'
p642
g94
sg461
g29
(g84
S'\x02\x00\x00\x00\x00\x00\x00\x00'
p643
tp644
Rp645
sa(dp646
S'block.thisTrialN'
p647
I0
sS'stim.thisTrialN'
p648
I9
sS'block.thisRepN'
p649
I0
sg434
g435
sS'stim.thisIndex'
p650
g29
(g64
S'\t\x00\x00\x00'
p651
tp652
Rp653
sg28
g38
sS'block.thisN'
p654
I0
sS'stim.thisN'
p655
I9
sg442
g443
sg444
g445
sg21
g22
sg26
g27
sS'trials.thisIndex'
p656
g449
sS'stim.thisRepN'
p657
I0
sg23
g24
sg451
VK
p658
sS'trials.thisRepN'
p659
I1
sS'trials.thisN'
p660
I1
sg455
g29
(g84
S'\n\x00\x00\x00\x00\x00\x00\x00'
p661
tp662
Rp663
sg25
g11
sS'trials.thisTrialN'
p664
I0
sS'block.thisIndex'
p665
g94
sg461
g29
(g84
S'\x02\x00\x00\x00\x00\x00\x00\x00'
p666
tp667
Rp668
sa(dp669
S'block.thisTrialN'
p670
I0
sS'stim.thisTrialN'
p671
I10
sS'block.thisRepN'
p672
I0
sg434
g435
sS'stim.thisIndex'
p673
g29
(g64
S'\n\x00\x00\x00'
p674
tp675
Rp676
sg28
g38
sS'block.thisN'
p677
I0
sS'stim.thisN'
p678
I10
sg442
g443
sg444
g445
sg21
g22
sg26
g27
sS'trials.thisIndex'
p679
g449
sS'stim.thisRepN'
p680
I0
sg23
g24
sg451
g477
sS'trials.thisRepN'
p681
I1
sS'trials.thisN'
p682
I1
sg455
g29
(g84
S'\x0b\x00\x00\x00\x00\x00\x00\x00'
p683
tp684
Rp685
sg25
g11
sS'trials.thisTrialN'
p686
I0
sS'block.thisIndex'
p687
g94
sg461
g29
(g84
S'\x02\x00\x00\x00\x00\x00\x00\x00'
p688
tp689
Rp690
sa(dp691
S'block.thisTrialN'
p692
I0
sS'stim.thisTrialN'
p693
I11
sS'block.thisRepN'
p694
I0
sg434
g435
sS'stim.thisIndex'
p695
g29
(g64
S'\x0b\x00\x00\x00'
p696
tp697
Rp698
sg28
g38
sS'block.thisN'
p699
I0
sS'stim.thisN'
p700
I11
sg442
g443
sg444
g445
sg21
g22
sg26
g27
sS'trials.thisIndex'
p701
g449
sS'stim.thisRepN'
p702
I0
sg23
g24
sg451
VF
p703
sS'trials.thisRepN'
p704
I1
sS'trials.thisN'
p705
I1
sg455
g29
(g84
S'\x0c\x00\x00\x00\x00\x00\x00\x00'
p706
tp707
Rp708
sg25
g11
sS'trials.thisTrialN'
p709
I0
sS'block.thisIndex'
p710
g94
sg461
g29
(g84
S'\x02\x00\x00\x00\x00\x00\x00\x00'
p711
tp712
Rp713
sa(dp714
S'block.thisTrialN'
p715
I0
sS'stim.thisTrialN'
p716
I12
sS'block.thisRepN'
p717
I0
sg434
g435
sS'stim.thisIndex'
p718
g29
(g64
S'\x0c\x00\x00\x00'
p719
tp720
Rp721
sg28
g38
sS'block.thisN'
p722
I0
sS'stim.thisN'
p723
I12
sg442
g443
sg444
Vmask
p724
sg21
g22
sg26
g27
sS'trials.thisIndex'
p725
g449
sS'stim.thisRepN'
p726
I0
sg23
g24
sg451
g226
sS'trials.thisRepN'
p727
I1
sS'trials.thisN'
p728
I1
sg455
g29
(g84
S'\r\x00\x00\x00\x00\x00\x00\x00'
p729
tp730
Rp731
sg25
g11
sS'trials.thisTrialN'
p732
I0
sS'block.thisIndex'
p733
g94
sg461
g29
(g84
S'\x02\x00\x00\x00\x00\x00\x00\x00'
p734
tp735
Rp736
sa(dp737
S'block.thisTrialN'
p738
I0
sS'stim.thisTrialN'
p739
I13
sS'block.thisRepN'
p740
I0
sg434
g435
sS'stim.thisIndex'
p741
g29
(g64
S'\r\x00\x00\x00'
p742
tp743
Rp744
sg28
g38
sS'block.thisN'
p745
I0
sS'stim.thisN'
p746
I13
sg442
g443
sg444
g445
sg21
g22
sg26
g27
sS'trials.thisIndex'
p747
g449
sS'stim.thisRepN'
p748
I0
sg23
g24
sg451
g180
sS'trials.thisRepN'
p749
I1
sS'trials.thisN'
p750
I1
sg455
g29
(g84
S'\x0e\x00\x00\x00\x00\x00\x00\x00'
p751
tp752
Rp753
sg25
g11
sS'trials.thisTrialN'
p754
I0
sS'block.thisIndex'
p755
g94
sg461
g29
(g84
S'\x02\x00\x00\x00\x00\x00\x00\x00'
p756
tp757
Rp758
sa(dp759
S'block.thisTrialN'
p760
I0
sS'stim.thisTrialN'
p761
I14
sS'block.thisRepN'
p762
I0
sg434
g435
sS'stim.thisIndex'
p763
g29
(g64
S'\x0e\x00\x00\x00'
p764
tp765
Rp766
sg28
g38
sS'block.thisN'
p767
I0
sS'stim.thisN'
p768
I14
sg442
g443
sg444
g445
sg21
g22
sg26
g27
sS'trials.thisIndex'
p769
g449
sS'stim.thisRepN'
p770
I0
sg23
g24
sg451
g295
sS'trials.thisRepN'
p771
I1
sS'trials.thisN'
p772
I1
sg455
g29
(g84
S'\x0f\x00\x00\x00\x00\x00\x00\x00'
p773
tp774
Rp775
sg25
g11
sS'trials.thisTrialN'
p776
I0
sS'block.thisIndex'
p777
g94
sg461
g29
(g84
S'\x02\x00\x00\x00\x00\x00\x00\x00'
p778
tp779
Rp780
sa(dp781
S'block.thisTrialN'
p782
I0
sS'block.thisRepN'
p783
I0
sg16
S'1'
p784
sS'trials.thisRepN'
p785
I1
sg15
F0.050832534150686115
sS'block.thisN'
p786
I0
sg28
g38
sS'trials.thisN'
p787
I1
sg14
g784
sg25
g11
sS'trials.thisTrialN'
p788
I0
sg26
g27
sS'trials.thisIndex'
p789
g449
sg21
g22
sg23
g24
sS'block.thisIndex'
p790
g94
sg17
F0.16790173860499635
sa(dp791
S'block.thisTrialN'
p792
I0
sS'stim.thisTrialN'
p793
I0
sS'block.thisRepN'
p794
I0
sS'Tx'
p795
Vt1
p796
sS'stim.thisIndex'
p797
g29
(g64
S'\x00\x00\x00\x00'
p798
tp799
Rp800
sg28
g38
sS'block.thisN'
p801
I0
sS'stim.thisN'
p802
I0
sS'sep_dur'
p803
Vshort
p804
sS'cond'
p805
Vdistractor
p806
sg21
g22
sg26
g27
sS'trials.thisIndex'
p807
g29
(g64
S'\x00\x00\x00\x00'
p808
tp809
Rp810
sS'stim.thisRepN'
p811
I0
sg23
g24
sS'stimulus'
p812
VH
p813
sS'trials.thisRepN'
p814
I2
sS'trials.thisN'
p815
I2
sS'trial'
p816
g29
(g84
S'\x01\x00\x00\x00\x00\x00\x00\x00'
p817
tp818
Rp819
sg25
g11
sS'trials.thisTrialN'
p820
I0
sS'block.thisIndex'
p821
g94
sS'block'
p822
g29
(g84
S'\x03\x00\x00\x00\x00\x00\x00\x00'
p823
tp824
Rp825
sa(dp826
S'block.thisTrialN'
p827
I0
sS'stim.thisTrialN'
p828
I1
sS'block.thisRepN'
p829
I0
sg795
g796
sS'stim.thisIndex'
p830
g29
(g64
S'\x01\x00\x00\x00'
p831
tp832
Rp833
sg28
g38
sS'block.thisN'
p834
I0
sS'stim.thisN'
p835
I1
sg803
g804
sg805
g806
sg21
g22
sg26
g27
sS'trials.thisIndex'
p836
g810
sS'stim.thisRepN'
p837
I0
sg23
g24
sg812
g295
sS'trials.thisRepN'
p838
I2
sS'trials.thisN'
p839
I2
sg816
g29
(g84
S'\x02\x00\x00\x00\x00\x00\x00\x00'
p840
tp841
Rp842
sg25
g11
sS'trials.thisTrialN'
p843
I0
sS'block.thisIndex'
p844
g94
sg822
g29
(g84
S'\x03\x00\x00\x00\x00\x00\x00\x00'
p845
tp846
Rp847
sa(dp848
S'block.thisTrialN'
p849
I0
sS'stim.thisTrialN'
p850
I2
sS'block.thisRepN'
p851
I0
sg795
g796
sS'stim.thisIndex'
p852
g29
(g64
S'\x02\x00\x00\x00'
p853
tp854
Rp855
sg28
g38
sS'block.thisN'
p856
I0
sS'stim.thisN'
p857
I2
sg803
g804
sg805
g806
sg21
g22
sg26
g27
sS'trials.thisIndex'
p858
g810
sS'stim.thisRepN'
p859
I0
sg23
g24
sg812
g272
sS'trials.thisRepN'
p860
I2
sS'trials.thisN'
p861
I2
sg816
g29
(g84
S'\x03\x00\x00\x00\x00\x00\x00\x00'
p862
tp863
Rp864
sg25
g11
sS'trials.thisTrialN'
p865
I0
sS'block.thisIndex'
p866
g94
sg822
g29
(g84
S'\x03\x00\x00\x00\x00\x00\x00\x00'
p867
tp868
Rp869
sa(dp870
S'block.thisTrialN'
p871
I0
sS'stim.thisTrialN'
p872
I3
sS'block.thisRepN'
p873
I0
sg795
g796
sS'stim.thisIndex'
p874
g29
(g64
S'\x03\x00\x00\x00'
p875
tp876
Rp877
sg28
g38
sS'block.thisN'
p878
I0
sS'stim.thisN'
p879
I3
sg803
g804
sg805
g806
sg21
g22
sg26
g27
sS'trials.thisIndex'
p880
g810
sS'stim.thisRepN'
p881
I0
sg23
g24
sg812
g180
sS'trials.thisRepN'
p882
I2
sS'trials.thisN'
p883
I2
sg816
g29
(g84
S'\x04\x00\x00\x00\x00\x00\x00\x00'
p884
tp885
Rp886
sg25
g11
sS'trials.thisTrialN'
p887
I0
sS'block.thisIndex'
p888
g94
sg822
g29
(g84
S'\x03\x00\x00\x00\x00\x00\x00\x00'
p889
tp890
Rp891
sa(dp892
S'block.thisTrialN'
p893
I0
sS'stim.thisTrialN'
p894
I4
sS'block.thisRepN'
p895
I0
sg795
g796
sS'stim.thisIndex'
p896
g29
(g64
S'\x04\x00\x00\x00'
p897
tp898
Rp899
sg28
g38
sS'block.thisN'
p900
I0
sS'stim.thisN'
p901
I4
sg803
g804
sg805
g806
sg21
g22
sg26
g27
sS'trials.thisIndex'
p902
g810
sS'stim.thisRepN'
p903
I0
sg23
g24
sg812
g386
sS'trials.thisRepN'
p904
I2
sS'trials.thisN'
p905
I2
sg816
g29
(g84
S'\x05\x00\x00\x00\x00\x00\x00\x00'
p906
tp907
Rp908
sg25
g11
sS'trials.thisTrialN'
p909
I0
sS'block.thisIndex'
p910
g94
sg822
g29
(g84
S'\x03\x00\x00\x00\x00\x00\x00\x00'
p911
tp912
Rp913
sa(dp914
S'block.thisTrialN'
p915
I0
sS'stim.thisTrialN'
p916
I5
sS'block.thisRepN'
p917
I0
sg795
g796
sS'stim.thisIndex'
p918
g29
(g64
S'\x05\x00\x00\x00'
p919
tp920
Rp921
sg28
g38
sS'block.thisN'
p922
I0
sS'stim.thisN'
p923
I5
sg803
g804
sg805
g806
sg21
g22
sg26
g27
sS'trials.thisIndex'
p924
g810
sS'stim.thisRepN'
p925
I0
sg23
g24
sg812
g386
sS'trials.thisRepN'
p926
I2
sS'trials.thisN'
p927
I2
sg816
g29
(g84
S'\x06\x00\x00\x00\x00\x00\x00\x00'
p928
tp929
Rp930
sg25
g11
sS'trials.thisTrialN'
p931
I0
sS'block.thisIndex'
p932
g94
sg822
g29
(g84
S'\x03\x00\x00\x00\x00\x00\x00\x00'
p933
tp934
Rp935
sa(dp936
S'block.thisTrialN'
p937
I0
sS'stim.thisTrialN'
p938
I6
sS'block.thisRepN'
p939
I0
sg795
g796
sS'stim.thisIndex'
p940
g29
(g64
S'\x06\x00\x00\x00'
p941
tp942
Rp943
sg28
g38
sS'block.thisN'
p944
I0
sS'stim.thisN'
p945
I6
sg803
g804
sg805
g806
sg21
g22
sg26
g27
sS'trials.thisIndex'
p946
g810
sS'stim.thisRepN'
p947
I0
sg23
g24
sg812
g79
sS'trials.thisRepN'
p948
I2
sS'trials.thisN'
p949
I2
sg816
g29
(g84
S'\x07\x00\x00\x00\x00\x00\x00\x00'
p950
tp951
Rp952
sg25
g11
sS'trials.thisTrialN'
p953
I0
sS'block.thisIndex'
p954
g94
sg822
g29
(g84
S'\x03\x00\x00\x00\x00\x00\x00\x00'
p955
tp956
Rp957
sa(dp958
S'block.thisTrialN'
p959
I0
sS'stim.thisTrialN'
p960
I7
sS'block.thisRepN'
p961
I0
sg795
g796
sS'stim.thisIndex'
p962
g29
(g64
S'\x07\x00\x00\x00'
p963
tp964
Rp965
sg28
g38
sS'block.thisN'
p966
I0
sS'stim.thisN'
p967
I7
sg803
g804
sg805
Vtarget
p968
sg21
g22
sg26
g27
sS'trials.thisIndex'
p969
g810
sS'stim.thisRepN'
p970
I0
sg23
g24
sg812
V3
p971
sS'trials.thisRepN'
p972
I2
sS'trials.thisN'
p973
I2
sg816
g29
(g84
S'\x08\x00\x00\x00\x00\x00\x00\x00'
p974
tp975
Rp976
sg25
g11
sS'trials.thisTrialN'
p977
I0
sS'block.thisIndex'
p978
g94
sg822
g29
(g84
S'\x03\x00\x00\x00\x00\x00\x00\x00'
p979
tp980
Rp981
sa(dp982
S'block.thisTrialN'
p983
I0
sS'stim.thisTrialN'
p984
I8
sS'block.thisRepN'
p985
I0
sg795
g796
sS'stim.thisIndex'
p986
g29
(g64
S'\x08\x00\x00\x00'
p987
tp988
Rp989
sg28
g38
sS'block.thisN'
p990
I0
sS'stim.thisN'
p991
I8
sg803
g804
sg805
g806
sg21
g22
sg26
g27
sS'trials.thisIndex'
p992
g810
sS'stim.thisRepN'
p993
I0
sg23
g24
sg812
VQ
p994
sS'trials.thisRepN'
p995
I2
sS'trials.thisN'
p996
I2
sg816
g29
(g84
S'\t\x00\x00\x00\x00\x00\x00\x00'
p997
tp998
Rp999
sg25
g11
sS'trials.thisTrialN'
p1000
I0
sS'block.thisIndex'
p1001
g94
sg822
g29
(g84
S'\x03\x00\x00\x00\x00\x00\x00\x00'
p1002
tp1003
Rp1004
sa(dp1005
S'block.thisTrialN'
p1006
I0
sS'stim.thisTrialN'
p1007
I9
sS'block.thisRepN'
p1008
I0
sg795
g796
sS'stim.thisIndex'
p1009
g29
(g64
S'\t\x00\x00\x00'
p1010
tp1011
Rp1012
sg28
g38
sS'block.thisN'
p1013
I0
sS'stim.thisN'
p1014
I9
sg803
g804
sg805
g806
sg21
g22
sg26
g27
sS'trials.thisIndex'
p1015
g810
sS'stim.thisRepN'
p1016
I0
sg23
g24
sg812
g635
sS'trials.thisRepN'
p1017
I2
sS'trials.thisN'
p1018
I2
sg816
g29
(g84
S'\n\x00\x00\x00\x00\x00\x00\x00'
p1019
tp1020
Rp1021
sg25
g11
sS'trials.thisTrialN'
p1022
I0
sS'block.thisIndex'
p1023
g94
sg822
g29
(g84
S'\x03\x00\x00\x00\x00\x00\x00\x00'
p1024
tp1025
Rp1026
sa(dp1027
S'block.thisTrialN'
p1028
I0
sS'stim.thisTrialN'
p1029
I10
sS'block.thisRepN'
p1030
I0
sg795
g796
sS'stim.thisIndex'
p1031
g29
(g64
S'\n\x00\x00\x00'
p1032
tp1033
Rp1034
sg28
g38
sS'block.thisN'
p1035
I0
sS'stim.thisN'
p1036
I10
sg803
g804
sg805
g806
sg21
g22
sg26
g27
sS'trials.thisIndex'
p1037
g810
sS'stim.thisRepN'
p1038
I0
sg23
g24
sg812
g994
sS'trials.thisRepN'
p1039
I2
sS'trials.thisN'
p1040
I2
sg816
g29
(g84
S'\x0b\x00\x00\x00\x00\x00\x00\x00'
p1041
tp1042
Rp1043
sg25
g11
sS'trials.thisTrialN'
p1044
I0
sS'block.thisIndex'
p1045
g94
sg822
g29
(g84
S'\x03\x00\x00\x00\x00\x00\x00\x00'
p1046
tp1047
Rp1048
sa(dp1049
S'block.thisTrialN'
p1050
I0
sS'stim.thisTrialN'
p1051
I11
sS'block.thisRepN'
p1052
I0
sg795
g796
sS'stim.thisIndex'
p1053
g29
(g64
S'\x0b\x00\x00\x00'
p1054
tp1055
Rp1056
sg28
g38
sS'block.thisN'
p1057
I0
sS'stim.thisN'
p1058
I11
sg803
g804
sg805
g806
sg21
g22
sg26
g27
sS'trials.thisIndex'
p1059
g810
sS'stim.thisRepN'
p1060
I0
sg23
g24
sg812
g295
sS'trials.thisRepN'
p1061
I2
sS'trials.thisN'
p1062
I2
sg816
g29
(g84
S'\x0c\x00\x00\x00\x00\x00\x00\x00'
p1063
tp1064
Rp1065
sg25
g11
sS'trials.thisTrialN'
p1066
I0
sS'block.thisIndex'
p1067
g94
sg822
g29
(g84
S'\x03\x00\x00\x00\x00\x00\x00\x00'
p1068
tp1069
Rp1070
sa(dp1071
S'block.thisTrialN'
p1072
I0
sS'stim.thisTrialN'
p1073
I12
sS'block.thisRepN'
p1074
I0
sg795
g796
sS'stim.thisIndex'
p1075
g29
(g64
S'\x0c\x00\x00\x00'
p1076
tp1077
Rp1078
sg28
g38
sS'block.thisN'
p1079
I0
sS'stim.thisN'
p1080
I12
sg803
g804
sg805
Vmask
p1081
sg21
g22
sg26
g27
sS'trials.thisIndex'
p1082
g810
sS'stim.thisRepN'
p1083
I0
sg23
g24
sg812
g226
sS'trials.thisRepN'
p1084
I2
sS'trials.thisN'
p1085
I2
sg816
g29
(g84
S'\r\x00\x00\x00\x00\x00\x00\x00'
p1086
tp1087
Rp1088
sg25
g11
sS'trials.thisTrialN'
p1089
I0
sS'block.thisIndex'
p1090
g94
sg822
g29
(g84
S'\x03\x00\x00\x00\x00\x00\x00\x00'
p1091
tp1092
Rp1093
sa(dp1094
S'block.thisTrialN'
p1095
I0
sS'stim.thisTrialN'
p1096
I13
sS'block.thisRepN'
p1097
I0
sg795
g796
sS'stim.thisIndex'
p1098
g29
(g64
S'\r\x00\x00\x00'
p1099
tp1100
Rp1101
sg28
g38
sS'block.thisN'
p1102
I0
sS'stim.thisN'
p1103
I13
sg803
g804
sg805
g806
sg21
g22
sg26
g27
sS'trials.thisIndex'
p1104
g810
sS'stim.thisRepN'
p1105
I0
sg23
g24
sg812
g703
sS'trials.thisRepN'
p1106
I2
sS'trials.thisN'
p1107
I2
sg816
g29
(g84
S'\x0e\x00\x00\x00\x00\x00\x00\x00'
p1108
tp1109
Rp1110
sg25
g11
sS'trials.thisTrialN'
p1111
I0
sS'block.thisIndex'
p1112
g94
sg822
g29
(g84
S'\x03\x00\x00\x00\x00\x00\x00\x00'
p1113
tp1114
Rp1115
sa(dp1116
S'block.thisTrialN'
p1117
I0
sS'stim.thisTrialN'
p1118
I14
sS'block.thisRepN'
p1119
I0
sg795
g796
sS'stim.thisIndex'
p1120
g29
(g64
S'\x0e\x00\x00\x00'
p1121
tp1122
Rp1123
sg28
g38
sS'block.thisN'
p1124
I0
sS'stim.thisN'
p1125
I14
sg803
g804
sg805
g806
sg21
g22
sg26
g27
sS'trials.thisIndex'
p1126
g810
sS'stim.thisRepN'
p1127
I0
sg23
g24
sg812
g363
sS'trials.thisRepN'
p1128
I2
sS'trials.thisN'
p1129
I2
sg816
g29
(g84
S'\x0f\x00\x00\x00\x00\x00\x00\x00'
p1130
tp1131
Rp1132
sg25
g11
sS'trials.thisTrialN'
p1133
I0
sS'block.thisIndex'
p1134
g94
sg822
g29
(g84
S'\x03\x00\x00\x00\x00\x00\x00\x00'
p1135
tp1136
Rp1137
sa(dp1138
S'block.thisTrialN'
p1139
I0
sS'stim.thisTrialN'
p1140
I15
sS'block.thisRepN'
p1141
I0
sg795
g796
sS'stim.thisIndex'
p1142
g29
(g64
S'\x0f\x00\x00\x00'
p1143
tp1144
Rp1145
sg28
g38
sS'block.thisN'
p1146
I0
sS'stim.thisN'
p1147
I15
sg803
g804
sg805
g806
sg21
g22
sg26
g27
sS'trials.thisIndex'
p1148
g810
sS'stim.thisRepN'
p1149
I0
sg23
g24
sg812
g79
sS'trials.thisRepN'
p1150
I2
sS'trials.thisN'
p1151
I2
sg816
g29
(g84
S'\x10\x00\x00\x00\x00\x00\x00\x00'
p1152
tp1153
Rp1154
sg25
g11
sS'trials.thisTrialN'
p1155
I0
sS'block.thisIndex'
p1156
g94
sg822
g29
(g84
S'\x03\x00\x00\x00\x00\x00\x00\x00'
p1157
tp1158
Rp1159
sa(dp1160
S'block.thisTrialN'
p1161
I0
sS'block.thisRepN'
p1162
I0
sg16
S'3'
p1163
sS'trials.thisRepN'
p1164
I2
sg15
F0.08397002081619576
sS'block.thisN'
p1165
I0
sg28
g38
sS'trials.thisN'
p1166
I2
sg14
g1163
sg25
g11
sS'trials.thisTrialN'
p1167
I0
sg26
g27
sS'trials.thisIndex'
p1168
g810
sg21
g22
sg23
g24
sS'block.thisIndex'
p1169
g94
sg17
F0.18354199617169797
sa(dp1170
S'block.thisTrialN'
p1171
I0
sS'stim.thisTrialN'
p1172
I0
sS'block.thisRepN'
p1173
I0
sS'Tx'
p1174
Vt1
p1175
sS'stim.thisIndex'
p1176
g29
(g64
S'\x00\x00\x00\x00'
p1177
tp1178
Rp1179
sg28
g38
sS'block.thisN'
p1180
I0
sS'stim.thisN'
p1181
I0
sS'sep_dur'
p1182
Vshort
p1183
sS'cond'
p1184
Vdistractor
p1185
sg21
g22
sg26
g27
sS'trials.thisIndex'
p1186
g29
(g64
S'\x00\x00\x00\x00'
p1187
tp1188
Rp1189
sS'stim.thisRepN'
p1190
I0
sg23
g24
sS'stimulus'
p1191
g703
sS'trials.thisRepN'
p1192
I3
sS'trials.thisN'
p1193
I3
sS'trial'
p1194
g29
(g84
S'\x01\x00\x00\x00\x00\x00\x00\x00'
p1195
tp1196
Rp1197
sg25
g11
sS'trials.thisTrialN'
p1198
I0
sS'block.thisIndex'
p1199
g94
sS'block'
p1200
g29
(g84
S'\x04\x00\x00\x00\x00\x00\x00\x00'
p1201
tp1202
Rp1203
sa(dp1204
S'block.thisTrialN'
p1205
I0
sS'stim.thisTrialN'
p1206
I1
sS'block.thisRepN'
p1207
I0
sg1174
g1175
sS'stim.thisIndex'
p1208
g29
(g64
S'\x01\x00\x00\x00'
p1209
tp1210
Rp1211
sg28
g38
sS'block.thisN'
p1212
I0
sS'stim.thisN'
p1213
I1
sg1182
g1183
sg1184
g1185
sg21
g22
sg26
g27
sS'trials.thisIndex'
p1214
g1189
sS'stim.thisRepN'
p1215
I0
sg23
g24
sg1191
VC
p1216
sS'trials.thisRepN'
p1217
I3
sS'trials.thisN'
p1218
I3
sg1194
g29
(g84
S'\x02\x00\x00\x00\x00\x00\x00\x00'
p1219
tp1220
Rp1221
sg25
g11
sS'trials.thisTrialN'
p1222
I0
sS'block.thisIndex'
p1223
g94
sg1200
g29
(g84
S'\x04\x00\x00\x00\x00\x00\x00\x00'
p1224
tp1225
Rp1226
sa(dp1227
S'block.thisTrialN'
p1228
I0
sS'stim.thisTrialN'
p1229
I2
sS'block.thisRepN'
p1230
I0
sg1174
g1175
sS'stim.thisIndex'
p1231
g29
(g64
S'\x02\x00\x00\x00'
p1232
tp1233
Rp1234
sg28
g38
sS'block.thisN'
p1235
I0
sS'stim.thisN'
p1236
I2
sg1182
g1183
sg1184
g1185
sg21
g22
sg26
g27
sS'trials.thisIndex'
p1237
g1189
sS'stim.thisRepN'
p1238
I0
sg23
g24
sg1191
g994
sS'trials.thisRepN'
p1239
I3
sS'trials.thisN'
p1240
I3
sg1194
g29
(g84
S'\x03\x00\x00\x00\x00\x00\x00\x00'
p1241
tp1242
Rp1243
sg25
g11
sS'trials.thisTrialN'
p1244
I0
sS'block.thisIndex'
p1245
g94
sg1200
g29
(g84
S'\x04\x00\x00\x00\x00\x00\x00\x00'
p1246
tp1247
Rp1248
sa(dp1249
S'block.thisTrialN'
p1250
I0
sS'stim.thisTrialN'
p1251
I3
sS'block.thisRepN'
p1252
I0
sg1174
g1175
sS'stim.thisIndex'
p1253
g29
(g64
S'\x03\x00\x00\x00'
p1254
tp1255
Rp1256
sg28
g38
sS'block.thisN'
p1257
I0
sS'stim.thisN'
p1258
I3
sg1182
g1183
sg1184
g1185
sg21
g22
sg26
g27
sS'trials.thisIndex'
p1259
g1189
sS'stim.thisRepN'
p1260
I0
sg23
g24
sg1191
g363
sS'trials.thisRepN'
p1261
I3
sS'trials.thisN'
p1262
I3
sg1194
g29
(g84
S'\x04\x00\x00\x00\x00\x00\x00\x00'
p1263
tp1264
Rp1265
sg25
g11
sS'trials.thisTrialN'
p1266
I0
sS'block.thisIndex'
p1267
g94
sg1200
g29
(g84
S'\x04\x00\x00\x00\x00\x00\x00\x00'
p1268
tp1269
Rp1270
sa(dp1271
S'block.thisTrialN'
p1272
I0
sS'stim.thisTrialN'
p1273
I4
sS'block.thisRepN'
p1274
I0
sg1174
g1175
sS'stim.thisIndex'
p1275
g29
(g64
S'\x04\x00\x00\x00'
p1276
tp1277
Rp1278
sg28
g38
sS'block.thisN'
p1279
I0
sS'stim.thisN'
p1280
I4
sg1182
g1183
sg1184
g1185
sg21
g22
sg26
g27
sS'trials.thisIndex'
p1281
g1189
sS'stim.thisRepN'
p1282
I0
sg23
g24
sg1191
g994
sS'trials.thisRepN'
p1283
I3
sS'trials.thisN'
p1284
I3
sg1194
g29
(g84
S'\x05\x00\x00\x00\x00\x00\x00\x00'
p1285
tp1286
Rp1287
sg25
g11
sS'trials.thisTrialN'
p1288
I0
sS'block.thisIndex'
p1289
g94
sg1200
g29
(g84
S'\x04\x00\x00\x00\x00\x00\x00\x00'
p1290
tp1291
Rp1292
sa(dp1293
S'block.thisTrialN'
p1294
I0
sS'stim.thisTrialN'
p1295
I5
sS'block.thisRepN'
p1296
I0
sg1174
g1175
sS'stim.thisIndex'
p1297
g29
(g64
S'\x05\x00\x00\x00'
p1298
tp1299
Rp1300
sg28
g38
sS'block.thisN'
p1301
I0
sS'stim.thisN'
p1302
I5
sg1182
g1183
sg1184
g1185
sg21
g22
sg26
g27
sS'trials.thisIndex'
p1303
g1189
sS'stim.thisRepN'
p1304
I0
sg23
g24
sg1191
g363
sS'trials.thisRepN'
p1305
I3
sS'trials.thisN'
p1306
I3
sg1194
g29
(g84
S'\x06\x00\x00\x00\x00\x00\x00\x00'
p1307
tp1308
Rp1309
sg25
g11
sS'trials.thisTrialN'
p1310
I0
sS'block.thisIndex'
p1311
g94
sg1200
g29
(g84
S'\x04\x00\x00\x00\x00\x00\x00\x00'
p1312
tp1313
Rp1314
sa(dp1315
S'block.thisTrialN'
p1316
I0
sS'stim.thisTrialN'
p1317
I6
sS'block.thisRepN'
p1318
I0
sg1174
g1175
sS'stim.thisIndex'
p1319
g29
(g64
S'\x06\x00\x00\x00'
p1320
tp1321
Rp1322
sg28
g38
sS'block.thisN'
p1323
I0
sS'stim.thisN'
p1324
I6
sg1182
g1183
sg1184
g1185
sg21
g22
sg26
g27
sS'trials.thisIndex'
p1325
g1189
sS'stim.thisRepN'
p1326
I0
sg23
g24
sg1191
g134
sS'trials.thisRepN'
p1327
I3
sS'trials.thisN'
p1328
I3
sg1194
g29
(g84
S'\x07\x00\x00\x00\x00\x00\x00\x00'
p1329
tp1330
Rp1331
sg25
g11
sS'trials.thisTrialN'
p1332
I0
sS'block.thisIndex'
p1333
g94
sg1200
g29
(g84
S'\x04\x00\x00\x00\x00\x00\x00\x00'
p1334
tp1335
Rp1336
sa(dp1337
S'block.thisTrialN'
p1338
I0
sS'stim.thisTrialN'
p1339
I7
sS'block.thisRepN'
p1340
I0
sg1174
g1175
sS'stim.thisIndex'
p1341
g29
(g64
S'\x07\x00\x00\x00'
p1342
tp1343
Rp1344
sg28
g38
sS'block.thisN'
p1345
I0
sS'stim.thisN'
p1346
I7
sg1182
g1183
sg1184
g1185
sg21
g22
sg26
g27
sS'trials.thisIndex'
p1347
g1189
sS'stim.thisRepN'
p1348
I0
sg23
g24
sg1191
g522
sS'trials.thisRepN'
p1349
I3
sS'trials.thisN'
p1350
I3
sg1194
g29
(g84
S'\x08\x00\x00\x00\x00\x00\x00\x00'
p1351
tp1352
Rp1353
sg25
g11
sS'trials.thisTrialN'
p1354
I0
sS'block.thisIndex'
p1355
g94
sg1200
g29
(g84
S'\x04\x00\x00\x00\x00\x00\x00\x00'
p1356
tp1357
Rp1358
sa(dp1359
S'block.thisTrialN'
p1360
I0
sS'stim.thisTrialN'
p1361
I8
sS'block.thisRepN'
p1362
I0
sg1174
g1175
sS'stim.thisIndex'
p1363
g29
(g64
S'\x08\x00\x00\x00'
p1364
tp1365
Rp1366
sg28
g38
sS'block.thisN'
p1367
I0
sS'stim.thisN'
p1368
I8
sg1182
g1183
sg1184
g1185
sg21
g22
sg26
g27
sS'trials.thisIndex'
p1369
g1189
sS'stim.thisRepN'
p1370
I0
sg23
g24
sg1191
g703
sS'trials.thisRepN'
p1371
I3
sS'trials.thisN'
p1372
I3
sg1194
g29
(g84
S'\t\x00\x00\x00\x00\x00\x00\x00'
p1373
tp1374
Rp1375
sg25
g11
sS'trials.thisTrialN'
p1376
I0
sS'block.thisIndex'
p1377
g94
sg1200
g29
(g84
S'\x04\x00\x00\x00\x00\x00\x00\x00'
p1378
tp1379
Rp1380
sa(dp1381
S'block.thisTrialN'
p1382
I0
sS'stim.thisTrialN'
p1383
I9
sS'block.thisRepN'
p1384
I0
sg1174
g1175
sS'stim.thisIndex'
p1385
g29
(g64
S'\t\x00\x00\x00'
p1386
tp1387
Rp1388
sg28
g38
sS'block.thisN'
p1389
I0
sS'stim.thisN'
p1390
I9
sg1182
g1183
sg1184
g1185
sg21
g22
sg26
g27
sS'trials.thisIndex'
p1391
g1189
sS'stim.thisRepN'
p1392
I0
sg23
g24
sg1191
g1216
sS'trials.thisRepN'
p1393
I3
sS'trials.thisN'
p1394
I3
sg1194
g29
(g84
S'\n\x00\x00\x00\x00\x00\x00\x00'
p1395
tp1396
Rp1397
sg25
g11
sS'trials.thisTrialN'
p1398
I0
sS'block.thisIndex'
p1399
g94
sg1200
g29
(g84
S'\x04\x00\x00\x00\x00\x00\x00\x00'
p1400
tp1401
Rp1402
sa(dp1403
S'block.thisTrialN'
p1404
I0
sS'stim.thisTrialN'
p1405
I10
sS'block.thisRepN'
p1406
I0
sg1174
g1175
sS'stim.thisIndex'
p1407
g29
(g64
S'\n\x00\x00\x00'
p1408
tp1409
Rp1410
sg28
g38
sS'block.thisN'
p1411
I0
sS'stim.thisN'
p1412
I10
sg1182
g1183
sg1184
Vtarget
p1413
sg21
g22
sg26
g27
sS'trials.thisIndex'
p1414
g1189
sS'stim.thisRepN'
p1415
I0
sg23
g24
sg1191
V2
p1416
sS'trials.thisRepN'
p1417
I3
sS'trials.thisN'
p1418
I3
sg1194
g29
(g84
S'\x0b\x00\x00\x00\x00\x00\x00\x00'
p1419
tp1420
Rp1421
sg25
g11
sS'trials.thisTrialN'
p1422
I0
sS'block.thisIndex'
p1423
g94
sg1200
g29
(g84
S'\x04\x00\x00\x00\x00\x00\x00\x00'
p1424
tp1425
Rp1426
sa(dp1427
S'block.thisTrialN'
p1428
I0
sS'stim.thisTrialN'
p1429
I11
sS'block.thisRepN'
p1430
I0
sg1174
g1175
sS'stim.thisIndex'
p1431
g29
(g64
S'\x0b\x00\x00\x00'
p1432
tp1433
Rp1434
sg28
g38
sS'block.thisN'
p1435
I0
sS'stim.thisN'
p1436
I11
sg1182
g1183
sg1184
g1185
sg21
g22
sg26
g27
sS'trials.thisIndex'
p1437
g1189
sS'stim.thisRepN'
p1438
I0
sg23
g24
sg1191
g658
sS'trials.thisRepN'
p1439
I3
sS'trials.thisN'
p1440
I3
sg1194
g29
(g84
S'\x0c\x00\x00\x00\x00\x00\x00\x00'
p1441
tp1442
Rp1443
sg25
g11
sS'trials.thisTrialN'
p1444
I0
sS'block.thisIndex'
p1445
g94
sg1200
g29
(g84
S'\x04\x00\x00\x00\x00\x00\x00\x00'
p1446
tp1447
Rp1448
sa(dp1449
S'block.thisTrialN'
p1450
I0
sS'stim.thisTrialN'
p1451
I12
sS'block.thisRepN'
p1452
I0
sg1174
g1175
sS'stim.thisIndex'
p1453
g29
(g64
S'\x0c\x00\x00\x00'
p1454
tp1455
Rp1456
sg28
g38
sS'block.thisN'
p1457
I0
sS'stim.thisN'
p1458
I12
sg1182
g1183
sg1184
g1185
sg21
g22
sg26
g27
sS'trials.thisIndex'
p1459
g1189
sS'stim.thisRepN'
p1460
I0
sg23
g24
sg1191
VN
p1461
sS'trials.thisRepN'
p1462
I3
sS'trials.thisN'
p1463
I3
sg1194
g29
(g84
S'\r\x00\x00\x00\x00\x00\x00\x00'
p1464
tp1465
Rp1466
sg25
g11
sS'trials.thisTrialN'
p1467
I0
sS'block.thisIndex'
p1468
g94
sg1200
g29
(g84
S'\x04\x00\x00\x00\x00\x00\x00\x00'
p1469
tp1470
Rp1471
sa(dp1472
S'block.thisTrialN'
p1473
I0
sS'stim.thisTrialN'
p1474
I13
sS'block.thisRepN'
p1475
I0
sg1174
g1175
sS'stim.thisIndex'
p1476
g29
(g64
S'\r\x00\x00\x00'
p1477
tp1478
Rp1479
sg28
g38
sS'block.thisN'
p1480
I0
sS'stim.thisN'
p1481
I13
sg1182
g1183
sg1184
g1185
sg21
g22
sg26
g27
sS'trials.thisIndex'
p1482
g1189
sS'stim.thisRepN'
p1483
I0
sg23
g24
sg1191
VJ
p1484
sS'trials.thisRepN'
p1485
I3
sS'trials.thisN'
p1486
I3
sg1194
g29
(g84
S'\x0e\x00\x00\x00\x00\x00\x00\x00'
p1487
tp1488
Rp1489
sg25
g11
sS'trials.thisTrialN'
p1490
I0
sS'block.thisIndex'
p1491
g94
sg1200
g29
(g84
S'\x04\x00\x00\x00\x00\x00\x00\x00'
p1492
tp1493
Rp1494
sa(dp1495
S'block.thisTrialN'
p1496
I0
sS'stim.thisTrialN'
p1497
I14
sS'block.thisRepN'
p1498
I0
sg1174
g1175
sS'stim.thisIndex'
p1499
g29
(g64
S'\x0e\x00\x00\x00'
p1500
tp1501
Rp1502
sg28
g38
sS'block.thisN'
p1503
I0
sS'stim.thisN'
p1504
I14
sg1182
g1183
sg1184
g1185
sg21
g22
sg26
g27
sS'trials.thisIndex'
p1505
g1189
sS'stim.thisRepN'
p1506
I0
sg23
g24
sg1191
VZ
p1507
sS'trials.thisRepN'
p1508
I3
sS'trials.thisN'
p1509
I3
sg1194
g29
(g84
S'\x0f\x00\x00\x00\x00\x00\x00\x00'
p1510
tp1511
Rp1512
sg25
g11
sS'trials.thisTrialN'
p1513
I0
sS'block.thisIndex'
p1514
g94
sg1200
g29
(g84
S'\x04\x00\x00\x00\x00\x00\x00\x00'
p1515
tp1516
Rp1517
sa(dp1518
S'block.thisTrialN'
p1519
I0
sS'stim.thisTrialN'
p1520
I15
sS'block.thisRepN'
p1521
I0
sg1174
g1175
sS'stim.thisIndex'
p1522
g29
(g64
S'\x0f\x00\x00\x00'
p1523
tp1524
Rp1525
sg28
g38
sS'block.thisN'
p1526
I0
sS'stim.thisN'
p1527
I15
sg1182
g1183
sg1184
Vmask
p1528
sg21
g22
sg26
g27
sS'trials.thisIndex'
p1529
g1189
sS'stim.thisRepN'
p1530
I0
sg23
g24
sg1191
g226
sS'trials.thisRepN'
p1531
I3
sS'trials.thisN'
p1532
I3
sg1194
g29
(g84
S'\x10\x00\x00\x00\x00\x00\x00\x00'
p1533
tp1534
Rp1535
sg25
g11
sS'trials.thisTrialN'
p1536
I0
sS'block.thisIndex'
p1537
g94
sg1200
g29
(g84
S'\x04\x00\x00\x00\x00\x00\x00\x00'
p1538
tp1539
Rp1540
sa(dp1541
S'block.thisTrialN'
p1542
I0
sS'stim.thisTrialN'
p1543
I16
sS'block.thisRepN'
p1544
I0
sg1174
g1175
sS'stim.thisIndex'
p1545
g29
(g64
S'\x10\x00\x00\x00'
p1546
tp1547
Rp1548
sg28
g38
sS'block.thisN'
p1549
I0
sS'stim.thisN'
p1550
I16
sg1182
g1183
sg1184
g1185
sg21
g22
sg26
g27
sS'trials.thisIndex'
p1551
g1189
sS'stim.thisRepN'
p1552
I0
sg23
g24
sg1191
g1484
sS'trials.thisRepN'
p1553
I3
sS'trials.thisN'
p1554
I3
sg1194
g29
(g84
S'\x11\x00\x00\x00\x00\x00\x00\x00'
p1555
tp1556
Rp1557
sg25
g11
sS'trials.thisTrialN'
p1558
I0
sS'block.thisIndex'
p1559
g94
sg1200
g29
(g84
S'\x04\x00\x00\x00\x00\x00\x00\x00'
p1560
tp1561
Rp1562
sa(dp1563
S'block.thisTrialN'
p1564
I0
sS'stim.thisTrialN'
p1565
I17
sS'block.thisRepN'
p1566
I0
sg1174
g1175
sS'stim.thisIndex'
p1567
g29
(g64
S'\x11\x00\x00\x00'
p1568
tp1569
Rp1570
sg28
g38
sS'block.thisN'
p1571
I0
sS'stim.thisN'
p1572
I17
sg1182
g1183
sg1184
g1185
sg21
g22
sg26
g27
sS'trials.thisIndex'
p1573
g1189
sS'stim.thisRepN'
p1574
I0
sg23
g24
sg1191
g658
sS'trials.thisRepN'
p1575
I3
sS'trials.thisN'
p1576
I3
sg1194
g29
(g84
S'\x12\x00\x00\x00\x00\x00\x00\x00'
p1577
tp1578
Rp1579
sg25
g11
sS'trials.thisTrialN'
p1580
I0
sS'block.thisIndex'
p1581
g94
sg1200
g29
(g84
S'\x04\x00\x00\x00\x00\x00\x00\x00'
p1582
tp1583
Rp1584
sa(dp1585
S'block.thisTrialN'
p1586
I0
sS'block.thisRepN'
p1587
I0
sg16
S'2'
p1588
sS'trials.thisRepN'
p1589
I3
sg15
F0.20640020014252514
sS'block.thisN'
p1590
I0
sg28
g38
sS'trials.thisN'
p1591
I3
sg14
g1588
sg25
g11
sS'trials.thisTrialN'
p1592
I0
sg26
g27
sS'trials.thisIndex'
p1593
g1189
sg21
g22
sg23
g24
sS'block.thisIndex'
p1594
g94
sg17
F1.78948246256914
sa(dp1595
S'block.thisTrialN'
p1596
I0
sS'block.thisRepN'
p1597
I0
sg28
g38
sS'block.thisN'
p1598
I0
sg25
g11
sg26
g27
sg21
g22
sg23
g24
sS'block.thisIndex'
p1599
g94
sa(dp1600
S'block.thisTrialN'
p1601
I0
sS'stim.thisTrialN'
p1602
I0
sS'block.thisRepN'
p1603
I1
sS'Tx'
p1604
Vt1
p1605
sS'stim.thisIndex'
p1606
g29
(g64
S'\x00\x00\x00\x00'
p1607
tp1608
Rp1609
sg28
g38
sS'block.thisN'
p1610
I1
sS'stim.thisN'
p1611
I0
sS'sep_dur'
p1612
Vshort
p1613
sS'cond'
p1614
Vdistractor
p1615
sg21
g22
sg26
g27
sS'trials.thisIndex'
p1616
g29
(g64
S'\x00\x00\x00\x00'
p1617
tp1618
Rp1619
sS'stim.thisRepN'
p1620
I0
sg23
g24
sS'stimulus'
p1621
g813
sS'trials.thisRepN'
p1622
I0
sS'trials.thisN'
p1623
I0
sS'trial'
p1624
g29
(g84
S'\x01\x00\x00\x00\x00\x00\x00\x00'
p1625
tp1626
Rp1627
sg25
g11
sS'trials.thisTrialN'
p1628
I0
sS'block.thisIndex'
p1629
g29
(g64
S'\x00\x00\x00\x00'
p1630
tp1631
Rp1632
sS'block'
p1633
g29
(g84
S'\x05\x00\x00\x00\x00\x00\x00\x00'
p1634
tp1635
Rp1636
sa(dp1637
S'block.thisTrialN'
p1638
I0
sS'stim.thisTrialN'
p1639
I1
sS'block.thisRepN'
p1640
I1
sg1604
g1605
sS'stim.thisIndex'
p1641
g29
(g64
S'\x01\x00\x00\x00'
p1642
tp1643
Rp1644
sg28
g38
sS'block.thisN'
p1645
I1
sS'stim.thisN'
p1646
I1
sg1612
g1613
sg1614
g1615
sg21
g22
sg26
g27
sS'trials.thisIndex'
p1647
g1619
sS'stim.thisRepN'
p1648
I0
sg23
g24
sg1621
g1507
sS'trials.thisRepN'
p1649
I0
sS'trials.thisN'
p1650
I0
sg1624
g29
(g84
S'\x02\x00\x00\x00\x00\x00\x00\x00'
p1651
tp1652
Rp1653
sg25
g11
sS'trials.thisTrialN'
p1654
I0
sS'block.thisIndex'
p1655
g1632
sg1633
g29
(g84
S'\x05\x00\x00\x00\x00\x00\x00\x00'
p1656
tp1657
Rp1658
sa(dp1659
S'block.thisTrialN'
p1660
I0
sS'stim.thisTrialN'
p1661
I2
sS'block.thisRepN'
p1662
I1
sg1604
g1605
sS'stim.thisIndex'
p1663
g29
(g64
S'\x02\x00\x00\x00'
p1664
tp1665
Rp1666
sg28
g38
sS'block.thisN'
p1667
I1
sS'stim.thisN'
p1668
I2
sg1612
g1613
sg1614
Vtarget
p1669
sg21
g22
sg26
g27
sS'trials.thisIndex'
p1670
g1619
sS'stim.thisRepN'
p1671
I0
sg23
g24
sg1621
V6
p1672
sS'trials.thisRepN'
p1673
I0
sS'trials.thisN'
p1674
I0
sg1624
g29
(g84
S'\x03\x00\x00\x00\x00\x00\x00\x00'
p1675
tp1676
Rp1677
sg25
g11
sS'trials.thisTrialN'
p1678
I0
sS'block.thisIndex'
p1679
g1632
sg1633
g29
(g84
S'\x05\x00\x00\x00\x00\x00\x00\x00'
p1680
tp1681
Rp1682
sa(dp1683
S'block.thisTrialN'
p1684
I0
sS'stim.thisTrialN'
p1685
I3
sS'block.thisRepN'
p1686
I1
sg1604
g1605
sS'stim.thisIndex'
p1687
g29
(g64
S'\x03\x00\x00\x00'
p1688
tp1689
Rp1690
sg28
g38
sS'block.thisN'
p1691
I1
sS'stim.thisN'
p1692
I3
sg1612
g1613
sg1614
g1615
sg21
g22
sg26
g27
sS'trials.thisIndex'
p1693
g1619
sS'stim.thisRepN'
p1694
I0
sg23
g24
sg1621
g134
sS'trials.thisRepN'
p1695
I0
sS'trials.thisN'
p1696
I0
sg1624
g29
(g84
S'\x04\x00\x00\x00\x00\x00\x00\x00'
p1697
tp1698
Rp1699
sg25
g11
sS'trials.thisTrialN'
p1700
I0
sS'block.thisIndex'
p1701
g1632
sg1633
g29
(g84
S'\x05\x00\x00\x00\x00\x00\x00\x00'
p1702
tp1703
Rp1704
sa(dp1705
S'block.thisTrialN'
p1706
I0
sS'stim.thisTrialN'
p1707
I4
sS'block.thisRepN'
p1708
I1
sg1604
g1605
sS'stim.thisIndex'
p1709
g29
(g64
S'\x04\x00\x00\x00'
p1710
tp1711
Rp1712
sg28
g38
sS'block.thisN'
p1713
I1
sS'stim.thisN'
p1714
I4
sg1612
g1613
sg1614
g1615
sg21
g22
sg26
g27
sS'trials.thisIndex'
p1715
g1619
sS'stim.thisRepN'
p1716
I0
sg23
g24
sg1621
g386
sS'trials.thisRepN'
p1717
I0
sS'trials.thisN'
p1718
I0
sg1624
g29
(g84
S'\x05\x00\x00\x00\x00\x00\x00\x00'
p1719
tp1720
Rp1721
sg25
g11
sS'trials.thisTrialN'
p1722
I0
sS'block.thisIndex'
p1723
g1632
sg1633
g29
(g84
S'\x05\x00\x00\x00\x00\x00\x00\x00'
p1724
tp1725
Rp1726
sa(dp1727
S'block.thisTrialN'
p1728
I0
sS'stim.thisTrialN'
p1729
I5
sS'block.thisRepN'
p1730
I1
sg1604
g1605
sS'stim.thisIndex'
p1731
g29
(g64
S'\x05\x00\x00\x00'
p1732
tp1733
Rp1734
sg28
g38
sS'block.thisN'
p1735
I1
sS'stim.thisN'
p1736
I5
sg1612
g1613
sg1614
g1615
sg21
g22
sg26
g27
sS'trials.thisIndex'
p1737
g1619
sS'stim.thisRepN'
p1738
I0
sg23
g24
sg1621
g386
sS'trials.thisRepN'
p1739
I0
sS'trials.thisN'
p1740
I0
sg1624
g29
(g84
S'\x06\x00\x00\x00\x00\x00\x00\x00'
p1741
tp1742
Rp1743
sg25
g11
sS'trials.thisTrialN'
p1744
I0
sS'block.thisIndex'
p1745
g1632
sg1633
g29
(g84
S'\x05\x00\x00\x00\x00\x00\x00\x00'
p1746
tp1747
Rp1748
sa(dp1749
S'block.thisTrialN'
p1750
I0
sS'stim.thisTrialN'
p1751
I6
sS'block.thisRepN'
p1752
I1
sg1604
g1605
sS'stim.thisIndex'
p1753
g29
(g64
S'\x06\x00\x00\x00'
p1754
tp1755
Rp1756
sg28
g38
sS'block.thisN'
p1757
I1
sS'stim.thisN'
p1758
I6
sg1612
g1613
sg1614
g1615
sg21
g22
sg26
g27
sS'trials.thisIndex'
p1759
g1619
sS'stim.thisRepN'
p1760
I0
sg23
g24
sg1621
g386
sS'trials.thisRepN'
p1761
I0
sS'trials.thisN'
p1762
I0
sg1624
g29
(g84
S'\x07\x00\x00\x00\x00\x00\x00\x00'
p1763
tp1764
Rp1765
sg25
g11
sS'trials.thisTrialN'
p1766
I0
sS'block.thisIndex'
p1767
g1632
sg1633
g29
(g84
S'\x05\x00\x00\x00\x00\x00\x00\x00'
p1768
tp1769
Rp1770
sa(dp1771
S'block.thisTrialN'
p1772
I0
sS'stim.thisTrialN'
p1773
I7
sS'block.thisRepN'
p1774
I1
sg1604
g1605
sS'stim.thisIndex'
p1775
g29
(g64
S'\x07\x00\x00\x00'
p1776
tp1777
Rp1778
sg28
g38
sS'block.thisN'
p1779
I1
sS'stim.thisN'
p1780
I7
sg1612
g1613
sg1614
Vmask
p1781
sg21
g22
sg26
g27
sS'trials.thisIndex'
p1782
g1619
sS'stim.thisRepN'
p1783
I0
sg23
g24
sg1621
g226
sS'trials.thisRepN'
p1784
I0
sS'trials.thisN'
p1785
I0
sg1624
g29
(g84
S'\x08\x00\x00\x00\x00\x00\x00\x00'
p1786
tp1787
Rp1788
sg25
g11
sS'trials.thisTrialN'
p1789
I0
sS'block.thisIndex'
p1790
g1632
sg1633
g29
(g84
S'\x05\x00\x00\x00\x00\x00\x00\x00'
p1791
tp1792
Rp1793
sa(dp1794
S'block.thisTrialN'
p1795
I0
sS'stim.thisTrialN'
p1796
I8
sS'block.thisRepN'
p1797
I1
sg1604
g1605
sS'stim.thisIndex'
p1798
g29
(g64
S'\x08\x00\x00\x00'
p1799
tp1800
Rp1801
sg28
g38
sS'block.thisN'
p1802
I1
sS'stim.thisN'
p1803
I8
sg1612
g1613
sg1614
g1615
sg21
g22
sg26
g27
sS'trials.thisIndex'
p1804
g1619
sS'stim.thisRepN'
p1805
I0
sg23
g24
sg1621
VW
p1806
sS'trials.thisRepN'
p1807
I0
sS'trials.thisN'
p1808
I0
sg1624
g29
(g84
S'\t\x00\x00\x00\x00\x00\x00\x00'
p1809
tp1810
Rp1811
sg25
g11
sS'trials.thisTrialN'
p1812
I0
sS'block.thisIndex'
p1813
g1632
sg1633
g29
(g84
S'\x05\x00\x00\x00\x00\x00\x00\x00'
p1814
tp1815
Rp1816
sa(dp1817
S'block.thisTrialN'
p1818
I0
sS'stim.thisTrialN'
p1819
I9
sS'block.thisRepN'
p1820
I1
sg1604
g1605
sS'stim.thisIndex'
p1821
g29
(g64
S'\t\x00\x00\x00'
p1822
tp1823
Rp1824
sg28
g38
sS'block.thisN'
p1825
I1
sS'stim.thisN'
p1826
I9
sg1612
g1613
sg1614
g1615
sg21
g22
sg26
g27
sS'trials.thisIndex'
p1827
g1619
sS'stim.thisRepN'
p1828
I0
sg23
g24
sg1621
g409
sS'trials.thisRepN'
p1829
I0
sS'trials.thisN'
p1830
I0
sg1624
g29
(g84
S'\n\x00\x00\x00\x00\x00\x00\x00'
p1831
tp1832
Rp1833
sg25
g11
sS'trials.thisTrialN'
p1834
I0
sS'block.thisIndex'
p1835
g1632
sg1633
g29
(g84
S'\x05\x00\x00\x00\x00\x00\x00\x00'
p1836
tp1837
Rp1838
sa(dp1839
S'block.thisTrialN'
p1840
I0
sS'stim.thisTrialN'
p1841
I10
sS'block.thisRepN'
p1842
I1
sg1604
g1605
sS'stim.thisIndex'
p1843
g29
(g64
S'\n\x00\x00\x00'
p1844
tp1845
Rp1846
sg28
g38
sS'block.thisN'
p1847
I1
sS'stim.thisN'
p1848
I10
sg1612
g1613
sg1614
g1615
sg21
g22
sg26
g27
sS'trials.thisIndex'
p1849
g1619
sS'stim.thisRepN'
p1850
I0
sg23
g24
sg1621
g386
sS'trials.thisRepN'
p1851
I0
sS'trials.thisN'
p1852
I0
sg1624
g29
(g84
S'\x0b\x00\x00\x00\x00\x00\x00\x00'
p1853
tp1854
Rp1855
sg25
g11
sS'trials.thisTrialN'
p1856
I0
sS'block.thisIndex'
p1857
g1632
sg1633
g29
(g84
S'\x05\x00\x00\x00\x00\x00\x00\x00'
p1858
tp1859
Rp1860
sa(dp1861
S'block.thisTrialN'
p1862
I0
sS'stim.thisTrialN'
p1863
I11
sS'block.thisRepN'
p1864
I1
sg1604
g1605
sS'stim.thisIndex'
p1865
g29
(g64
S'\x0b\x00\x00\x00'
p1866
tp1867
Rp1868
sg28
g38
sS'block.thisN'
p1869
I1
sS'stim.thisN'
p1870
I11
sg1612
g1613
sg1614
g1615
sg21
g22
sg26
g27
sS'trials.thisIndex'
p1871
g1619
sS'stim.thisRepN'
p1872
I0
sg23
g24
sg1621
g363
sS'trials.thisRepN'
p1873
I0
sS'trials.thisN'
p1874
I0
sg1624
g29
(g84
S'\x0c\x00\x00\x00\x00\x00\x00\x00'
p1875
tp1876
Rp1877
sg25
g11
sS'trials.thisTrialN'
p1878
I0
sS'block.thisIndex'
p1879
g1632
sg1633
g29
(g84
S'\x05\x00\x00\x00\x00\x00\x00\x00'
p1880
tp1881
Rp1882
sa(dp1883
S'block.thisTrialN'
p1884
I0
sS'stim.thisTrialN'
p1885
I12
sS'block.thisRepN'
p1886
I1
sg1604
g1605
sS'stim.thisIndex'
p1887
g29
(g64
S'\x0c\x00\x00\x00'
p1888
tp1889
Rp1890
sg28
g38
sS'block.thisN'
p1891
I1
sS'stim.thisN'
p1892
I12
sg1612
g1613
sg1614
g1615
sg21
g22
sg26
g27
sS'trials.thisIndex'
p1893
g1619
sS'stim.thisRepN'
p1894
I0
sg23
g24
sg1621
g1806
sS'trials.thisRepN'
p1895
I0
sS'trials.thisN'
p1896
I0
sg1624
g29
(g84
S'\r\x00\x00\x00\x00\x00\x00\x00'
p1897
tp1898
Rp1899
sg25
g11
sS'trials.thisTrialN'
p1900
I0
sS'block.thisIndex'
p1901
g1632
sg1633
g29
(g84
S'\x05\x00\x00\x00\x00\x00\x00\x00'
p1902
tp1903
Rp1904
sa(dp1905
S'block.thisTrialN'
p1906
I0
sS'stim.thisTrialN'
p1907
I13
sS'block.thisRepN'
p1908
I1
sg1604
g1605
sS'stim.thisIndex'
p1909
g29
(g64
S'\r\x00\x00\x00'
p1910
tp1911
Rp1912
sg28
g38
sS'block.thisN'
p1913
I1
sS'stim.thisN'
p1914
I13
sg1612
g1613
sg1614
g1615
sg21
g22
sg26
g27
sS'trials.thisIndex'
p1915
g1619
sS'stim.thisRepN'
p1916
I0
sg23
g24
sg1621
g1216
sS'trials.thisRepN'
p1917
I0
sS'trials.thisN'
p1918
I0
sg1624
g29
(g84
S'\x0e\x00\x00\x00\x00\x00\x00\x00'
p1919
tp1920
Rp1921
sg25
g11
sS'trials.thisTrialN'
p1922
I0
sS'block.thisIndex'
p1923
g1632
sg1633
g29
(g84
S'\x05\x00\x00\x00\x00\x00\x00\x00'
p1924
tp1925
Rp1926
sa(dp1927
S'block.thisTrialN'
p1928
I0
sS'stim.thisTrialN'
p1929
I14
sS'block.thisRepN'
p1930
I1
sg1604
g1605
sS'stim.thisIndex'
p1931
g29
(g64
S'\x0e\x00\x00\x00'
p1932
tp1933
Rp1934
sg28
g38
sS'block.thisN'
p1935
I1
sS'stim.thisN'
p1936
I14
sg1612
g1613
sg1614
g1615
sg21
g22
sg26
g27
sS'trials.thisIndex'
p1937
g1619
sS'stim.thisRepN'
p1938
I0
sg23
g24
sg1621
VA
p1939
sS'trials.thisRepN'
p1940
I0
sS'trials.thisN'
p1941
I0
sg1624
g29
(g84
S'\x0f\x00\x00\x00\x00\x00\x00\x00'
p1942
tp1943
Rp1944
sg25
g11
sS'trials.thisTrialN'
p1945
I0
sS'block.thisIndex'
p1946
g1632
sg1633
g29
(g84
S'\x05\x00\x00\x00\x00\x00\x00\x00'
p1947
tp1948
Rp1949
sa(dp1950
S'block.thisTrialN'
p1951
I0
sS'stim.thisTrialN'
p1952
I15
sS'block.thisRepN'
p1953
I1
sg1604
g1605
sS'stim.thisIndex'
p1954
g29
(g64
S'\x0f\x00\x00\x00'
p1955
tp1956
Rp1957
sg28
g38
sS'block.thisN'
p1958
I1
sS'stim.thisN'
p1959
I15
sg1612
g1613
sg1614
g1615
sg21
g22
sg26
g27
sS'trials.thisIndex'
p1960
g1619
sS'stim.thisRepN'
p1961
I0
sg23
g24
sg1621
g409
sS'trials.thisRepN'
p1962
I0
sS'trials.thisN'
p1963
I0
sg1624
g29
(g84
S'\x10\x00\x00\x00\x00\x00\x00\x00'
p1964
tp1965
Rp1966
sg25
g11
sS'trials.thisTrialN'
p1967
I0
sS'block.thisIndex'
p1968
g1632
sg1633
g29
(g84
S'\x05\x00\x00\x00\x00\x00\x00\x00'
p1969
tp1970
Rp1971
sa(dp1972
S'block.thisTrialN'
p1973
I0
sS'block.thisRepN'
p1974
I1
sg16
S'6'
p1975
sS'trials.thisRepN'
p1976
I0
sg15
F1.134191160381306
sS'block.thisN'
p1977
I1
sg28
g38
sS'trials.thisN'
p1978
I0
sg14
g1975
sg25
g11
sS'trials.thisTrialN'
p1979
I0
sg26
g27
sS'trials.thisIndex'
p1980
g1619
sg21
g22
sg23
g24
sS'block.thisIndex'
p1981
g1632
sg17
F0.1676181019283831
sa(dp1982
S'block.thisTrialN'
p1983
I0
sS'stim.thisTrialN'
p1984
I0
sS'block.thisRepN'
p1985
I1
sS'Tx'
p1986
Vt2
p1987
sS'stim.thisIndex'
p1988
g29
(g64
S'\x00\x00\x00\x00'
p1989
tp1990
Rp1991
sg28
g38
sS'block.thisN'
p1992
I1
sS'stim.thisN'
p1993
I0
sS'sep_dur'
p1994
Vlong
p1995
sS'cond'
p1996
Vdistractor
p1997
sg21
g22
sg26
g27
sS'trials.thisIndex'
p1998
g29
(g64
S'\x00\x00\x00\x00'
p1999
tp2000
Rp2001
sS'stim.thisRepN'
p2002
I0
sg23
g24
sS'stimulus'
p2003
g1461
sS'trials.thisRepN'
p2004
I1
sS'trials.thisN'
p2005
I1
sS'trial'
p2006
g29
(g84
S'\x01\x00\x00\x00\x00\x00\x00\x00'
p2007
tp2008
Rp2009
sg25
g11
sS'trials.thisTrialN'
p2010
I0
sS'block.thisIndex'
p2011
g1632
sS'block'
p2012
g29
(g84
S'\x06\x00\x00\x00\x00\x00\x00\x00'
p2013
tp2014
Rp2015
sa(dp2016
S'block.thisTrialN'
p2017
I0
sS'stim.thisTrialN'
p2018
I1
sS'block.thisRepN'
p2019
I1
sg1986
g1987
sS'stim.thisIndex'
p2020
g29
(g64
S'\x01\x00\x00\x00'
p2021
tp2022
Rp2023
sg28
g38
sS'block.thisN'
p2024
I1
sS'stim.thisN'
p2025
I1
sg1994
g1995
sg1996
Vtarget
p2026
sg21
g22
sg26
g27
sS'trials.thisIndex'
p2027
g2001
sS'stim.thisRepN'
p2028
I0
sg23
g24
sg2003
g1672
sS'trials.thisRepN'
p2029
I1
sS'trials.thisN'
p2030
I1
sg2006
g29
(g84
S'\x02\x00\x00\x00\x00\x00\x00\x00'
p2031
tp2032
Rp2033
sg25
g11
sS'trials.thisTrialN'
p2034
I0
sS'block.thisIndex'
p2035
g1632
sg2012
g29
(g84
S'\x06\x00\x00\x00\x00\x00\x00\x00'
p2036
tp2037
Rp2038
sa(dp2039
S'block.thisTrialN'
p2040
I0
sS'stim.thisTrialN'
p2041
I2
sS'block.thisRepN'
p2042
I1
sg1986
g1987
sS'stim.thisIndex'
p2043
g29
(g64
S'\x02\x00\x00\x00'
p2044
tp2045
Rp2046
sg28
g38
sS'block.thisN'
p2047
I1
sS'stim.thisN'
p2048
I2
sg1994
g1995
sg1996
g1997
sg21
g22
sg26
g27
sS'trials.thisIndex'
p2049
g2001
sS'stim.thisRepN'
p2050
I0
sg23
g24
sg2003
g658
sS'trials.thisRepN'
p2051
I1
sS'trials.thisN'
p2052
I1
sg2006
g29
(g84
S'\x03\x00\x00\x00\x00\x00\x00\x00'
p2053
tp2054
Rp2055
sg25
g11
sS'trials.thisTrialN'
p2056
I0
sS'block.thisIndex'
p2057
g1632
sg2012
g29
(g84
S'\x06\x00\x00\x00\x00\x00\x00\x00'
p2058
tp2059
Rp2060
sa(dp2061
S'block.thisTrialN'
p2062
I0
sS'stim.thisTrialN'
p2063
I3
sS'block.thisRepN'
p2064
I1
sg1986
g1987
sS'stim.thisIndex'
p2065
g29
(g64
S'\x03\x00\x00\x00'
p2066
tp2067
Rp2068
sg28
g38
sS'block.thisN'
p2069
I1
sS'stim.thisN'
p2070
I3
sg1994
g1995
sg1996
g1997
sg21
g22
sg26
g27
sS'trials.thisIndex'
p2071
g2001
sS'stim.thisRepN'
p2072
I0
sg23
g24
sg2003
g318
sS'trials.thisRepN'
p2073
I1
sS'trials.thisN'
p2074
I1
sg2006
g29
(g84
S'\x04\x00\x00\x00\x00\x00\x00\x00'
p2075
tp2076
Rp2077
sg25
g11
sS'trials.thisTrialN'
p2078
I0
sS'block.thisIndex'
p2079
g1632
sg2012
g29
(g84
S'\x06\x00\x00\x00\x00\x00\x00\x00'
p2080
tp2081
Rp2082
sa(dp2083
S'block.thisTrialN'
p2084
I0
sS'stim.thisTrialN'
p2085
I4
sS'block.thisRepN'
p2086
I1
sg1986
g1987
sS'stim.thisIndex'
p2087
g29
(g64
S'\x04\x00\x00\x00'
p2088
tp2089
Rp2090
sg28
g38
sS'block.thisN'
p2091
I1
sS'stim.thisN'
p2092
I4
sg1994
g1995
sg1996
g1997
sg21
g22
sg26
g27
sS'trials.thisIndex'
p2093
g2001
sS'stim.thisRepN'
p2094
I0
sg23
g24
sg2003
g658
sS'trials.thisRepN'
p2095
I1
sS'trials.thisN'
p2096
I1
sg2006
g29
(g84
S'\x05\x00\x00\x00\x00\x00\x00\x00'
p2097
tp2098
Rp2099
sg25
g11
sS'trials.thisTrialN'
p2100
I0
sS'block.thisIndex'
p2101
g1632
sg2012
g29
(g84
S'\x06\x00\x00\x00\x00\x00\x00\x00'
p2102
tp2103
Rp2104
sa(dp2105
S'block.thisTrialN'
p2106
I0
sS'stim.thisTrialN'
p2107
I5
sS'block.thisRepN'
p2108
I1
sg1986
g1987
sS'stim.thisIndex'
p2109
g29
(g64
S'\x05\x00\x00\x00'
p2110
tp2111
Rp2112
sg28
g38
sS'block.thisN'
p2113
I1
sS'stim.thisN'
p2114
I5
sg1994
g1995
sg1996
g1997
sg21
g22
sg26
g27
sS'trials.thisIndex'
p2115
g2001
sS'stim.thisRepN'
p2116
I0
sg23
g24
sg2003
g134
sS'trials.thisRepN'
p2117
I1
sS'trials.thisN'
p2118
I1
sg2006
g29
(g84
S'\x06\x00\x00\x00\x00\x00\x00\x00'
p2119
tp2120
Rp2121
sg25
g11
sS'trials.thisTrialN'
p2122
I0
sS'block.thisIndex'
p2123
g1632
sg2012
g29
(g84
S'\x06\x00\x00\x00\x00\x00\x00\x00'
p2124
tp2125
Rp2126
sa(dp2127
S'block.thisTrialN'
p2128
I0
sS'stim.thisTrialN'
p2129
I6
sS'block.thisRepN'
p2130
I1
sg1986
g1987
sS'stim.thisIndex'
p2131
g29
(g64
S'\x06\x00\x00\x00'
p2132
tp2133
Rp2134
sg28
g38
sS'block.thisN'
p2135
I1
sS'stim.thisN'
p2136
I6
sg1994
g1995
sg1996
g1997
sg21
g22
sg26
g27
sS'trials.thisIndex'
p2137
g2001
sS'stim.thisRepN'
p2138
I0
sg23
g24
sg2003
g249
sS'trials.thisRepN'
p2139
I1
sS'trials.thisN'
p2140
I1
sg2006
g29
(g84
S'\x07\x00\x00\x00\x00\x00\x00\x00'
p2141
tp2142
Rp2143
sg25
g11
sS'trials.thisTrialN'
p2144
I0
sS'block.thisIndex'
p2145
g1632
sg2012
g29
(g84
S'\x06\x00\x00\x00\x00\x00\x00\x00'
p2146
tp2147
Rp2148
sa(dp2149
S'block.thisTrialN'
p2150
I0
sS'stim.thisTrialN'
p2151
I7
sS'block.thisRepN'
p2152
I1
sg1986
g1987
sS'stim.thisIndex'
p2153
g29
(g64
S'\x07\x00\x00\x00'
p2154
tp2155
Rp2156
sg28
g38
sS'block.thisN'
p2157
I1
sS'stim.thisN'
p2158
I7
sg1994
g1995
sg1996
g1997
sg21
g22
sg26
g27
sS'trials.thisIndex'
p2159
g2001
sS'stim.thisRepN'
p2160
I0
sg23
g24
sg2003
g272
sS'trials.thisRepN'
p2161
I1
sS'trials.thisN'
p2162
I1
sg2006
g29
(g84
S'\x08\x00\x00\x00\x00\x00\x00\x00'
p2163
tp2164
Rp2165
sg25
g11
sS'trials.thisTrialN'
p2166
I0
sS'block.thisIndex'
p2167
g1632
sg2012
g29
(g84
S'\x06\x00\x00\x00\x00\x00\x00\x00'
p2168
tp2169
Rp2170
sa(dp2171
S'block.thisTrialN'
p2172
I0
sS'stim.thisTrialN'
p2173
I8
sS'block.thisRepN'
p2174
I1
sg1986
g1987
sS'stim.thisIndex'
p2175
g29
(g64
S'\x08\x00\x00\x00'
p2176
tp2177
Rp2178
sg28
g38
sS'block.thisN'
p2179
I1
sS'stim.thisN'
p2180
I8
sg1994
g1995
sg1996
g1997
sg21
g22
sg26
g27
sS'trials.thisIndex'
p2181
g2001
sS'stim.thisRepN'
p2182
I0
sg23
g24
sg2003
g522
sS'trials.thisRepN'
p2183
I1
sS'trials.thisN'
p2184
I1
sg2006
g29
(g84
S'\t\x00\x00\x00\x00\x00\x00\x00'
p2185
tp2186
Rp2187
sg25
g11
sS'trials.thisTrialN'
p2188
I0
sS'block.thisIndex'
p2189
g1632
sg2012
g29
(g84
S'\x06\x00\x00\x00\x00\x00\x00\x00'
p2190
tp2191
Rp2192
sa(dp2193
S'block.thisTrialN'
p2194
I0
sS'stim.thisTrialN'
p2195
I9
sS'block.thisRepN'
p2196
I1
sg1986
g1987
sS'stim.thisIndex'
p2197
g29
(g64
S'\t\x00\x00\x00'
p2198
tp2199
Rp2200
sg28
g38
sS'block.thisN'
p2201
I1
sS'stim.thisN'
p2202
I9
sg1994
g1995
sg1996
g1997
sg21
g22
sg26
g27
sS'trials.thisIndex'
p2203
g2001
sS'stim.thisRepN'
p2204
I0
sg23
g24
sg2003
g363
sS'trials.thisRepN'
p2205
I1
sS'trials.thisN'
p2206
I1
sg2006
g29
(g84
S'\n\x00\x00\x00\x00\x00\x00\x00'
p2207
tp2208
Rp2209
sg25
g11
sS'trials.thisTrialN'
p2210
I0
sS'block.thisIndex'
p2211
g1632
sg2012
g29
(g84
S'\x06\x00\x00\x00\x00\x00\x00\x00'
p2212
tp2213
Rp2214
sa(dp2215
S'block.thisTrialN'
p2216
I0
sS'stim.thisTrialN'
p2217
I10
sS'block.thisRepN'
p2218
I1
sg1986
g1987
sS'stim.thisIndex'
p2219
g29
(g64
S'\n\x00\x00\x00'
p2220
tp2221
Rp2222
sg28
g38
sS'block.thisN'
p2223
I1
sS'stim.thisN'
p2224
I10
sg1994
g1995
sg1996
g2026
sg21
g22
sg26
g27
sS'trials.thisIndex'
p2225
g2001
sS'stim.thisRepN'
p2226
I0
sg23
g24
sg2003
g971
sS'trials.thisRepN'
p2227
I1
sS'trials.thisN'
p2228
I1
sg2006
g29
(g84
S'\x0b\x00\x00\x00\x00\x00\x00\x00'
p2229
tp2230
Rp2231
sg25
g11
sS'trials.thisTrialN'
p2232
I0
sS'block.thisIndex'
p2233
g1632
sg2012
g29
(g84
S'\x06\x00\x00\x00\x00\x00\x00\x00'
p2234
tp2235
Rp2236
sa(dp2237
S'block.thisTrialN'
p2238
I0
sS'stim.thisTrialN'
p2239
I11
sS'block.thisRepN'
p2240
I1
sg1986
g1987
sS'stim.thisIndex'
p2241
g29
(g64
S'\x0b\x00\x00\x00'
p2242
tp2243
Rp2244
sg28
g38
sS'block.thisN'
p2245
I1
sS'stim.thisN'
p2246
I11
sg1994
g1995
sg1996
g1997
sg21
g22
sg26
g27
sS'trials.thisIndex'
p2247
g2001
sS'stim.thisRepN'
p2248
I0
sg23
g24
sg2003
g295
sS'trials.thisRepN'
p2249
I1
sS'trials.thisN'
p2250
I1
sg2006
g29
(g84
S'\x0c\x00\x00\x00\x00\x00\x00\x00'
p2251
tp2252
Rp2253
sg25
g11
sS'trials.thisTrialN'
p2254
I0
sS'block.thisIndex'
p2255
g1632
sg2012
g29
(g84
S'\x06\x00\x00\x00\x00\x00\x00\x00'
p2256
tp2257
Rp2258
sa(dp2259
S'block.thisTrialN'
p2260
I0
sS'stim.thisTrialN'
p2261
I12
sS'block.thisRepN'
p2262
I1
sg1986
g1987
sS'stim.thisIndex'
p2263
g29
(g64
S'\x0c\x00\x00\x00'
p2264
tp2265
Rp2266
sg28
g38
sS'block.thisN'
p2267
I1
sS'stim.thisN'
p2268
I12
sg1994
g1995
sg1996
g1997
sg21
g22
sg26
g27
sS'trials.thisIndex'
p2269
g2001
sS'stim.thisRepN'
p2270
I0
sg23
g24
sg2003
g157
sS'trials.thisRepN'
p2271
I1
sS'trials.thisN'
p2272
I1
sg2006
g29
(g84
S'\r\x00\x00\x00\x00\x00\x00\x00'
p2273
tp2274
Rp2275
sg25
g11
sS'trials.thisTrialN'
p2276
I0
sS'block.thisIndex'
p2277
g1632
sg2012
g29
(g84
S'\x06\x00\x00\x00\x00\x00\x00\x00'
p2278
tp2279
Rp2280
sa(dp2281
S'block.thisTrialN'
p2282
I0
sS'stim.thisTrialN'
p2283
I13
sS'block.thisRepN'
p2284
I1
sg1986
g1987
sS'stim.thisIndex'
p2285
g29
(g64
S'\r\x00\x00\x00'
p2286
tp2287
Rp2288
sg28
g38
sS'block.thisN'
p2289
I1
sS'stim.thisN'
p2290
I13
sg1994
g1995
sg1996
g1997
sg21
g22
sg26
g27
sS'trials.thisIndex'
p2291
g2001
sS'stim.thisRepN'
p2292
I0
sg23
g24
sg2003
g1507
sS'trials.thisRepN'
p2293
I1
sS'trials.thisN'
p2294
I1
sg2006
g29
(g84
S'\x0e\x00\x00\x00\x00\x00\x00\x00'
p2295
tp2296
Rp2297
sg25
g11
sS'trials.thisTrialN'
p2298
I0
sS'block.thisIndex'
p2299
g1632
sg2012
g29
(g84
S'\x06\x00\x00\x00\x00\x00\x00\x00'
p2300
tp2301
Rp2302
sa(dp2303
S'block.thisTrialN'
p2304
I0
sS'stim.thisTrialN'
p2305
I14
sS'block.thisRepN'
p2306
I1
sg1986
g1987
sS'stim.thisIndex'
p2307
g29
(g64
S'\x0e\x00\x00\x00'
p2308
tp2309
Rp2310
sg28
g38
sS'block.thisN'
p2311
I1
sS'stim.thisN'
p2312
I14
sg1994
g1995
sg1996
g1997
sg21
g22
sg26
g27
sS'trials.thisIndex'
p2313
g2001
sS'stim.thisRepN'
p2314
I0
sg23
g24
sg2003
g522
sS'trials.thisRepN'
p2315
I1
sS'trials.thisN'
p2316
I1
sg2006
g29
(g84
S'\x0f\x00\x00\x00\x00\x00\x00\x00'
p2317
tp2318
Rp2319
sg25
g11
sS'trials.thisTrialN'
p2320
I0
sS'block.thisIndex'
p2321
g1632
sg2012
g29
(g84
S'\x06\x00\x00\x00\x00\x00\x00\x00'
p2322
tp2323
Rp2324
sa(dp2325
S'block.thisTrialN'
p2326
I0
sS'stim.thisTrialN'
p2327
I15
sS'block.thisRepN'
p2328
I1
sg1986
g1987
sS'stim.thisIndex'
p2329
g29
(g64
S'\x0f\x00\x00\x00'
p2330
tp2331
Rp2332
sg28
g38
sS'block.thisN'
p2333
I1
sS'stim.thisN'
p2334
I15
sg1994
g1995
sg1996
g1997
sg21
g22
sg26
g27
sS'trials.thisIndex'
p2335
g2001
sS'stim.thisRepN'
p2336
I0
sg23
g24
sg2003
g1939
sS'trials.thisRepN'
p2337
I1
sS'trials.thisN'
p2338
I1
sg2006
g29
(g84
S'\x10\x00\x00\x00\x00\x00\x00\x00'
p2339
tp2340
Rp2341
sg25
g11
sS'trials.thisTrialN'
p2342
I0
sS'block.thisIndex'
p2343
g1632
sg2012
g29
(g84
S'\x06\x00\x00\x00\x00\x00\x00\x00'
p2344
tp2345
Rp2346
sa(dp2347
S'block.thisTrialN'
p2348
I0
sS'stim.thisTrialN'
p2349
I16
sS'block.thisRepN'
p2350
I1
sg1986
g1987
sS'stim.thisIndex'
p2351
g29
(g64
S'\x10\x00\x00\x00'
p2352
tp2353
Rp2354
sg28
g38
sS'block.thisN'
p2355
I1
sS'stim.thisN'
p2356
I16
sg1994
g1995
sg1996
g1997
sg21
g22
sg26
g27
sS'trials.thisIndex'
p2357
g2001
sS'stim.thisRepN'
p2358
I0
sg23
g24
sg2003
g318
sS'trials.thisRepN'
p2359
I1
sS'trials.thisN'
p2360
I1
sg2006
g29
(g84
S'\x11\x00\x00\x00\x00\x00\x00\x00'
p2361
tp2362
Rp2363
sg25
g11
sS'trials.thisTrialN'
p2364
I0
sS'block.thisIndex'
p2365
g1632
sg2012
g29
(g84
S'\x06\x00\x00\x00\x00\x00\x00\x00'
p2366
tp2367
Rp2368
sa(dp2369
S'block.thisTrialN'
p2370
I0
sS'block.thisRepN'
p2371
I1
sg16
g1163
sS'trials.thisRepN'
p2372
I1
sg15
F0.4171747075743042
sS'block.thisN'
p2373
I1
sg28
g38
sS'trials.thisN'
p2374
I1
sg14
g1975
sg25
g11
sS'trials.thisTrialN'
p2375
I0
sg26
g27
sS'trials.thisIndex'
p2376
g2001
sg21
g22
sg23
g24
sS'block.thisIndex'
p2377
g1632
sg17
F0.10067452187649906
sa(dp2378
S'block.thisTrialN'
p2379
I0
sS'stim.thisTrialN'
p2380
I0
sS'block.thisRepN'
p2381
I1
sS'Tx'
p2382
Vt2
p2383
sS'stim.thisIndex'
p2384
g29
(g64
S'\x00\x00\x00\x00'
p2385
tp2386
Rp2387
sg28
g38
sS'block.thisN'
p2388
I1
sS'stim.thisN'
p2389
I0
sS'sep_dur'
p2390
Vlong
p2391
sS'cond'
p2392
Vtarget
p2393
sg21
g22
sg26
g27
sS'trials.thisIndex'
p2394
g29
(g64
S'\x00\x00\x00\x00'
p2395
tp2396
Rp2397
sS'stim.thisRepN'
p2398
I0
sg23
g24
sS'stimulus'
p2399
g612
sS'trials.thisRepN'
p2400
I2
sS'trials.thisN'
p2401
I2
sS'trial'
p2402
g29
(g84
S'\x01\x00\x00\x00\x00\x00\x00\x00'
p2403
tp2404
Rp2405
sg25
g11
sS'trials.thisTrialN'
p2406
I0
sS'block.thisIndex'
p2407
g1632
sS'block'
p2408
g29
(g84
S'\x07\x00\x00\x00\x00\x00\x00\x00'
p2409
tp2410
Rp2411
sa(dp2412
S'block.thisTrialN'
p2413
I0
sS'stim.thisTrialN'
p2414
I1
sS'block.thisRepN'
p2415
I1
sg2382
g2383
sS'stim.thisIndex'
p2416
g29
(g64
S'\x01\x00\x00\x00'
p2417
tp2418
Rp2419
sg28
g38
sS'block.thisN'
p2420
I1
sS'stim.thisN'
p2421
I1
sg2390
g2391
sg2392
Vdistractor
p2422
sg21
g22
sg26
g27
sS'trials.thisIndex'
p2423
g2397
sS'stim.thisRepN'
p2424
I0
sg23
g24
sg2399
g1507
sS'trials.thisRepN'
p2425
I2
sS'trials.thisN'
p2426
I2
sg2402
g29
(g84
S'\x02\x00\x00\x00\x00\x00\x00\x00'
p2427
tp2428
Rp2429
sg25
g11
sS'trials.thisTrialN'
p2430
I0
sS'block.thisIndex'
p2431
g1632
sg2408
g29
(g84
S'\x07\x00\x00\x00\x00\x00\x00\x00'
p2432
tp2433
Rp2434
sa(dp2435
S'block.thisTrialN'
p2436
I0
sS'stim.thisTrialN'
p2437
I2
sS'block.thisRepN'
p2438
I1
sg2382
g2383
sS'stim.thisIndex'
p2439
g29
(g64
S'\x02\x00\x00\x00'
p2440
tp2441
Rp2442
sg28
g38
sS'block.thisN'
p2443
I1
sS'stim.thisN'
p2444
I2
sg2390
g2391
sg2392
g2422
sg21
g22
sg26
g27
sS'trials.thisIndex'
p2445
g2397
sS'stim.thisRepN'
p2446
I0
sg23
g24
sg2399
g134
sS'trials.thisRepN'
p2447
I2
sS'trials.thisN'
p2448
I2
sg2402
g29
(g84
S'\x03\x00\x00\x00\x00\x00\x00\x00'
p2449
tp2450
Rp2451
sg25
g11
sS'trials.thisTrialN'
p2452
I0
sS'block.thisIndex'
p2453
g1632
sg2408
g29
(g84
S'\x07\x00\x00\x00\x00\x00\x00\x00'
p2454
tp2455
Rp2456
sa(dp2457
S'block.thisTrialN'
p2458
I0
sS'stim.thisTrialN'
p2459
I3
sS'block.thisRepN'
p2460
I1
sg2382
g2383
sS'stim.thisIndex'
p2461
g29
(g64
S'\x03\x00\x00\x00'
p2462
tp2463
Rp2464
sg28
g38
sS'block.thisN'
p2465
I1
sS'stim.thisN'
p2466
I3
sg2390
g2391
sg2392
g2422
sg21
g22
sg26
g27
sS'trials.thisIndex'
p2467
g2397
sS'stim.thisRepN'
p2468
I0
sg23
g24
sg2399
g1461
sS'trials.thisRepN'
p2469
I2
sS'trials.thisN'
p2470
I2
sg2402
g29
(g84
S'\x04\x00\x00\x00\x00\x00\x00\x00'
p2471
tp2472
Rp2473
sg25
g11
sS'trials.thisTrialN'
p2474
I0
sS'block.thisIndex'
p2475
g1632
sg2408
g29
(g84
S'\x07\x00\x00\x00\x00\x00\x00\x00'
p2476
tp2477
Rp2478
sa(dp2479
S'block.thisTrialN'
p2480
I0
sS'stim.thisTrialN'
p2481
I4
sS'block.thisRepN'
p2482
I1
sg2382
g2383
sS'stim.thisIndex'
p2483
g29
(g64
S'\x04\x00\x00\x00'
p2484
tp2485
Rp2486
sg28
g38
sS'block.thisN'
p2487
I1
sS'stim.thisN'
p2488
I4
sg2390
g2391
sg2392
g2422
sg21
g22
sg26
g27
sS'trials.thisIndex'
p2489
g2397
sS'stim.thisRepN'
p2490
I0
sg23
g24
sg2399
g703
sS'trials.thisRepN'
p2491
I2
sS'trials.thisN'
p2492
I2
sg2402
g29
(g84
S'\x05\x00\x00\x00\x00\x00\x00\x00'
p2493
tp2494
Rp2495
sg25
g11
sS'trials.thisTrialN'
p2496
I0
sS'block.thisIndex'
p2497
g1632
sg2408
g29
(g84
S'\x07\x00\x00\x00\x00\x00\x00\x00'
p2498
tp2499
Rp2500
sa(dp2501
S'block.thisTrialN'
p2502
I0
sS'stim.thisTrialN'
p2503
I5
sS'block.thisRepN'
p2504
I1
sg2382
g2383
sS'stim.thisIndex'
p2505
g29
(g64
S'\x05\x00\x00\x00'
p2506
tp2507
Rp2508
sg28
g38
sS'block.thisN'
p2509
I1
sS'stim.thisN'
p2510
I5
sg2390
g2391
sg2392
g2422
sg21
g22
sg26
g27
sS'trials.thisIndex'
p2511
g2397
sS'stim.thisRepN'
p2512
I0
sg23
g24
sg2399
g522
sS'trials.thisRepN'
p2513
I2
sS'trials.thisN'
p2514
I2
sg2402
g29
(g84
S'\x06\x00\x00\x00\x00\x00\x00\x00'
p2515
tp2516
Rp2517
sg25
g11
sS'trials.thisTrialN'
p2518
I0
sS'block.thisIndex'
p2519
g1632
sg2408
g29
(g84
S'\x07\x00\x00\x00\x00\x00\x00\x00'
p2520
tp2521
Rp2522
sa(dp2523
S'block.thisTrialN'
p2524
I0
sS'stim.thisTrialN'
p2525
I6
sS'block.thisRepN'
p2526
I1
sg2382
g2383
sS'stim.thisIndex'
p2527
g29
(g64
S'\x06\x00\x00\x00'
p2528
tp2529
Rp2530
sg28
g38
sS'block.thisN'
p2531
I1
sS'stim.thisN'
p2532
I6
sg2390
g2391
sg2392
g2422
sg21
g22
sg26
g27
sS'trials.thisIndex'
p2533
g2397
sS'stim.thisRepN'
p2534
I0
sg23
g24
sg2399
g522
sS'trials.thisRepN'
p2535
I2
sS'trials.thisN'
p2536
I2
sg2402
g29
(g84
S'\x07\x00\x00\x00\x00\x00\x00\x00'
p2537
tp2538
Rp2539
sg25
g11
sS'trials.thisTrialN'
p2540
I0
sS'block.thisIndex'
p2541
g1632
sg2408
g29
(g84
S'\x07\x00\x00\x00\x00\x00\x00\x00'
p2542
tp2543
Rp2544
sa(dp2545
S'block.thisTrialN'
p2546
I0
sS'stim.thisTrialN'
p2547
I7
sS'block.thisRepN'
p2548
I1
sg2382
g2383
sS'stim.thisIndex'
p2549
g29
(g64
S'\x07\x00\x00\x00'
p2550
tp2551
Rp2552
sg28
g38
sS'block.thisN'
p2553
I1
sS'stim.thisN'
p2554
I7
sg2390
g2391
sg2392
g2422
sg21
g22
sg26
g27
sS'trials.thisIndex'
p2555
g2397
sS'stim.thisRepN'
p2556
I0
sg23
g24
sg2399
g180
sS'trials.thisRepN'
p2557
I2
sS'trials.thisN'
p2558
I2
sg2402
g29
(g84
S'\x08\x00\x00\x00\x00\x00\x00\x00'
p2559
tp2560
Rp2561
sg25
g11
sS'trials.thisTrialN'
p2562
I0
sS'block.thisIndex'
p2563
g1632
sg2408
g29
(g84
S'\x07\x00\x00\x00\x00\x00\x00\x00'
p2564
tp2565
Rp2566
sa(dp2567
S'block.thisTrialN'
p2568
I0
sS'stim.thisTrialN'
p2569
I8
sS'block.thisRepN'
p2570
I1
sg2382
g2383
sS'stim.thisIndex'
p2571
g29
(g64
S'\x08\x00\x00\x00'
p2572
tp2573
Rp2574
sg28
g38
sS'block.thisN'
p2575
I1
sS'stim.thisN'
p2576
I8
sg2390
g2391
sg2392
g2422
sg21
g22
sg26
g27
sS'trials.thisIndex'
p2577
g2397
sS'stim.thisRepN'
p2578
I0
sg23
g24
sg2399
g386
sS'trials.thisRepN'
p2579
I2
sS'trials.thisN'
p2580
I2
sg2402
g29
(g84
S'\t\x00\x00\x00\x00\x00\x00\x00'
p2581
tp2582
Rp2583
sg25
g11
sS'trials.thisTrialN'
p2584
I0
sS'block.thisIndex'
p2585
g1632
sg2408
g29
(g84
S'\x07\x00\x00\x00\x00\x00\x00\x00'
p2586
tp2587
Rp2588
sa(dp2589
S'block.thisTrialN'
p2590
I0
sS'stim.thisTrialN'
p2591
I9
sS'block.thisRepN'
p2592
I1
sg2382
g2383
sS'stim.thisIndex'
p2593
g29
(g64
S'\t\x00\x00\x00'
p2594
tp2595
Rp2596
sg28
g38
sS'block.thisN'
p2597
I1
sS'stim.thisN'
p2598
I9
sg2390
g2391
sg2392
g2393
sg21
g22
sg26
g27
sS'trials.thisIndex'
p2599
g2397
sS'stim.thisRepN'
p2600
I0
sg23
g24
sg2399
g612
sS'trials.thisRepN'
p2601
I2
sS'trials.thisN'
p2602
I2
sg2402
g29
(g84
S'\n\x00\x00\x00\x00\x00\x00\x00'
p2603
tp2604
Rp2605
sg25
g11
sS'trials.thisTrialN'
p2606
I0
sS'block.thisIndex'
p2607
g1632
sg2408
g29
(g84
S'\x07\x00\x00\x00\x00\x00\x00\x00'
p2608
tp2609
Rp2610
sa(dp2611
S'block.thisTrialN'
p2612
I0
sS'stim.thisTrialN'
p2613
I10
sS'block.thisRepN'
p2614
I1
sg2382
g2383
sS'stim.thisIndex'
p2615
g29
(g64
S'\n\x00\x00\x00'
p2616
tp2617
Rp2618
sg28
g38
sS'block.thisN'
p2619
I1
sS'stim.thisN'
p2620
I10
sg2390
g2391
sg2392
g2422
sg21
g22
sg26
g27
sS'trials.thisIndex'
p2621
g2397
sS'stim.thisRepN'
p2622
I0
sg23
g24
sg2399
VT
p2623
sS'trials.thisRepN'
p2624
I2
sS'trials.thisN'
p2625
I2
sg2402
g29
(g84
S'\x0b\x00\x00\x00\x00\x00\x00\x00'
p2626
tp2627
Rp2628
sg25
g11
sS'trials.thisTrialN'
p2629
I0
sS'block.thisIndex'
p2630
g1632
sg2408
g29
(g84
S'\x07\x00\x00\x00\x00\x00\x00\x00'
p2631
tp2632
Rp2633
sa(dp2634
S'block.thisTrialN'
p2635
I0
sS'stim.thisTrialN'
p2636
I11
sS'block.thisRepN'
p2637
I1
sg2382
g2383
sS'stim.thisIndex'
p2638
g29
(g64
S'\x0b\x00\x00\x00'
p2639
tp2640
Rp2641
sg28
g38
sS'block.thisN'
p2642
I1
sS'stim.thisN'
p2643
I11
sg2390
g2391
sg2392
g2422
sg21
g22
sg26
g27
sS'trials.thisIndex'
p2644
g2397
sS'stim.thisRepN'
p2645
I0
sg23
g24
sg2399
g1507
sS'trials.thisRepN'
p2646
I2
sS'trials.thisN'
p2647
I2
sg2402
g29
(g84
S'\x0c\x00\x00\x00\x00\x00\x00\x00'
p2648
tp2649
Rp2650
sg25
g11
sS'trials.thisTrialN'
p2651
I0
sS'block.thisIndex'
p2652
g1632
sg2408
g29
(g84
S'\x07\x00\x00\x00\x00\x00\x00\x00'
p2653
tp2654
Rp2655
sa(dp2656
S'block.thisTrialN'
p2657
I0
sS'stim.thisTrialN'
p2658
I12
sS'block.thisRepN'
p2659
I1
sg2382
g2383
sS'stim.thisIndex'
p2660
g29
(g64
S'\x0c\x00\x00\x00'
p2661
tp2662
Rp2663
sg28
g38
sS'block.thisN'
p2664
I1
sS'stim.thisN'
p2665
I12
sg2390
g2391
sg2392
g2422
sg21
g22
sg26
g27
sS'trials.thisIndex'
p2666
g2397
sS'stim.thisRepN'
p2667
I0
sg23
g24
sg2399
g1484
sS'trials.thisRepN'
p2668
I2
sS'trials.thisN'
p2669
I2
sg2402
g29
(g84
S'\r\x00\x00\x00\x00\x00\x00\x00'
p2670
tp2671
Rp2672
sg25
g11
sS'trials.thisTrialN'
p2673
I0
sS'block.thisIndex'
p2674
g1632
sg2408
g29
(g84
S'\x07\x00\x00\x00\x00\x00\x00\x00'
p2675
tp2676
Rp2677
sa(dp2678
S'block.thisTrialN'
p2679
I0
sS'stim.thisTrialN'
p2680
I13
sS'block.thisRepN'
p2681
I1
sg2382
g2383
sS'stim.thisIndex'
p2682
g29
(g64
S'\r\x00\x00\x00'
p2683
tp2684
Rp2685
sg28
g38
sS'block.thisN'
p2686
I1
sS'stim.thisN'
p2687
I13
sg2390
g2391
sg2392
g2422
sg21
g22
sg26
g27
sS'trials.thisIndex'
p2688
g2397
sS'stim.thisRepN'
p2689
I0
sg23
g24
sg2399
g813
sS'trials.thisRepN'
p2690
I2
sS'trials.thisN'
p2691
I2
sg2402
g29
(g84
S'\x0e\x00\x00\x00\x00\x00\x00\x00'
p2692
tp2693
Rp2694
sg25
g11
sS'trials.thisTrialN'
p2695
I0
sS'block.thisIndex'
p2696
g1632
sg2408
g29
(g84
S'\x07\x00\x00\x00\x00\x00\x00\x00'
p2697
tp2698
Rp2699
sa(dp2700
S'block.thisTrialN'
p2701
I0
sS'stim.thisTrialN'
p2702
I14
sS'block.thisRepN'
p2703
I1
sg2382
g2383
sS'stim.thisIndex'
p2704
g29
(g64
S'\x0e\x00\x00\x00'
p2705
tp2706
Rp2707
sg28
g38
sS'block.thisN'
p2708
I1
sS'stim.thisN'
p2709
I14
sg2390
g2391
sg2392
g2422
sg21
g22
sg26
g27
sS'trials.thisIndex'
p2710
g2397
sS'stim.thisRepN'
p2711
I0
sg23
g24
sg2399
g318
sS'trials.thisRepN'
p2712
I2
sS'trials.thisN'
p2713
I2
sg2402
g29
(g84
S'\x0f\x00\x00\x00\x00\x00\x00\x00'
p2714
tp2715
Rp2716
sg25
g11
sS'trials.thisTrialN'
p2717
I0
sS'block.thisIndex'
p2718
g1632
sg2408
g29
(g84
S'\x07\x00\x00\x00\x00\x00\x00\x00'
p2719
tp2720
Rp2721
sa(dp2722
S'block.thisTrialN'
p2723
I0
sS'block.thisRepN'
p2724
I1
sg16
g784
sS'trials.thisRepN'
p2725
I2
sg15
F0.3504803398391232
sS'block.thisN'
p2726
I1
sg28
g38
sS'trials.thisN'
p2727
I2
sg14
g784
sg25
g11
sS'trials.thisTrialN'
p2728
I0
sg26
g27
sS'trials.thisIndex'
p2729
g2397
sg21
g22
sg23
g24
sS'block.thisIndex'
p2730
g1632
sg17
F0.16787167795700952
sa(dp2731
S'block.thisTrialN'
p2732
I0
sS'stim.thisTrialN'
p2733
I0
sS'block.thisRepN'
p2734
I1
sS'Tx'
p2735
Vt1
p2736
sS'stim.thisIndex'
p2737
g29
(g64
S'\x00\x00\x00\x00'
p2738
tp2739
Rp2740
sg28
g38
sS'block.thisN'
p2741
I1
sS'stim.thisN'
p2742
I0
sS'sep_dur'
p2743
Vshort
p2744
sS'cond'
p2745
Vdistractor
p2746
sg21
g22
sg26
g27
sS'trials.thisIndex'
p2747
g29
(g64
S'\x00\x00\x00\x00'
p2748
tp2749
Rp2750
sS'stim.thisRepN'
p2751
I0
sg23
g24
sS'stimulus'
p2752
g295
sS'trials.thisRepN'
p2753
I3
sS'trials.thisN'
p2754
I3
sS'trial'
p2755
g29
(g84
S'\x01\x00\x00\x00\x00\x00\x00\x00'
p2756
tp2757
Rp2758
sg25
g11
sS'trials.thisTrialN'
p2759
I0
sS'block.thisIndex'
p2760
g1632
sS'block'
p2761
g29
(g84
S'\x08\x00\x00\x00\x00\x00\x00\x00'
p2762
tp2763
Rp2764
sa(dp2765
S'block.thisTrialN'
p2766
I0
sS'stim.thisTrialN'
p2767
I1
sS'block.thisRepN'
p2768
I1
sg2735
g2736
sS'stim.thisIndex'
p2769
g29
(g64
S'\x01\x00\x00\x00'
p2770
tp2771
Rp2772
sg28
g38
sS'block.thisN'
p2773
I1
sS'stim.thisN'
p2774
I1
sg2743
g2744
sg2745
g2746
sg21
g22
sg26
g27
sS'trials.thisIndex'
p2775
g2750
sS'stim.thisRepN'
p2776
I0
sg23
g24
sg2752
g318
sS'trials.thisRepN'
p2777
I3
sS'trials.thisN'
p2778
I3
sg2755
g29
(g84
S'\x02\x00\x00\x00\x00\x00\x00\x00'
p2779
tp2780
Rp2781
sg25
g11
sS'trials.thisTrialN'
p2782
I0
sS'block.thisIndex'
p2783
g1632
sg2761
g29
(g84
S'\x08\x00\x00\x00\x00\x00\x00\x00'
p2784
tp2785
Rp2786
sa(dp2787
S'block.thisTrialN'
p2788
I0
sS'stim.thisTrialN'
p2789
I2
sS'block.thisRepN'
p2790
I1
sg2735
g2736
sS'stim.thisIndex'
p2791
g29
(g64
S'\x02\x00\x00\x00'
p2792
tp2793
Rp2794
sg28
g38
sS'block.thisN'
p2795
I1
sS'stim.thisN'
p2796
I2
sg2743
g2744
sg2745
g2746
sg21
g22
sg26
g27
sS'trials.thisIndex'
p2797
g2750
sS'stim.thisRepN'
p2798
I0
sg23
g24
sg2752
g180
sS'trials.thisRepN'
p2799
I3
sS'trials.thisN'
p2800
I3
sg2755
g29
(g84
S'\x03\x00\x00\x00\x00\x00\x00\x00'
p2801
tp2802
Rp2803
sg25
g11
sS'trials.thisTrialN'
p2804
I0
sS'block.thisIndex'
p2805
g1632
sg2761
g29
(g84
S'\x08\x00\x00\x00\x00\x00\x00\x00'
p2806
tp2807
Rp2808
sa(dp2809
S'block.thisTrialN'
p2810
I0
sS'stim.thisTrialN'
p2811
I3
sS'block.thisRepN'
p2812
I1
sg2735
g2736
sS'stim.thisIndex'
p2813
g29
(g64
S'\x03\x00\x00\x00'
p2814
tp2815
Rp2816
sg28
g38
sS'block.thisN'
p2817
I1
sS'stim.thisN'
p2818
I3
sg2743
g2744
sg2745
Vtarget
p2819
sg21
g22
sg26
g27
sS'trials.thisIndex'
p2820
g2750
sS'stim.thisRepN'
p2821
I0
sg23
g24
sg2752
V4
p2822
sS'trials.thisRepN'
p2823
I3
sS'trials.thisN'
p2824
I3
sg2755
g29
(g84
S'\x04\x00\x00\x00\x00\x00\x00\x00'
p2825
tp2826
Rp2827
sg25
g11
sS'trials.thisTrialN'
p2828
I0
sS'block.thisIndex'
p2829
g1632
sg2761
g29
(g84
S'\x08\x00\x00\x00\x00\x00\x00\x00'
p2830
tp2831
Rp2832
sa(dp2833
S'block.thisTrialN'
p2834
I0
sS'stim.thisTrialN'
p2835
I4
sS'block.thisRepN'
p2836
I1
sg2735
g2736
sS'stim.thisIndex'
p2837
g29
(g64
S'\x04\x00\x00\x00'
p2838
tp2839
Rp2840
sg28
g38
sS'block.thisN'
p2841
I1
sS'stim.thisN'
p2842
I4
sg2743
g2744
sg2745
g2746
sg21
g22
sg26
g27
sS'trials.thisIndex'
p2843
g2750
sS'stim.thisRepN'
p2844
I0
sg23
g24
sg2752
g1507
sS'trials.thisRepN'
p2845
I3
sS'trials.thisN'
p2846
I3
sg2755
g29
(g84
S'\x05\x00\x00\x00\x00\x00\x00\x00'
p2847
tp2848
Rp2849
sg25
g11
sS'trials.thisTrialN'
p2850
I0
sS'block.thisIndex'
p2851
g1632
sg2761
g29
(g84
S'\x08\x00\x00\x00\x00\x00\x00\x00'
p2852
tp2853
Rp2854
sa(dp2855
S'block.thisTrialN'
p2856
I0
sS'stim.thisTrialN'
p2857
I5
sS'block.thisRepN'
p2858
I1
sg2735
g2736
sS'stim.thisIndex'
p2859
g29
(g64
S'\x05\x00\x00\x00'
p2860
tp2861
Rp2862
sg28
g38
sS'block.thisN'
p2863
I1
sS'stim.thisN'
p2864
I5
sg2743
g2744
sg2745
g2746
sg21
g22
sg26
g27
sS'trials.thisIndex'
p2865
g2750
sS'stim.thisRepN'
p2866
I0
sg23
g24
sg2752
g363
sS'trials.thisRepN'
p2867
I3
sS'trials.thisN'
p2868
I3
sg2755
g29
(g84
S'\x06\x00\x00\x00\x00\x00\x00\x00'
p2869
tp2870
Rp2871
sg25
g11
sS'trials.thisTrialN'
p2872
I0
sS'block.thisIndex'
p2873
g1632
sg2761
g29
(g84
S'\x08\x00\x00\x00\x00\x00\x00\x00'
p2874
tp2875
Rp2876
sa(dp2877
S'block.thisTrialN'
p2878
I0
sS'stim.thisTrialN'
p2879
I6
sS'block.thisRepN'
p2880
I1
sg2735
g2736
sS'stim.thisIndex'
p2881
g29
(g64
S'\x06\x00\x00\x00'
p2882
tp2883
Rp2884
sg28
g38
sS'block.thisN'
p2885
I1
sS'stim.thisN'
p2886
I6
sg2743
g2744
sg2745
g2746
sg21
g22
sg26
g27
sS'trials.thisIndex'
p2887
g2750
sS'stim.thisRepN'
p2888
I0
sg23
g24
sg2752
g157
sS'trials.thisRepN'
p2889
I3
sS'trials.thisN'
p2890
I3
sg2755
g29
(g84
S'\x07\x00\x00\x00\x00\x00\x00\x00'
p2891
tp2892
Rp2893
sg25
g11
sS'trials.thisTrialN'
p2894
I0
sS'block.thisIndex'
p2895
g1632
sg2761
g29
(g84
S'\x08\x00\x00\x00\x00\x00\x00\x00'
p2896
tp2897
Rp2898
sa(dp2899
S'block.thisTrialN'
p2900
I0
sS'stim.thisTrialN'
p2901
I7
sS'block.thisRepN'
p2902
I1
sg2735
g2736
sS'stim.thisIndex'
p2903
g29
(g64
S'\x07\x00\x00\x00'
p2904
tp2905
Rp2906
sg28
g38
sS'block.thisN'
p2907
I1
sS'stim.thisN'
p2908
I7
sg2743
g2744
sg2745
g2746
sg21
g22
sg26
g27
sS'trials.thisIndex'
p2909
g2750
sS'stim.thisRepN'
p2910
I0
sg23
g24
sg2752
g249
sS'trials.thisRepN'
p2911
I3
sS'trials.thisN'
p2912
I3
sg2755
g29
(g84
S'\x08\x00\x00\x00\x00\x00\x00\x00'
p2913
tp2914
Rp2915
sg25
g11
sS'trials.thisTrialN'
p2916
I0
sS'block.thisIndex'
p2917
g1632
sg2761
g29
(g84
S'\x08\x00\x00\x00\x00\x00\x00\x00'
p2918
tp2919
Rp2920
sa(dp2921
S'block.thisTrialN'
p2922
I0
sS'stim.thisTrialN'
p2923
I8
sS'block.thisRepN'
p2924
I1
sg2735
g2736
sS'stim.thisIndex'
p2925
g29
(g64
S'\x08\x00\x00\x00'
p2926
tp2927
Rp2928
sg28
g38
sS'block.thisN'
p2929
I1
sS'stim.thisN'
p2930
I8
sg2743
g2744
sg2745
Vmask
p2931
sg21
g22
sg26
g27
sS'trials.thisIndex'
p2932
g2750
sS'stim.thisRepN'
p2933
I0
sg23
g24
sg2752
g226
sS'trials.thisRepN'
p2934
I3
sS'trials.thisN'
p2935
I3
sg2755
g29
(g84
S'\t\x00\x00\x00\x00\x00\x00\x00'
p2936
tp2937
Rp2938
sg25
g11
sS'trials.thisTrialN'
p2939
I0
sS'block.thisIndex'
p2940
g1632
sg2761
g29
(g84
S'\x08\x00\x00\x00\x00\x00\x00\x00'
p2941
tp2942
Rp2943
sa(dp2944
S'block.thisTrialN'
p2945
I0
sS'stim.thisTrialN'
p2946
I9
sS'block.thisRepN'
p2947
I1
sg2735
g2736
sS'stim.thisIndex'
p2948
g29
(g64
S'\t\x00\x00\x00'
p2949
tp2950
Rp2951
sg28
g38
sS'block.thisN'
p2952
I1
sS'stim.thisN'
p2953
I9
sg2743
g2744
sg2745
g2746
sg21
g22
sg26
g27
sS'trials.thisIndex'
p2954
g2750
sS'stim.thisRepN'
p2955
I0
sg23
g24
sg2752
g1484
sS'trials.thisRepN'
p2956
I3
sS'trials.thisN'
p2957
I3
sg2755
g29
(g84
S'\n\x00\x00\x00\x00\x00\x00\x00'
p2958
tp2959
Rp2960
sg25
g11
sS'trials.thisTrialN'
p2961
I0
sS'block.thisIndex'
p2962
g1632
sg2761
g29
(g84
S'\x08\x00\x00\x00\x00\x00\x00\x00'
p2963
tp2964
Rp2965
sa(dp2966
S'block.thisTrialN'
p2967
I0
sS'stim.thisTrialN'
p2968
I10
sS'block.thisRepN'
p2969
I1
sg2735
g2736
sS'stim.thisIndex'
p2970
g29
(g64
S'\n\x00\x00\x00'
p2971
tp2972
Rp2973
sg28
g38
sS'block.thisN'
p2974
I1
sS'stim.thisN'
p2975
I10
sg2743
g2744
sg2745
g2746
sg21
g22
sg26
g27
sS'trials.thisIndex'
p2976
g2750
sS'stim.thisRepN'
p2977
I0
sg23
g24
sg2752
g703
sS'trials.thisRepN'
p2978
I3
sS'trials.thisN'
p2979
I3
sg2755
g29
(g84
S'\x0b\x00\x00\x00\x00\x00\x00\x00'
p2980
tp2981
Rp2982
sg25
g11
sS'trials.thisTrialN'
p2983
I0
sS'block.thisIndex'
p2984
g1632
sg2761
g29
(g84
S'\x08\x00\x00\x00\x00\x00\x00\x00'
p2985
tp2986
Rp2987
sa(dp2988
S'block.thisTrialN'
p2989
I0
sS'stim.thisTrialN'
p2990
I11
sS'block.thisRepN'
p2991
I1
sg2735
g2736
sS'stim.thisIndex'
p2992
g29
(g64
S'\x0b\x00\x00\x00'
p2993
tp2994
Rp2995
sg28
g38
sS'block.thisN'
p2996
I1
sS'stim.thisN'
p2997
I11
sg2743
g2744
sg2745
g2746
sg21
g22
sg26
g27
sS'trials.thisIndex'
p2998
g2750
sS'stim.thisRepN'
p2999
I0
sg23
g24
sg2752
g2623
sS'trials.thisRepN'
p3000
I3
sS'trials.thisN'
p3001
I3
sg2755
g29
(g84
S'\x0c\x00\x00\x00\x00\x00\x00\x00'
p3002
tp3003
Rp3004
sg25
g11
sS'trials.thisTrialN'
p3005
I0
sS'block.thisIndex'
p3006
g1632
sg2761
g29
(g84
S'\x08\x00\x00\x00\x00\x00\x00\x00'
p3007
tp3008
Rp3009
sa(dp3010
S'block.thisTrialN'
p3011
I0
sS'stim.thisTrialN'
p3012
I12
sS'block.thisRepN'
p3013
I1
sg2735
g2736
sS'stim.thisIndex'
p3014
g29
(g64
S'\x0c\x00\x00\x00'
p3015
tp3016
Rp3017
sg28
g38
sS'block.thisN'
p3018
I1
sS'stim.thisN'
p3019
I12
sg2743
g2744
sg2745
g2746
sg21
g22
sg26
g27
sS'trials.thisIndex'
p3020
g2750
sS'stim.thisRepN'
p3021
I0
sg23
g24
sg2752
g386
sS'trials.thisRepN'
p3022
I3
sS'trials.thisN'
p3023
I3
sg2755
g29
(g84
S'\r\x00\x00\x00\x00\x00\x00\x00'
p3024
tp3025
Rp3026
sg25
g11
sS'trials.thisTrialN'
p3027
I0
sS'block.thisIndex'
p3028
g1632
sg2761
g29
(g84
S'\x08\x00\x00\x00\x00\x00\x00\x00'
p3029
tp3030
Rp3031
sa(dp3032
S'block.thisTrialN'
p3033
I0
sS'stim.thisTrialN'
p3034
I13
sS'block.thisRepN'
p3035
I1
sg2735
g2736
sS'stim.thisIndex'
p3036
g29
(g64
S'\r\x00\x00\x00'
p3037
tp3038
Rp3039
sg28
g38
sS'block.thisN'
p3040
I1
sS'stim.thisN'
p3041
I13
sg2743
g2744
sg2745
g2746
sg21
g22
sg26
g27
sS'trials.thisIndex'
p3042
g2750
sS'stim.thisRepN'
p3043
I0
sg23
g24
sg2752
g477
sS'trials.thisRepN'
p3044
I3
sS'trials.thisN'
p3045
I3
sg2755
g29
(g84
S'\x0e\x00\x00\x00\x00\x00\x00\x00'
p3046
tp3047
Rp3048
sg25
g11
sS'trials.thisTrialN'
p3049
I0
sS'block.thisIndex'
p3050
g1632
sg2761
g29
(g84
S'\x08\x00\x00\x00\x00\x00\x00\x00'
p3051
tp3052
Rp3053
sa(dp3054
S'block.thisTrialN'
p3055
I0
sS'stim.thisTrialN'
p3056
I14
sS'block.thisRepN'
p3057
I1
sg2735
g2736
sS'stim.thisIndex'
p3058
g29
(g64
S'\x0e\x00\x00\x00'
p3059
tp3060
Rp3061
sg28
g38
sS'block.thisN'
p3062
I1
sS'stim.thisN'
p3063
I14
sg2743
g2744
sg2745
g2746
sg21
g22
sg26
g27
sS'trials.thisIndex'
p3064
g2750
sS'stim.thisRepN'
p3065
I0
sg23
g24
sg2752
g409
sS'trials.thisRepN'
p3066
I3
sS'trials.thisN'
p3067
I3
sg2755
g29
(g84
S'\x0f\x00\x00\x00\x00\x00\x00\x00'
p3068
tp3069
Rp3070
sg25
g11
sS'trials.thisTrialN'
p3071
I0
sS'block.thisIndex'
p3072
g1632
sg2761
g29
(g84
S'\x08\x00\x00\x00\x00\x00\x00\x00'
p3073
tp3074
Rp3075
sa(dp3076
S'block.thisTrialN'
p3077
I0
sS'stim.thisTrialN'
p3078
I15
sS'block.thisRepN'
p3079
I1
sg2735
g2736
sS'stim.thisIndex'
p3080
g29
(g64
S'\x0f\x00\x00\x00'
p3081
tp3082
Rp3083
sg28
g38
sS'block.thisN'
p3084
I1
sS'stim.thisN'
p3085
I15
sg2743
g2744
sg2745
g2746
sg21
g22
sg26
g27
sS'trials.thisIndex'
p3086
g2750
sS'stim.thisRepN'
p3087
I0
sg23
g24
sg2752
g452
sS'trials.thisRepN'
p3088
I3
sS'trials.thisN'
p3089
I3
sg2755
g29
(g84
S'\x10\x00\x00\x00\x00\x00\x00\x00'
p3090
tp3091
Rp3092
sg25
g11
sS'trials.thisTrialN'
p3093
I0
sS'block.thisIndex'
p3094
g1632
sg2761
g29
(g84
S'\x08\x00\x00\x00\x00\x00\x00\x00'
p3095
tp3096
Rp3097
sa(dp3098
S'block.thisTrialN'
p3099
I0
sS'stim.thisTrialN'
p3100
I16
sS'block.thisRepN'
p3101
I1
sg2735
g2736
sS'stim.thisIndex'
p3102
g29
(g64
S'\x10\x00\x00\x00'
p3103
tp3104
Rp3105
sg28
g38
sS'block.thisN'
p3106
I1
sS'stim.thisN'
p3107
I16
sg2743
g2744
sg2745
g2746
sg21
g22
sg26
g27
sS'trials.thisIndex'
p3108
g2750
sS'stim.thisRepN'
p3109
I0
sg23
g24
sg2752
g813
sS'trials.thisRepN'
p3110
I3
sS'trials.thisN'
p3111
I3
sg2755
g29
(g84
S'\x11\x00\x00\x00\x00\x00\x00\x00'
p3112
tp3113
Rp3114
sg25
g11
sS'trials.thisTrialN'
p3115
I0
sS'block.thisIndex'
p3116
g1632
sg2761
g29
(g84
S'\x08\x00\x00\x00\x00\x00\x00\x00'
p3117
tp3118
Rp3119
sa(dp3120
S'block.thisTrialN'
p3121
I0
sS'stim.thisTrialN'
p3122
I17
sS'block.thisRepN'
p3123
I1
sg2735
g2736
sS'stim.thisIndex'
p3124
g29
(g64
S'\x11\x00\x00\x00'
p3125
tp3126
Rp3127
sg28
g38
sS'block.thisN'
p3128
I1
sS'stim.thisN'
p3129
I17
sg2743
g2744
sg2745
g2746
sg21
g22
sg26
g27
sS'trials.thisIndex'
p3130
g2750
sS'stim.thisRepN'
p3131
I0
sg23
g24
sg2752
g1461
sS'trials.thisRepN'
p3132
I3
sS'trials.thisN'
p3133
I3
sg2755
g29
(g84
S'\x12\x00\x00\x00\x00\x00\x00\x00'
p3134
tp3135
Rp3136
sg25
g11
sS'trials.thisTrialN'
p3137
I0
sS'block.thisIndex'
p3138
g1632
sg2761
g29
(g84
S'\x08\x00\x00\x00\x00\x00\x00\x00'
p3139
tp3140
Rp3141
sa(dp3142
S'block.thisTrialN'
p3143
I0
sS'block.thisRepN'
p3144
I1
sg16
g1588
sS'trials.thisRepN'
p3145
I3
sg15
F0.8680793872335926
sS'block.thisN'
p3146
I1
sg28
g38
sS'trials.thisN'
p3147
I3
sg14
g1588
sg25
g11
sS'trials.thisTrialN'
p3148
I0
sg26
g27
sS'trials.thisIndex'
p3149
g2750
sg21
g22
sg23
g24
sS'block.thisIndex'
p3150
g1632
sg17
F0.15128935885149986
sa(dp3151
S'block.thisTrialN'
p3152
I0
sS'block.thisRepN'
p3153
I1
sg28
g38
sS'block.thisN'
p3154
I1
sg25
g11
sg26
g27
sg21
g22
sg23
g24
sS'block.thisIndex'
p3155
g1632
sasS'loops'
p3156
(lp3157
g0
(cpsychopy.data.trial
TrialHandler
p3158
g2
Ntp3159
Rp3160
(dp3161
S'origin'
p3162
NsS'thisTrial'
p3163
(lp3164
sS'_exp'
p3165
I553726256
sg10
S'block'
p3166
sg6
I-1
sS'thisRepN'
p3167
I2
sg18
I01
sg19
g20
sS'data'
p3168
g0
(cpsychopy.data.base
DataHandler
p3169
c__builtin__
dict
p3170
(dp3171
S'ran'
p3172
cnumpy.ma.core
_mareconstruct
p3173
(cnumpy.ma.core
MaskedArray
p3174
cnumpy
ndarray
p3175
(I0
tp3176
S'b'
p3177
tp3178
Rp3179
(I1
(I1
I2
tp3180
g30
(S'f4'
p3181
I0
I1
tp3182
Rp3183
(I3
S'<'
p3184
NNNI-1
I-1
I0
tp3185
bI00
S'\x00\x00\x80?\x00\x00\x80?'
p3186
S'\x00\x00'
p3187
Ntp3188
bsS'order'
p3189
g3173
(g3174
g3175
g3176
g3177
tp3190
Rp3191
(I1
(I1
I2
tp3192
g3183
I00
S'\x00\x00\x00\x00\x00\x00\x80?'
p3193
S'\x00\x00'
p3194
Ntp3195
bstp3196
Rp3197
(dp3198
S'isNumeric'
p3199
(dp3200
g3172
I01
sg3189
I01
ssS'trials'
p3201
g3160
sS'dataTypes'
p3202
(lp3203
g3172
ag3189
asS'dataShape'
p3204
(lp3205
I1
aI2
asbsS'method'
p3206
S'random'
p3207
sS'sequenceIndices'
p3208
cnumpy.core.multiarray
_reconstruct
p3209
(g3175
(I0
tp3210
g3177
tp3211
Rp3212
(I1
(I1
I2
tp3213
g64
I00
S'\x00\x00\x00\x00\x00\x00\x00\x00'
p3214
tp3215
bsS'finished'
p3216
I01
sS'nReps'
p3217
I2
sS'nRemaining'
p3218
I-1
sS'trialList'
p3219
(lp3220
NasS'seed'
p3221
NsS'thisIndex'
p3222
g1632
sS'thisN'
p3223
I2
sS'thisTrialN'
p3224
I0
sS'nTotal'
p3225
I2
sbag0
(g3158
g2
Ntp3226
Rp3227
(dp3228
g3162
Nsg3163
(lp3229
sg3165
I553726256
sg10
g3201
sg6
I-1
sg3167
I4
sg18
I01
sg19
g20
sg3168
g0
(g3169
g3170
(dp3230
g14
g3209
(g3175
(I0
tp3231
g3177
tp3232
Rp3233
(I1
(I1
I4
tp3234
g30
(S'O4'
p3235
I0
I1
tp3236
Rp3237
(I3
S'|'
p3238
NNNI-1
I-1
I63
tp3239
bI00
(lp3240
g423
ag784
ag1163
ag1588
atp3241
bsg16
g3209
(g3175
(I0
tp3242
g3177
tp3243
Rp3244
(I1
(I1
I4
tp3245
g3237
I00
(lp3246
g423
ag784
ag1163
ag1588
atp3247
bsg3172
g3173
(g3174
g3175
g3176
g3177
tp3248
Rp3249
(I1
(I1
I4
tp3250
g3183
I00
S'\x00\x00\x80?\x00\x00\x80?\x00\x00\x80?\x00\x00\x80?'
p3251
S'\x00\x00\x00\x00'
p3252
Ntp3253
bsg15
g3173
(g3174
g3175
g3176
g3177
tp3254
Rp3255
(I1
(I1
I4
tp3256
g3183
I00
S'\xc2\x99\xcc=\xc65P=y\xf8\xab=\x93ZS>'
p3257
S'\x00\x00\x00\x00'
p3258
Ntp3259
bsg3189
g3173
(g3174
g3175
g3176
g3177
tp3260
Rp3261
(I1
(I1
I4
tp3262
g3183
I00
S'\x00\x00\x00\x00\x00\x00\x80?\x00\x00\x00@\x00\x00@@'
p3263
S'\x00\x00\x00\x00'
p3264
Ntp3265
bsg17
g3173
(g3174
g3175
g3176
g3177
tp3266
Rp3267
(I1
(I1
I4
tp3268
g3183
I00
S'\xf4G*>o\xee+>o\xf2;>\xc3\r\xe5?'
p3269
S'\x00\x00\x00\x00'
p3270
Ntp3271
bstp3272
Rp3273
(dp3274
g3199
(dp3275
g16
I00
sg3172
I01
sg15
I01
sg14
I00
sg3189
I01
sg17
I01
ssg3201
g3227
sg3202
(lp3276
g3172
ag3189
ag14
ag15
ag16
ag17
asg3204
(lp3277
I1
aI4
asbsg3206
S'sequential'
p3278
sg3208
g3209
(g3175
(I0
tp3279
g3177
tp3280
Rp3281
(I1
(I1
I4
tp3282
g64
I00
S'\x00\x00\x00\x00\x00\x00\x00\x00\x00\x00\x00\x00\x00\x00\x00\x00'
p3283
tp3284
bsg3216
I01
sg3217
I4
sg3218
I-1
sg3219
(lp3285
Nasg3221
Nsg3222
g1189
sg3223
I4
sg3224
I0
sg3225
I4
sbag0
(g3158
g2
Ntp3286
Rp3287
(dp3288
g3162
Nsg3163
(lp3289
sg3165
I553726256
sg10
S'stim'
p3290
sg6
I-1
sg3167
I1
sg18
I01
sg19
g20
sg3168
g0
(g3169
g3170
(dp3291
g3172
g3173
(g3174
g3175
g3176
g3177
tp3292
Rp3293
(I1
(I15
I1
tp3294
g3183
I00
S'\x00\x00\x80?\x00\x00\x80?\x00\x00\x80?\x00\x00\x80?\x00\x00\x80?\x00\x00\x80?\x00\x00\x80?\x00\x00\x80?\x00\x00\x80?\x00\x00\x80?\x00\x00\x80?\x00\x00\x80?\x00\x00\x80?\x00\x00\x80?\x00\x00\x80?'
p3295
S'\x00\x00\x00\x00\x00\x00\x00\x00\x00\x00\x00\x00\x00\x00\x00'
p3296
Ntp3297
bsg3189
g3173
(g3174
g3175
g3176
g3177
tp3298
Rp3299
(I1
(I15
I1
tp3300
g3183
I00
S'\x00\x00\x00\x00\x00\x00\x80?\x00\x00\x00@\x00\x00@@\x00\x00\x80@\x00\x00\xa0@\x00\x00\xc0@\x00\x00\xe0@\x00\x00\x00A\x00\x00\x10A\x00\x00 A\x00\x000A\x00\x00@A\x00\x00PA\x00\x00`A'
p3301
S'\x00\x00\x00\x00\x00\x00\x00\x00\x00\x00\x00\x00\x00\x00\x00'
p3302
Ntp3303
bstp3304
Rp3305
(dp3306
g3199
(dp3307
g3172
I01
sg3189
I01
ssg3201
g3287
sg3202
(lp3308
g3172
ag3189
asg3204
(lp3309
I15
aI1
asbsg3206
g3278
sg3208
g3209
(g3175
(I0
tp3310
g3177
tp3311
Rp3312
(I1
(I15
I1
tp3313
g64
I00
S'\x00\x00\x00\x00\x01\x00\x00\x00\x02\x00\x00\x00\x03\x00\x00\x00\x04\x00\x00\x00\x05\x00\x00\x00\x06\x00\x00\x00\x07\x00\x00\x00\x08\x00\x00\x00\t\x00\x00\x00\n\x00\x00\x00\x0b\x00\x00\x00\x0c\x00\x00\x00\r\x00\x00\x00\x0e\x00\x00\x00'
p3314
tp3315
bsg3216
I01
sg3217
I1
sg3218
I-1
sg3219
(lp3316
ccollections
OrderedDict
p3317
((lp3318
(lp3319
g48
ag97
aa(lp3320
g49
ag72
aa(lp3321
g50
ag60
aa(lp3322
g51
ag89
aa(lp3323
g52
ag79
aa(lp3324
g53
ag73
aatp3325
Rp3326
ag3317
((lp3327
(lp3328
g48
ag121
aa(lp3329
g49
ag72
aa(lp3330
g50
ag60
aa(lp3331
g51
ag116
aa(lp3332
g52
ag111
aa(lp3333
g53
ag108
aatp3334
Rp3335
ag3317
((lp3336
(lp3337
g48
ag144
aa(lp3338
g49
ag72
aa(lp3339
g50
ag60
aa(lp3340
g51
ag139
aa(lp3341
g52
ag134
aa(lp3342
g53
ag73
aatp3343
Rp3344
ag3317
((lp3345
(lp3346
g48
ag167
aa(lp3347
g49
ag72
aa(lp3348
g50
ag60
aa(lp3349
g51
ag162
aa(lp3350
g52
ag157
aa(lp3351
g53
ag73
aatp3352
Rp3353
ag3317
((lp3354
(lp3355
g48
ag190
aa(lp3356
g49
ag72
aa(lp3357
g50
ag60
aa(lp3358
g51
ag185
aa(lp3359
g52
ag180
aa(lp3360
g53
ag73
aatp3361
Rp3362
ag3317
((lp3363
(lp3364
g48
ag212
aa(lp3365
g49
ag72
aa(lp3366
g50
ag60
aa(lp3367
g51
ag207
aa(lp3368
g52
ag157
aa(lp3369
g53
ag73
aatp3370
Rp3371
ag3317
((lp3372
(lp3373
g48
ag236
aa(lp3374
g49
ag72
aa(lp3375
g50
ag60
aa(lp3376
g51
ag231
aa(lp3377
g52
ag226
aa(lp3378
g53
ag223
aatp3379
Rp3380
ag3317
((lp3381
(lp3382
g48
ag259
aa(lp3383
g49
ag72
aa(lp3384
g50
ag60
aa(lp3385
g51
ag254
aa(lp3386
g52
ag249
aa(lp3387
g53
ag73
aatp3388
Rp3389
ag3317
((lp3390
(lp3391
g48
ag282
aa(lp3392
g49
ag72
aa(lp3393
g50
ag60
aa(lp3394
g51
ag277
aa(lp3395
g52
ag272
aa(lp3396
g53
ag73
aatp3397
Rp3398
ag3317
((lp3399
(lp3400
g48
ag305
aa(lp3401
g49
ag72
aa(lp3402
g50
ag60
aa(lp3403
g51
ag300
aa(lp3404
g52
ag295
aa(lp3405
g53
ag73
aatp3406
Rp3407
ag3317
((lp3408
(lp3409
g48
ag328
aa(lp3410
g49
ag72
aa(lp3411
g50
ag60
aa(lp3412
g51
ag323
aa(lp3413
g52
ag318
aa(lp3414
g53
ag73
aatp3415
Rp3416
ag3317
((lp3417
(lp3418
g48
ag350
aa(lp3419
g49
ag72
aa(lp3420
g50
ag60
aa(lp3421
g51
ag345
aa(lp3422
g52
ag180
aa(lp3423
g53
ag73
aatp3424
Rp3425
ag3317
((lp3426
(lp3427
g48
ag373
aa(lp3428
g49
ag72
aa(lp3429
g50
ag60
aa(lp3430
g51
ag368
aa(lp3431
g52
ag363
aa(lp3432
g53
ag73
aatp3433
Rp3434
ag3317
((lp3435
(lp3436
g48
ag396
aa(lp3437
g49
ag72
aa(lp3438
g50
ag60
aa(lp3439
g51
ag391
aa(lp3440
g52
ag386
aa(lp3441
g53
ag73
aatp3442
Rp3443
ag3317
((lp3444
(lp3445
g48
ag419
aa(lp3446
g49
ag72
aa(lp3447
g50
ag60
aa(lp3448
g51
ag414
aa(lp3449
g52
ag409
aa(lp3450
g53
ag73
aatp3451
Rp3452
asg3221
Nsg3222
g404
sg3223
I15
sg3224
I0
sg3225
I15
sbag0
(g3158
g2
Ntp3453
Rp3454
(dp3455
g3162
Nsg3163
(lp3456
sg3165
I553726256
sg10
g3290
sg6
I-1
sg3167
I1
sg18
I01
sg19
g20
sg3168
g0
(g3169
g3170
(dp3457
g3172
g3173
(g3174
g3175
g3176
g3177
tp3458
Rp3459
(I1
(I15
I1
tp3460
g3183
I00
S'\x00\x00\x80?\x00\x00\x80?\x00\x00\x80?\x00\x00\x80?\x00\x00\x80?\x00\x00\x80?\x00\x00\x80?\x00\x00\x80?\x00\x00\x80?\x00\x00\x80?\x00\x00\x80?\x00\x00\x80?\x00\x00\x80?\x00\x00\x80?\x00\x00\x80?'
p3461
S'\x00\x00\x00\x00\x00\x00\x00\x00\x00\x00\x00\x00\x00\x00\x00'
p3462
Ntp3463
bsg3189
g3173
(g3174
g3175
g3176
g3177
tp3464
Rp3465
(I1
(I15
I1
tp3466
g3183
I00
S'\x00\x00\x00\x00\x00\x00\x80?\x00\x00\x00@\x00\x00@@\x00\x00\x80@\x00\x00\xa0@\x00\x00\xc0@\x00\x00\xe0@\x00\x00\x00A\x00\x00\x10A\x00\x00 A\x00\x000A\x00\x00@A\x00\x00PA\x00\x00`A'
p3467
S'\x00\x00\x00\x00\x00\x00\x00\x00\x00\x00\x00\x00\x00\x00\x00'
p3468
Ntp3469
bstp3470
Rp3471
(dp3472
g3199
(dp3473
g3172
I01
sg3189
I01
ssg3201
g3454
sg3202
(lp3474
g3172
ag3189
asg3204
(lp3475
I15
aI1
asbsg3206
g3278
sg3208
g3209
(g3175
(I0
tp3476
g3177
tp3477
Rp3478
(I1
(I15
I1
tp3479
g64
I00
S'\x00\x00\x00\x00\x01\x00\x00\x00\x02\x00\x00\x00\x03\x00\x00\x00\x04\x00\x00\x00\x05\x00\x00\x00\x06\x00\x00\x00\x07\x00\x00\x00\x08\x00\x00\x00\t\x00\x00\x00\n\x00\x00\x00\x0b\x00\x00\x00\x0c\x00\x00\x00\r\x00\x00\x00\x0e\x00\x00\x00'
p3480
tp3481
bsg3216
I01
sg3217
I1
sg3218
I-1
sg3219
(lp3482
g3317
((lp3483
(lp3484
g461
ag464
aa(lp3485
g442
ag443
aa(lp3486
g434
ag435
aa(lp3487
g455
ag458
aa(lp3488
g451
ag452
aa(lp3489
g444
ag445
aatp3490
Rp3491
ag3317
((lp3492
(lp3493
g461
ag487
aa(lp3494
g442
ag443
aa(lp3495
g434
ag435
aa(lp3496
g455
ag482
aa(lp3497
g451
ag477
aa(lp3498
g444
ag445
aatp3499
Rp3500
ag3317
((lp3501
(lp3502
g461
ag509
aa(lp3503
g442
ag443
aa(lp3504
g434
ag435
aa(lp3505
g455
ag504
aa(lp3506
g451
ag409
aa(lp3507
g444
ag445
aatp3508
Rp3509
ag3317
((lp3510
(lp3511
g461
ag532
aa(lp3512
g442
ag443
aa(lp3513
g434
ag435
aa(lp3514
g455
ag527
aa(lp3515
g451
ag522
aa(lp3516
g444
ag445
aatp3517
Rp3518
ag3317
((lp3519
(lp3520
g461
ag554
aa(lp3521
g442
ag443
aa(lp3522
g434
ag435
aa(lp3523
g455
ag549
aa(lp3524
g451
ag79
aa(lp3525
g444
ag445
aatp3526
Rp3527
ag3317
((lp3528
(lp3529
g461
ag576
aa(lp3530
g442
ag443
aa(lp3531
g434
ag435
aa(lp3532
g455
ag571
aa(lp3533
g451
ag409
aa(lp3534
g444
ag445
aatp3535
Rp3536
ag3317
((lp3537
(lp3538
g461
ag598
aa(lp3539
g442
ag443
aa(lp3540
g434
ag435
aa(lp3541
g455
ag593
aa(lp3542
g451
ag477
aa(lp3543
g444
ag445
aatp3544
Rp3545
ag3317
((lp3546
(lp3547
g461
ag622
aa(lp3548
g442
ag443
aa(lp3549
g434
ag435
aa(lp3550
g455
ag617
aa(lp3551
g451
ag612
aa(lp3552
g444
ag609
aatp3553
Rp3554
ag3317
((lp3555
(lp3556
g461
ag645
aa(lp3557
g442
ag443
aa(lp3558
g434
ag435
aa(lp3559
g455
ag640
aa(lp3560
g451
ag635
aa(lp3561
g444
ag445
aatp3562
Rp3563
ag3317
((lp3564
(lp3565
g461
ag668
aa(lp3566
g442
ag443
aa(lp3567
g434
ag435
aa(lp3568
g455
ag663
aa(lp3569
g451
ag658
aa(lp3570
g444
ag445
aatp3571
Rp3572
ag3317
((lp3573
(lp3574
g461
ag690
aa(lp3575
g442
ag443
aa(lp3576
g434
ag435
aa(lp3577
g455
ag685
aa(lp3578
g451
ag477
aa(lp3579
g444
ag445
aatp3580
Rp3581
ag3317
((lp3582
(lp3583
g461
ag713
aa(lp3584
g442
ag443
aa(lp3585
g434
ag435
aa(lp3586
g455
ag708
aa(lp3587
g451
ag703
aa(lp3588
g444
ag445
aatp3589
Rp3590
ag3317
((lp3591
(lp3592
g461
ag736
aa(lp3593
g442
ag443
aa(lp3594
g434
ag435
aa(lp3595
g455
ag731
aa(lp3596
g451
ag226
aa(lp3597
g444
ag724
aatp3598
Rp3599
ag3317
((lp3600
(lp3601
g461
ag758
aa(lp3602
g442
ag443
aa(lp3603
g434
ag435
aa(lp3604
g455
ag753
aa(lp3605
g451
ag180
aa(lp3606
g444
ag445
aatp3607
Rp3608
ag3317
((lp3609
(lp3610
g461
ag780
aa(lp3611
g442
ag443
aa(lp3612
g434
ag435
aa(lp3613
g455
ag775
aa(lp3614
g451
ag295
aa(lp3615
g444
ag445
aatp3616
Rp3617
asg3221
Nsg3222
g766
sg3223
I15
sg3224
I0
sg3225
I15
sbag0
(g3158
g2
Ntp3618
Rp3619
(dp3620
g3162
Nsg3163
(lp3621
sg3165
I553726256
sg10
g3290
sg6
I-1
sg3167
I1
sg18
I01
sg19
g20
sg3168
g0
(g3169
g3170
(dp3622
g3172
g3173
(g3174
g3175
g3176
g3177
tp3623
Rp3624
(I1
(I16
I1
tp3625
g3183
I00
S'\x00\x00\x80?\x00\x00\x80?\x00\x00\x80?\x00\x00\x80?\x00\x00\x80?\x00\x00\x80?\x00\x00\x80?\x00\x00\x80?\x00\x00\x80?\x00\x00\x80?\x00\x00\x80?\x00\x00\x80?\x00\x00\x80?\x00\x00\x80?\x00\x00\x80?\x00\x00\x80?'
p3626
S'\x00\x00\x00\x00\x00\x00\x00\x00\x00\x00\x00\x00\x00\x00\x00\x00'
p3627
Ntp3628
bsg3189
g3173
(g3174
g3175
g3176
g3177
tp3629
Rp3630
(I1
(I16
I1
tp3631
g3183
I00
S'\x00\x00\x00\x00\x00\x00\x80?\x00\x00\x00@\x00\x00@@\x00\x00\x80@\x00\x00\xa0@\x00\x00\xc0@\x00\x00\xe0@\x00\x00\x00A\x00\x00\x10A\x00\x00 A\x00\x000A\x00\x00@A\x00\x00PA\x00\x00`A\x00\x00pA'
p3632
S'\x00\x00\x00\x00\x00\x00\x00\x00\x00\x00\x00\x00\x00\x00\x00\x00'
p3633
Ntp3634
bstp3635
Rp3636
(dp3637
g3199
(dp3638
g3172
I01
sg3189
I01
ssg3201
g3619
sg3202
(lp3639
g3172
ag3189
asg3204
(lp3640
I16
aI1
asbsg3206
g3278
sg3208
g3209
(g3175
(I0
tp3641
g3177
tp3642
Rp3643
(I1
(I16
I1
tp3644
g64
I00
S'\x00\x00\x00\x00\x01\x00\x00\x00\x02\x00\x00\x00\x03\x00\x00\x00\x04\x00\x00\x00\x05\x00\x00\x00\x06\x00\x00\x00\x07\x00\x00\x00\x08\x00\x00\x00\t\x00\x00\x00\n\x00\x00\x00\x0b\x00\x00\x00\x0c\x00\x00\x00\r\x00\x00\x00\x0e\x00\x00\x00\x0f\x00\x00\x00'
p3645
tp3646
bsg3216
I01
sg3217
I1
sg3218
I-1
sg3219
(lp3647
g3317
((lp3648
(lp3649
g822
ag825
aa(lp3650
g803
ag804
aa(lp3651
g795
ag796
aa(lp3652
g816
ag819
aa(lp3653
g812
ag813
aa(lp3654
g805
ag806
aatp3655
Rp3656
ag3317
((lp3657
(lp3658
g822
ag847
aa(lp3659
g803
ag804
aa(lp3660
g795
ag796
aa(lp3661
g816
ag842
aa(lp3662
g812
ag295
aa(lp3663
g805
ag806
aatp3664
Rp3665
ag3317
((lp3666
(lp3667
g822
ag869
aa(lp3668
g803
ag804
aa(lp3669
g795
ag796
aa(lp3670
g816
ag864
aa(lp3671
g812
ag272
aa(lp3672
g805
ag806
aatp3673
Rp3674
ag3317
((lp3675
(lp3676
g822
ag891
aa(lp3677
g803
ag804
aa(lp3678
g795
ag796
aa(lp3679
g816
ag886
aa(lp3680
g812
ag180
aa(lp3681
g805
ag806
aatp3682
Rp3683
ag3317
((lp3684
(lp3685
g822
ag913
aa(lp3686
g803
ag804
aa(lp3687
g795
ag796
aa(lp3688
g816
ag908
aa(lp3689
g812
ag386
aa(lp3690
g805
ag806
aatp3691
Rp3692
ag3317
((lp3693
(lp3694
g822
ag935
aa(lp3695
g803
ag804
aa(lp3696
g795
ag796
aa(lp3697
g816
ag930
aa(lp3698
g812
ag386
aa(lp3699
g805
ag806
aatp3700
Rp3701
ag3317
((lp3702
(lp3703
g822
ag957
aa(lp3704
g803
ag804
aa(lp3705
g795
ag796
aa(lp3706
g816
ag952
aa(lp3707
g812
ag79
aa(lp3708
g805
ag806
aatp3709
Rp3710
ag3317
((lp3711
(lp3712
g822
ag981
aa(lp3713
g803
ag804
aa(lp3714
g795
ag796
aa(lp3715
g816
ag976
aa(lp3716
g812
ag971
aa(lp3717
g805
ag968
aatp3718
Rp3719
ag3317
((lp3720
(lp3721
g822
ag1004
aa(lp3722
g803
ag804
aa(lp3723
g795
ag796
aa(lp3724
g816
ag999
aa(lp3725
g812
ag994
aa(lp3726
g805
ag806
aatp3727
Rp3728
ag3317
((lp3729
(lp3730
g822
ag1026
aa(lp3731
g803
ag804
aa(lp3732
g795
ag796
aa(lp3733
g816
ag1021
aa(lp3734
g812
ag635
aa(lp3735
g805
ag806
aatp3736
Rp3737
ag3317
((lp3738
(lp3739
g822
ag1048
aa(lp3740
g803
ag804
aa(lp3741
g795
ag796
aa(lp3742
g816
ag1043
aa(lp3743
g812
ag994
aa(lp3744
g805
ag806
aatp3745
Rp3746
ag3317
((lp3747
(lp3748
g822
ag1070
aa(lp3749
g803
ag804
aa(lp3750
g795
ag796
aa(lp3751
g816
ag1065
aa(lp3752
g812
ag295
aa(lp3753
g805
ag806
aatp3754
Rp3755
ag3317
((lp3756
(lp3757
g822
ag1093
aa(lp3758
g803
ag804
aa(lp3759
g795
ag796
aa(lp3760
g816
ag1088
aa(lp3761
g812
ag226
aa(lp3762
g805
ag1081
aatp3763
Rp3764
ag3317
((lp3765
(lp3766
g822
ag1115
aa(lp3767
g803
ag804
aa(lp3768
g795
ag796
aa(lp3769
g816
ag1110
aa(lp3770
g812
ag703
aa(lp3771
g805
ag806
aatp3772
Rp3773
ag3317
((lp3774
(lp3775
g822
ag1137
aa(lp3776
g803
ag804
aa(lp3777
g795
ag796
aa(lp3778
g816
ag1132
aa(lp3779
g812
ag363
aa(lp3780
g805
ag806
aatp3781
Rp3782
ag3317
((lp3783
(lp3784
g822
ag1159
aa(lp3785
g803
ag804
aa(lp3786
g795
ag796
aa(lp3787
g816
ag1154
aa(lp3788
g812
ag79
aa(lp3789
g805
ag806
aatp3790
Rp3791
asg3221
Nsg3222
g1145
sg3223
I16
sg3224
I0
sg3225
I16
sbag0
(g3158
g2
Ntp3792
Rp3793
(dp3794
g3162
Nsg3163
(lp3795
sg3165
I553726256
sg10
g3290
sg6
I-1
sg3167
I1
sg18
I01
sg19
g20
sg3168
g0
(g3169
g3170
(dp3796
g3172
g3173
(g3174
g3175
g3176
g3177
tp3797
Rp3798
(I1
(I18
I1
tp3799
g3183
I00
S'\x00\x00\x80?\x00\x00\x80?\x00\x00\x80?\x00\x00\x80?\x00\x00\x80?\x00\x00\x80?\x00\x00\x80?\x00\x00\x80?\x00\x00\x80?\x00\x00\x80?\x00\x00\x80?\x00\x00\x80?\x00\x00\x80?\x00\x00\x80?\x00\x00\x80?\x00\x00\x80?\x00\x00\x80?\x00\x00\x80?'
p3800
S'\x00\x00\x00\x00\x00\x00\x00\x00\x00\x00\x00\x00\x00\x00\x00\x00\x00\x00'
p3801
Ntp3802
bsg3189
g3173
(g3174
g3175
g3176
g3177
tp3803
Rp3804
(I1
(I18
I1
tp3805
g3183
I00
S'\x00\x00\x00\x00\x00\x00\x80?\x00\x00\x00@\x00\x00@@\x00\x00\x80@\x00\x00\xa0@\x00\x00\xc0@\x00\x00\xe0@\x00\x00\x00A\x00\x00\x10A\x00\x00 A\x00\x000A\x00\x00@A\x00\x00PA\x00\x00`A\x00\x00pA\x00\x00\x80A\x00\x00\x88A'
p3806
S'\x00\x00\x00\x00\x00\x00\x00\x00\x00\x00\x00\x00\x00\x00\x00\x00\x00\x00'
p3807
Ntp3808
bstp3809
Rp3810
(dp3811
g3199
(dp3812
g3172
I01
sg3189
I01
ssg3201
g3793
sg3202
(lp3813
g3172
ag3189
asg3204
(lp3814
I18
aI1
asbsg3206
g3278
sg3208
g3209
(g3175
(I0
tp3815
g3177
tp3816
Rp3817
(I1
(I18
I1
tp3818
g64
I00
S'\x00\x00\x00\x00\x01\x00\x00\x00\x02\x00\x00\x00\x03\x00\x00\x00\x04\x00\x00\x00\x05\x00\x00\x00\x06\x00\x00\x00\x07\x00\x00\x00\x08\x00\x00\x00\t\x00\x00\x00\n\x00\x00\x00\x0b\x00\x00\x00\x0c\x00\x00\x00\r\x00\x00\x00\x0e\x00\x00\x00\x0f\x00\x00\x00\x10\x00\x00\x00\x11\x00\x00\x00'
p3819
tp3820
bsg3216
I01
sg3217
I1
sg3218
I-1
sg3219
(lp3821
g3317
((lp3822
(lp3823
g1200
ag1203
aa(lp3824
g1182
ag1183
aa(lp3825
g1174
ag1175
aa(lp3826
g1194
ag1197
aa(lp3827
g1191
ag703
aa(lp3828
g1184
ag1185
aatp3829
Rp3830
ag3317
((lp3831
(lp3832
g1200
ag1226
aa(lp3833
g1182
ag1183
aa(lp3834
g1174
ag1175
aa(lp3835
g1194
ag1221
aa(lp3836
g1191
ag1216
aa(lp3837
g1184
ag1185
aatp3838
Rp3839
ag3317
((lp3840
(lp3841
g1200
ag1248
aa(lp3842
g1182
ag1183
aa(lp3843
g1174
ag1175
aa(lp3844
g1194
ag1243
aa(lp3845
g1191
ag994
aa(lp3846
g1184
ag1185
aatp3847
Rp3848
ag3317
((lp3849
(lp3850
g1200
ag1270
aa(lp3851
g1182
ag1183
aa(lp3852
g1174
ag1175
aa(lp3853
g1194
ag1265
aa(lp3854
g1191
ag363
aa(lp3855
g1184
ag1185
aatp3856
Rp3857
ag3317
((lp3858
(lp3859
g1200
ag1292
aa(lp3860
g1182
ag1183
aa(lp3861
g1174
ag1175
aa(lp3862
g1194
ag1287
aa(lp3863
g1191
ag994
aa(lp3864
g1184
ag1185
aatp3865
Rp3866
ag3317
((lp3867
(lp3868
g1200
ag1314
aa(lp3869
g1182
ag1183
aa(lp3870
g1174
ag1175
aa(lp3871
g1194
ag1309
aa(lp3872
g1191
ag363
aa(lp3873
g1184
ag1185
aatp3874
Rp3875
ag3317
((lp3876
(lp3877
g1200
ag1336
aa(lp3878
g1182
ag1183
aa(lp3879
g1174
ag1175
aa(lp3880
g1194
ag1331
aa(lp3881
g1191
ag134
aa(lp3882
g1184
ag1185
aatp3883
Rp3884
ag3317
((lp3885
(lp3886
g1200
ag1358
aa(lp3887
g1182
ag1183
aa(lp3888
g1174
ag1175
aa(lp3889
g1194
ag1353
aa(lp3890
g1191
ag522
aa(lp3891
g1184
ag1185
aatp3892
Rp3893
ag3317
((lp3894
(lp3895
g1200
ag1380
aa(lp3896
g1182
ag1183
aa(lp3897
g1174
ag1175
aa(lp3898
g1194
ag1375
aa(lp3899
g1191
ag703
aa(lp3900
g1184
ag1185
aatp3901
Rp3902
ag3317
((lp3903
(lp3904
g1200
ag1402
aa(lp3905
g1182
ag1183
aa(lp3906
g1174
ag1175
aa(lp3907
g1194
ag1397
aa(lp3908
g1191
ag1216
aa(lp3909
g1184
ag1185
aatp3910
Rp3911
ag3317
((lp3912
(lp3913
g1200
ag1426
aa(lp3914
g1182
ag1183
aa(lp3915
g1174
ag1175
aa(lp3916
g1194
ag1421
aa(lp3917
g1191
ag1416
aa(lp3918
g1184
ag1413
aatp3919
Rp3920
ag3317
((lp3921
(lp3922
g1200
ag1448
aa(lp3923
g1182
ag1183
aa(lp3924
g1174
ag1175
aa(lp3925
g1194
ag1443
aa(lp3926
g1191
ag658
aa(lp3927
g1184
ag1185
aatp3928
Rp3929
ag3317
((lp3930
(lp3931
g1200
ag1471
aa(lp3932
g1182
ag1183
aa(lp3933
g1174
ag1175
aa(lp3934
g1194
ag1466
aa(lp3935
g1191
ag1461
aa(lp3936
g1184
ag1185
aatp3937
Rp3938
ag3317
((lp3939
(lp3940
g1200
ag1494
aa(lp3941
g1182
ag1183
aa(lp3942
g1174
ag1175
aa(lp3943
g1194
ag1489
aa(lp3944
g1191
ag1484
aa(lp3945
g1184
ag1185
aatp3946
Rp3947
ag3317
((lp3948
(lp3949
g1200
ag1517
aa(lp3950
g1182
ag1183
aa(lp3951
g1174
ag1175
aa(lp3952
g1194
ag1512
aa(lp3953
g1191
ag1507
aa(lp3954
g1184
ag1185
aatp3955
Rp3956
ag3317
((lp3957
(lp3958
g1200
ag1540
aa(lp3959
g1182
ag1183
aa(lp3960
g1174
ag1175
aa(lp3961
g1194
ag1535
aa(lp3962
g1191
ag226
aa(lp3963
g1184
ag1528
aatp3964
Rp3965
ag3317
((lp3966
(lp3967
g1200
ag1562
aa(lp3968
g1182
ag1183
aa(lp3969
g1174
ag1175
aa(lp3970
g1194
ag1557
aa(lp3971
g1191
ag1484
aa(lp3972
g1184
ag1185
aatp3973
Rp3974
ag3317
((lp3975
(lp3976
g1200
ag1584
aa(lp3977
g1182
ag1183
aa(lp3978
g1174
ag1175
aa(lp3979
g1194
ag1579
aa(lp3980
g1191
ag658
aa(lp3981
g1184
ag1185
aatp3982
Rp3983
asg3221
Nsg3222
g1570
sg3223
I18
sg3224
I0
sg3225
I18
sbag0
(g3158
g2
Ntp3984
Rp3985
(dp3986
g3162
Nsg3163
(lp3987
sg3165
I553726256
sg10
g3201
sg6
I-1
sg3167
I4
sg18
I01
sg19
g20
sg3168
g0
(g3169
g3170
(dp3988
g14
g3209
(g3175
(I0
tp3989
g3177
tp3990
Rp3991
(I1
(I1
I4
tp3992
g3237
I00
(lp3993
g1975
ag1975
ag784
ag1588
atp3994
bsg16
g3209
(g3175
(I0
tp3995
g3177
tp3996
Rp3997
(I1
(I1
I4
tp3998
g3237
I00
(lp3999
g1975
ag1163
ag784
ag1588
atp4000
bsg3172
g3173
(g3174
g3175
g3176
g3177
tp4001
Rp4002
(I1
(I1
I4
tp4003
g3183
I00
S'\x00\x00\x80?\x00\x00\x80?\x00\x00\x80?\x00\x00\x80?'
p4004
S'\x00\x00\x00\x00'
p4005
Ntp4006
bsg15
g3173
(g3174
g3175
g3176
g3177
tp4007
Rp4008
(I1
(I1
I4
tp4009
g3183
I00
S'--\x91?\xec\x97\xd5>)r\xb3>s:^?'
p4010
S'\x00\x00\x00\x00'
p4011
Ntp4012
bsg3189
g3173
(g3174
g3175
g3176
g3177
tp4013
Rp4014
(I1
(I1
I4
tp4015
g3183
I00
S'\x00\x00\x00\x00\x00\x00\x80?\x00\x00\x00@\x00\x00@@'
p4016
S'\x00\x00\x00\x00'
p4017
Ntp4018
bsg17
g3173
(g3174
g3175
g3176
g3177
tp4019
Rp4020
(I1
(I1
I4
tp4021
g3183
I00
S'\x14\xa4+>r.\xce=\x8e\xe6+>\x99\xeb\x1a>'
p4022
S'\x00\x00\x00\x00'
p4023
Ntp4024
bstp4025
Rp4026
(dp4027
g3199
(dp4028
g16
I00
sg3172
I01
sg15
I01
sg14
I00
sg3189
I01
sg17
I01
ssg3201
g3985
sg3202
(lp4029
g3172
ag3189
ag14
ag15
ag16
ag17
asg3204
(lp4030
I1
aI4
asbsg3206
g3278
sg3208
g3209
(g3175
(I0
tp4031
g3177
tp4032
Rp4033
(I1
(I1
I4
tp4034
g64
I00
S'\x00\x00\x00\x00\x00\x00\x00\x00\x00\x00\x00\x00\x00\x00\x00\x00'
p4035
tp4036
bsg3216
I01
sg3217
I4
sg3218
I-1
sg3219
(lp4037
Nasg3221
Nsg3222
g2750
sg3223
I4
sg3224
I0
sg3225
I4
sbag0
(g3158
g2
Ntp4038
Rp4039
(dp4040
g3162
Nsg3163
(lp4041
sg3165
I553726256
sg10
g3290
sg6
I-1
sg3167
I1
sg18
I01
sg19
g20
sg3168
g0
(g3169
g3170
(dp4042
g3172
g3173
(g3174
g3175
g3176
g3177
tp4043
Rp4044
(I1
(I16
I1
tp4045
g3183
I00
S'\x00\x00\x80?\x00\x00\x80?\x00\x00\x80?\x00\x00\x80?\x00\x00\x80?\x00\x00\x80?\x00\x00\x80?\x00\x00\x80?\x00\x00\x80?\x00\x00\x80?\x00\x00\x80?\x00\x00\x80?\x00\x00\x80?\x00\x00\x80?\x00\x00\x80?\x00\x00\x80?'
p4046
S'\x00\x00\x00\x00\x00\x00\x00\x00\x00\x00\x00\x00\x00\x00\x00\x00'
p4047
Ntp4048
bsg3189
g3173
(g3174
g3175
g3176
g3177
tp4049
Rp4050
(I1
(I16
I1
tp4051
g3183
I00
S'\x00\x00\x00\x00\x00\x00\x80?\x00\x00\x00@\x00\x00@@\x00\x00\x80@\x00\x00\xa0@\x00\x00\xc0@\x00\x00\xe0@\x00\x00\x00A\x00\x00\x10A\x00\x00 A\x00\x000A\x00\x00@A\x00\x00PA\x00\x00`A\x00\x00pA'
p4052
S'\x00\x00\x00\x00\x00\x00\x00\x00\x00\x00\x00\x00\x00\x00\x00\x00'
p4053
Ntp4054
bstp4055
Rp4056
(dp4057
g3199
(dp4058
g3172
I01
sg3189
I01
ssg3201
g4039
sg3202
(lp4059
g3172
ag3189
asg3204
(lp4060
I16
aI1
asbsg3206
g3278
sg3208
g3209
(g3175
(I0
tp4061
g3177
tp4062
Rp4063
(I1
(I16
I1
tp4064
g64
I00
S'\x00\x00\x00\x00\x01\x00\x00\x00\x02\x00\x00\x00\x03\x00\x00\x00\x04\x00\x00\x00\x05\x00\x00\x00\x06\x00\x00\x00\x07\x00\x00\x00\x08\x00\x00\x00\t\x00\x00\x00\n\x00\x00\x00\x0b\x00\x00\x00\x0c\x00\x00\x00\r\x00\x00\x00\x0e\x00\x00\x00\x0f\x00\x00\x00'
p4065
tp4066
bsg3216
I01
sg3217
I1
sg3218
I-1
sg3219
(lp4067
g3317
((lp4068
(lp4069
g1633
ag1636
aa(lp4070
g1612
ag1613
aa(lp4071
g1604
ag1605
aa(lp4072
g1624
ag1627
aa(lp4073
g1621
ag813
aa(lp4074
g1614
ag1615
aatp4075
Rp4076
ag3317
((lp4077
(lp4078
g1633
ag1658
aa(lp4079
g1612
ag1613
aa(lp4080
g1604
ag1605
aa(lp4081
g1624
ag1653
aa(lp4082
g1621
ag1507
aa(lp4083
g1614
ag1615
aatp4084
Rp4085
ag3317
((lp4086
(lp4087
g1633
ag1682
aa(lp4088
g1612
ag1613
aa(lp4089
g1604
ag1605
aa(lp4090
g1624
ag1677
aa(lp4091
g1621
ag1672
aa(lp4092
g1614
ag1669
aatp4093
Rp4094
ag3317
((lp4095
(lp4096
g1633
ag1704
aa(lp4097
g1612
ag1613
aa(lp4098
g1604
ag1605
aa(lp4099
g1624
ag1699
aa(lp4100
g1621
ag134
aa(lp4101
g1614
ag1615
aatp4102
Rp4103
ag3317
((lp4104
(lp4105
g1633
ag1726
aa(lp4106
g1612
ag1613
aa(lp4107
g1604
ag1605
aa(lp4108
g1624
ag1721
aa(lp4109
g1621
ag386
aa(lp4110
g1614
ag1615
aatp4111
Rp4112
ag3317
((lp4113
(lp4114
g1633
ag1748
aa(lp4115
g1612
ag1613
aa(lp4116
g1604
ag1605
aa(lp4117
g1624
ag1743
aa(lp4118
g1621
ag386
aa(lp4119
g1614
ag1615
aatp4120
Rp4121
ag3317
((lp4122
(lp4123
g1633
ag1770
aa(lp4124
g1612
ag1613
aa(lp4125
g1604
ag1605
aa(lp4126
g1624
ag1765
aa(lp4127
g1621
ag386
aa(lp4128
g1614
ag1615
aatp4129
Rp4130
ag3317
((lp4131
(lp4132
g1633
ag1793
aa(lp4133
g1612
ag1613
aa(lp4134
g1604
ag1605
aa(lp4135
g1624
ag1788
aa(lp4136
g1621
ag226
aa(lp4137
g1614
ag1781
aatp4138
Rp4139
ag3317
((lp4140
(lp4141
g1633
ag1816
aa(lp4142
g1612
ag1613
aa(lp4143
g1604
ag1605
aa(lp4144
g1624
ag1811
aa(lp4145
g1621
ag1806
aa(lp4146
g1614
ag1615
aatp4147
Rp4148
ag3317
((lp4149
(lp4150
g1633
ag1838
aa(lp4151
g1612
ag1613
aa(lp4152
g1604
ag1605
aa(lp4153
g1624
ag1833
aa(lp4154
g1621
ag409
aa(lp4155
g1614
ag1615
aatp4156
Rp4157
ag3317
((lp4158
(lp4159
g1633
ag1860
aa(lp4160
g1612
ag1613
aa(lp4161
g1604
ag1605
aa(lp4162
g1624
ag1855
aa(lp4163
g1621
ag386
aa(lp4164
g1614
ag1615
aatp4165
Rp4166
ag3317
((lp4167
(lp4168
g1633
ag1882
aa(lp4169
g1612
ag1613
aa(lp4170
g1604
ag1605
aa(lp4171
g1624
ag1877
aa(lp4172
g1621
ag363
aa(lp4173
g1614
ag1615
aatp4174
Rp4175
ag3317
((lp4176
(lp4177
g1633
ag1904
aa(lp4178
g1612
ag1613
aa(lp4179
g1604
ag1605
aa(lp4180
g1624
ag1899
aa(lp4181
g1621
ag1806
aa(lp4182
g1614
ag1615
aatp4183
Rp4184
ag3317
((lp4185
(lp4186
g1633
ag1926
aa(lp4187
g1612
ag1613
aa(lp4188
g1604
ag1605
aa(lp4189
g1624
ag1921
aa(lp4190
g1621
ag1216
aa(lp4191
g1614
ag1615
aatp4192
Rp4193
ag3317
((lp4194
(lp4195
g1633
ag1949
aa(lp4196
g1612
ag1613
aa(lp4197
g1604
ag1605
aa(lp4198
g1624
ag1944
aa(lp4199
g1621
ag1939
aa(lp4200
g1614
ag1615
aatp4201
Rp4202
ag3317
((lp4203
(lp4204
g1633
ag1971
aa(lp4205
g1612
ag1613
aa(lp4206
g1604
ag1605
aa(lp4207
g1624
ag1966
aa(lp4208
g1621
ag409
aa(lp4209
g1614
ag1615
aatp4210
Rp4211
asg3221
Nsg3222
g1957
sg3223
I16
sg3224
I0
sg3225
I16
sbag0
(g3158
g2
Ntp4212
Rp4213
(dp4214
g3162
Nsg3163
(lp4215
sg3165
I553726256
sg10
g3290
sg6
I-1
sg3167
I1
sg18
I01
sg19
g20
sg3168
g0
(g3169
g3170
(dp4216
g3172
g3173
(g3174
g3175
g3176
g3177
tp4217
Rp4218
(I1
(I17
I1
tp4219
g3183
I00
S'\x00\x00\x80?\x00\x00\x80?\x00\x00\x80?\x00\x00\x80?\x00\x00\x80?\x00\x00\x80?\x00\x00\x80?\x00\x00\x80?\x00\x00\x80?\x00\x00\x80?\x00\x00\x80?\x00\x00\x80?\x00\x00\x80?\x00\x00\x80?\x00\x00\x80?\x00\x00\x80?\x00\x00\x80?'
p4220
S'\x00\x00\x00\x00\x00\x00\x00\x00\x00\x00\x00\x00\x00\x00\x00\x00\x00'
p4221
Ntp4222
bsg3189
g3173
(g3174
g3175
g3176
g3177
tp4223
Rp4224
(I1
(I17
I1
tp4225
g3183
I00
S'\x00\x00\x00\x00\x00\x00\x80?\x00\x00\x00@\x00\x00@@\x00\x00\x80@\x00\x00\xa0@\x00\x00\xc0@\x00\x00\xe0@\x00\x00\x00A\x00\x00\x10A\x00\x00 A\x00\x000A\x00\x00@A\x00\x00PA\x00\x00`A\x00\x00pA\x00\x00\x80A'
p4226
S'\x00\x00\x00\x00\x00\x00\x00\x00\x00\x00\x00\x00\x00\x00\x00\x00\x00'
p4227
Ntp4228
bstp4229
Rp4230
(dp4231
g3199
(dp4232
g3172
I01
sg3189
I01
ssg3201
g4213
sg3202
(lp4233
g3172
ag3189
asg3204
(lp4234
I17
aI1
asbsg3206
g3278
sg3208
g3209
(g3175
(I0
tp4235
g3177
tp4236
Rp4237
(I1
(I17
I1
tp4238
g64
I00
S'\x00\x00\x00\x00\x01\x00\x00\x00\x02\x00\x00\x00\x03\x00\x00\x00\x04\x00\x00\x00\x05\x00\x00\x00\x06\x00\x00\x00\x07\x00\x00\x00\x08\x00\x00\x00\t\x00\x00\x00\n\x00\x00\x00\x0b\x00\x00\x00\x0c\x00\x00\x00\r\x00\x00\x00\x0e\x00\x00\x00\x0f\x00\x00\x00\x10\x00\x00\x00'
p4239
tp4240
bsg3216
I01
sg3217
I1
sg3218
I-1
sg3219
(lp4241
g3317
((lp4242
(lp4243
g2012
ag2015
aa(lp4244
g1994
ag1995
aa(lp4245
g1986
ag1987
aa(lp4246
g2006
ag2009
aa(lp4247
g2003
ag1461
aa(lp4248
g1996
ag1997
aatp4249
Rp4250
ag3317
((lp4251
(lp4252
g2012
ag2038
aa(lp4253
g1994
ag1995
aa(lp4254
g1986
ag1987
aa(lp4255
g2006
ag2033
aa(lp4256
g2003
ag1672
aa(lp4257
g1996
ag2026
aatp4258
Rp4259
ag3317
((lp4260
(lp4261
g2012
ag2060
aa(lp4262
g1994
ag1995
aa(lp4263
g1986
ag1987
aa(lp4264
g2006
ag2055
aa(lp4265
g2003
ag658
aa(lp4266
g1996
ag1997
aatp4267
Rp4268
ag3317
((lp4269
(lp4270
g2012
ag2082
aa(lp4271
g1994
ag1995
aa(lp4272
g1986
ag1987
aa(lp4273
g2006
ag2077
aa(lp4274
g2003
ag318
aa(lp4275
g1996
ag1997
aatp4276
Rp4277
ag3317
((lp4278
(lp4279
g2012
ag2104
aa(lp4280
g1994
ag1995
aa(lp4281
g1986
ag1987
aa(lp4282
g2006
ag2099
aa(lp4283
g2003
ag658
aa(lp4284
g1996
ag1997
aatp4285
Rp4286
ag3317
((lp4287
(lp4288
g2012
ag2126
aa(lp4289
g1994
ag1995
aa(lp4290
g1986
ag1987
aa(lp4291
g2006
ag2121
aa(lp4292
g2003
ag134
aa(lp4293
g1996
ag1997
aatp4294
Rp4295
ag3317
((lp4296
(lp4297
g2012
ag2148
aa(lp4298
g1994
ag1995
aa(lp4299
g1986
ag1987
aa(lp4300
g2006
ag2143
aa(lp4301
g2003
ag249
aa(lp4302
g1996
ag1997
aatp4303
Rp4304
ag3317
((lp4305
(lp4306
g2012
ag2170
aa(lp4307
g1994
ag1995
aa(lp4308
g1986
ag1987
aa(lp4309
g2006
ag2165
aa(lp4310
g2003
ag272
aa(lp4311
g1996
ag1997
aatp4312
Rp4313
ag3317
((lp4314
(lp4315
g2012
ag2192
aa(lp4316
g1994
ag1995
aa(lp4317
g1986
ag1987
aa(lp4318
g2006
ag2187
aa(lp4319
g2003
ag522
aa(lp4320
g1996
ag1997
aatp4321
Rp4322
ag3317
((lp4323
(lp4324
g2012
ag2214
aa(lp4325
g1994
ag1995
aa(lp4326
g1986
ag1987
aa(lp4327
g2006
ag2209
aa(lp4328
g2003
ag363
aa(lp4329
g1996
ag1997
aatp4330
Rp4331
ag3317
((lp4332
(lp4333
g2012
ag2236
aa(lp4334
g1994
ag1995
aa(lp4335
g1986
ag1987
aa(lp4336
g2006
ag2231
aa(lp4337
g2003
ag971
aa(lp4338
g1996
ag2026
aatp4339
Rp4340
ag3317
((lp4341
(lp4342
g2012
ag2258
aa(lp4343
g1994
ag1995
aa(lp4344
g1986
ag1987
aa(lp4345
g2006
ag2253
aa(lp4346
g2003
ag295
aa(lp4347
g1996
ag1997
aatp4348
Rp4349
ag3317
((lp4350
(lp4351
g2012
ag2280
aa(lp4352
g1994
ag1995
aa(lp4353
g1986
ag1987
aa(lp4354
g2006
ag2275
aa(lp4355
g2003
ag157
aa(lp4356
g1996
ag1997
aatp4357
Rp4358
ag3317
((lp4359
(lp4360
g2012
ag2302
aa(lp4361
g1994
ag1995
aa(lp4362
g1986
ag1987
aa(lp4363
g2006
ag2297
aa(lp4364
g2003
ag1507
aa(lp4365
g1996
ag1997
aatp4366
Rp4367
ag3317
((lp4368
(lp4369
g2012
ag2324
aa(lp4370
g1994
ag1995
aa(lp4371
g1986
ag1987
aa(lp4372
g2006
ag2319
aa(lp4373
g2003
ag522
aa(lp4374
g1996
ag1997
aatp4375
Rp4376
ag3317
((lp4377
(lp4378
g2012
ag2346
aa(lp4379
g1994
ag1995
aa(lp4380
g1986
ag1987
aa(lp4381
g2006
ag2341
aa(lp4382
g2003
ag1939
aa(lp4383
g1996
ag1997
aatp4384
Rp4385
ag3317
((lp4386
(lp4387
g2012
ag2368
aa(lp4388
g1994
ag1995
aa(lp4389
g1986
ag1987
aa(lp4390
g2006
ag2363
aa(lp4391
g2003
ag318
aa(lp4392
g1996
ag1997
aatp4393
Rp4394
asg3221
Nsg3222
g2354
sg3223
I17
sg3224
I0
sg3225
I17
sbag0
(g3158
g2
Ntp4395
Rp4396
(dp4397
g3162
Nsg3163
(lp4398
sg3165
I553726256
sg10
g3290
sg6
I-1
sg3167
I1
sg18
I01
sg19
g20
sg3168
g0
(g3169
g3170
(dp4399
g3172
g3173
(g3174
g3175
g3176
g3177
tp4400
Rp4401
(I1
(I15
I1
tp4402
g3183
I00
S'\x00\x00\x80?\x00\x00\x80?\x00\x00\x80?\x00\x00\x80?\x00\x00\x80?\x00\x00\x80?\x00\x00\x80?\x00\x00\x80?\x00\x00\x80?\x00\x00\x80?\x00\x00\x80?\x00\x00\x80?\x00\x00\x80?\x00\x00\x80?\x00\x00\x80?'
p4403
S'\x00\x00\x00\x00\x00\x00\x00\x00\x00\x00\x00\x00\x00\x00\x00'
p4404
Ntp4405
bsg3189
g3173
(g3174
g3175
g3176
g3177
tp4406
Rp4407
(I1
(I15
I1
tp4408
g3183
I00
S'\x00\x00\x00\x00\x00\x00\x80?\x00\x00\x00@\x00\x00@@\x00\x00\x80@\x00\x00\xa0@\x00\x00\xc0@\x00\x00\xe0@\x00\x00\x00A\x00\x00\x10A\x00\x00 A\x00\x000A\x00\x00@A\x00\x00PA\x00\x00`A'
p4409
S'\x00\x00\x00\x00\x00\x00\x00\x00\x00\x00\x00\x00\x00\x00\x00'
p4410
Ntp4411
bstp4412
Rp4413
(dp4414
g3199
(dp4415
g3172
I01
sg3189
I01
ssg3201
g4396
sg3202
(lp4416
g3172
ag3189
asg3204
(lp4417
I15
aI1
asbsg3206
g3278
sg3208
g3209
(g3175
(I0
tp4418
g3177
tp4419
Rp4420
(I1
(I15
I1
tp4421
g64
I00
S'\x00\x00\x00\x00\x01\x00\x00\x00\x02\x00\x00\x00\x03\x00\x00\x00\x04\x00\x00\x00\x05\x00\x00\x00\x06\x00\x00\x00\x07\x00\x00\x00\x08\x00\x00\x00\t\x00\x00\x00\n\x00\x00\x00\x0b\x00\x00\x00\x0c\x00\x00\x00\r\x00\x00\x00\x0e\x00\x00\x00'
p4422
tp4423
bsg3216
I01
sg3217
I1
sg3218
I-1
sg3219
(lp4424
g3317
((lp4425
(lp4426
g2408
ag2411
aa(lp4427
g2390
ag2391
aa(lp4428
g2382
ag2383
aa(lp4429
g2402
ag2405
aa(lp4430
g2399
ag612
aa(lp4431
g2392
ag2393
aatp4432
Rp4433
ag3317
((lp4434
(lp4435
g2408
ag2434
aa(lp4436
g2390
ag2391
aa(lp4437
g2382
ag2383
aa(lp4438
g2402
ag2429
aa(lp4439
g2399
ag1507
aa(lp4440
g2392
ag2422
aatp4441
Rp4442
ag3317
((lp4443
(lp4444
g2408
ag2456
aa(lp4445
g2390
ag2391
aa(lp4446
g2382
ag2383
aa(lp4447
g2402
ag2451
aa(lp4448
g2399
ag134
aa(lp4449
g2392
ag2422
aatp4450
Rp4451
ag3317
((lp4452
(lp4453
g2408
ag2478
aa(lp4454
g2390
ag2391
aa(lp4455
g2382
ag2383
aa(lp4456
g2402
ag2473
aa(lp4457
g2399
ag1461
aa(lp4458
g2392
ag2422
aatp4459
Rp4460
ag3317
((lp4461
(lp4462
g2408
ag2500
aa(lp4463
g2390
ag2391
aa(lp4464
g2382
ag2383
aa(lp4465
g2402
ag2495
aa(lp4466
g2399
ag703
aa(lp4467
g2392
ag2422
aatp4468
Rp4469
ag3317
((lp4470
(lp4471
g2408
ag2522
aa(lp4472
g2390
ag2391
aa(lp4473
g2382
ag2383
aa(lp4474
g2402
ag2517
aa(lp4475
g2399
ag522
aa(lp4476
g2392
ag2422
aatp4477
Rp4478
ag3317
((lp4479
(lp4480
g2408
ag2544
aa(lp4481
g2390
ag2391
aa(lp4482
g2382
ag2383
aa(lp4483
g2402
ag2539
aa(lp4484
g2399
ag522
aa(lp4485
g2392
ag2422
aatp4486
Rp4487
ag3317
((lp4488
(lp4489
g2408
ag2566
aa(lp4490
g2390
ag2391
aa(lp4491
g2382
ag2383
aa(lp4492
g2402
ag2561
aa(lp4493
g2399
ag180
aa(lp4494
g2392
ag2422
aatp4495
Rp4496
ag3317
((lp4497
(lp4498
g2408
ag2588
aa(lp4499
g2390
ag2391
aa(lp4500
g2382
ag2383
aa(lp4501
g2402
ag2583
aa(lp4502
g2399
ag386
aa(lp4503
g2392
ag2422
aatp4504
Rp4505
ag3317
((lp4506
(lp4507
g2408
ag2610
aa(lp4508
g2390
ag2391
aa(lp4509
g2382
ag2383
aa(lp4510
g2402
ag2605
aa(lp4511
g2399
ag612
aa(lp4512
g2392
ag2393
aatp4513
Rp4514
ag3317
((lp4515
(lp4516
g2408
ag2633
aa(lp4517
g2390
ag2391
aa(lp4518
g2382
ag2383
aa(lp4519
g2402
ag2628
aa(lp4520
g2399
ag2623
aa(lp4521
g2392
ag2422
aatp4522
Rp4523
ag3317
((lp4524
(lp4525
g2408
ag2655
aa(lp4526
g2390
ag2391
aa(lp4527
g2382
ag2383
aa(lp4528
g2402
ag2650
aa(lp4529
g2399
ag1507
aa(lp4530
g2392
ag2422
aatp4531
Rp4532
ag3317
((lp4533
(lp4534
g2408
ag2677
aa(lp4535
g2390
ag2391
aa(lp4536
g2382
ag2383
aa(lp4537
g2402
ag2672
aa(lp4538
g2399
ag1484
aa(lp4539
g2392
ag2422
aatp4540
Rp4541
ag3317
((lp4542
(lp4543
g2408
ag2699
aa(lp4544
g2390
ag2391
aa(lp4545
g2382
ag2383
aa(lp4546
g2402
ag2694
aa(lp4547
g2399
ag813
aa(lp4548
g2392
ag2422
aatp4549
Rp4550
ag3317
((lp4551
(lp4552
g2408
ag2721
aa(lp4553
g2390
ag2391
aa(lp4554
g2382
ag2383
aa(lp4555
g2402
ag2716
aa(lp4556
g2399
ag318
aa(lp4557
g2392
ag2422
aatp4558
Rp4559
asg3221
Nsg3222
g2707
sg3223
I15
sg3224
I0
sg3225
I15
sbag0
(g3158
g2
Ntp4560
Rp4561
(dp4562
g3162
Nsg3163
(lp4563
sg3165
I553726256
sg10
g3290
sg6
I-1
sg3167
I1
sg18
I01
sg19
g20
sg3168
g0
(g3169
g3170
(dp4564
g3172
g3173
(g3174
g3175
g3176
g3177
tp4565
Rp4566
(I1
(I18
I1
tp4567
g3183
I00
S'\x00\x00\x80?\x00\x00\x80?\x00\x00\x80?\x00\x00\x80?\x00\x00\x80?\x00\x00\x80?\x00\x00\x80?\x00\x00\x80?\x00\x00\x80?\x00\x00\x80?\x00\x00\x80?\x00\x00\x80?\x00\x00\x80?\x00\x00\x80?\x00\x00\x80?\x00\x00\x80?\x00\x00\x80?\x00\x00\x80?'
p4568
S'\x00\x00\x00\x00\x00\x00\x00\x00\x00\x00\x00\x00\x00\x00\x00\x00\x00\x00'
p4569
Ntp4570
bsg3189
g3173
(g3174
g3175
g3176
g3177
tp4571
Rp4572
(I1
(I18
I1
tp4573
g3183
I00
S'\x00\x00\x00\x00\x00\x00\x80?\x00\x00\x00@\x00\x00@@\x00\x00\x80@\x00\x00\xa0@\x00\x00\xc0@\x00\x00\xe0@\x00\x00\x00A\x00\x00\x10A\x00\x00 A\x00\x000A\x00\x00@A\x00\x00PA\x00\x00`A\x00\x00pA\x00\x00\x80A\x00\x00\x88A'
p4574
S'\x00\x00\x00\x00\x00\x00\x00\x00\x00\x00\x00\x00\x00\x00\x00\x00\x00\x00'
p4575
Ntp4576
bstp4577
Rp4578
(dp4579
g3199
(dp4580
g3172
I01
sg3189
I01
ssg3201
g4561
sg3202
(lp4581
g3172
ag3189
asg3204
(lp4582
I18
aI1
asbsg3206
g3278
sg3208
g3209
(g3175
(I0
tp4583
g3177
tp4584
Rp4585
(I1
(I18
I1
tp4586
g64
I00
S'\x00\x00\x00\x00\x01\x00\x00\x00\x02\x00\x00\x00\x03\x00\x00\x00\x04\x00\x00\x00\x05\x00\x00\x00\x06\x00\x00\x00\x07\x00\x00\x00\x08\x00\x00\x00\t\x00\x00\x00\n\x00\x00\x00\x0b\x00\x00\x00\x0c\x00\x00\x00\r\x00\x00\x00\x0e\x00\x00\x00\x0f\x00\x00\x00\x10\x00\x00\x00\x11\x00\x00\x00'
p4587
tp4588
bsg3216
I01
sg3217
I1
sg3218
I-1
sg3219
(lp4589
g3317
((lp4590
(lp4591
g2761
ag2764
aa(lp4592
g2743
ag2744
aa(lp4593
g2735
ag2736
aa(lp4594
g2755
ag2758
aa(lp4595
g2752
ag295
aa(lp4596
g2745
ag2746
aatp4597
Rp4598
ag3317
((lp4599
(lp4600
g2761
ag2786
aa(lp4601
g2743
ag2744
aa(lp4602
g2735
ag2736
aa(lp4603
g2755
ag2781
aa(lp4604
g2752
ag318
aa(lp4605
g2745
ag2746
aatp4606
Rp4607
ag3317
((lp4608
(lp4609
g2761
ag2808
aa(lp4610
g2743
ag2744
aa(lp4611
g2735
ag2736
aa(lp4612
g2755
ag2803
aa(lp4613
g2752
ag180
aa(lp4614
g2745
ag2746
aatp4615
Rp4616
ag3317
((lp4617
(lp4618
g2761
ag2832
aa(lp4619
g2743
ag2744
aa(lp4620
g2735
ag2736
aa(lp4621
g2755
ag2827
aa(lp4622
g2752
ag2822
aa(lp4623
g2745
ag2819
aatp4624
Rp4625
ag3317
((lp4626
(lp4627
g2761
ag2854
aa(lp4628
g2743
ag2744
aa(lp4629
g2735
ag2736
aa(lp4630
g2755
ag2849
aa(lp4631
g2752
ag1507
aa(lp4632
g2745
ag2746
aatp4633
Rp4634
ag3317
((lp4635
(lp4636
g2761
ag2876
aa(lp4637
g2743
ag2744
aa(lp4638
g2735
ag2736
aa(lp4639
g2755
ag2871
aa(lp4640
g2752
ag363
aa(lp4641
g2745
ag2746
aatp4642
Rp4643
ag3317
((lp4644
(lp4645
g2761
ag2898
aa(lp4646
g2743
ag2744
aa(lp4647
g2735
ag2736
aa(lp4648
g2755
ag2893
aa(lp4649
g2752
ag157
aa(lp4650
g2745
ag2746
aatp4651
Rp4652
ag3317
((lp4653
(lp4654
g2761
ag2920
aa(lp4655
g2743
ag2744
aa(lp4656
g2735
ag2736
aa(lp4657
g2755
ag2915
aa(lp4658
g2752
ag249
aa(lp4659
g2745
ag2746
aatp4660
Rp4661
ag3317
((lp4662
(lp4663
g2761
ag2943
aa(lp4664
g2743
ag2744
aa(lp4665
g2735
ag2736
aa(lp4666
g2755
ag2938
aa(lp4667
g2752
ag226
aa(lp4668
g2745
ag2931
aatp4669
Rp4670
ag3317
((lp4671
(lp4672
g2761
ag2965
aa(lp4673
g2743
ag2744
aa(lp4674
g2735
ag2736
aa(lp4675
g2755
ag2960
aa(lp4676
g2752
ag1484
aa(lp4677
g2745
ag2746
aatp4678
Rp4679
ag3317
((lp4680
(lp4681
g2761
ag2987
aa(lp4682
g2743
ag2744
aa(lp4683
g2735
ag2736
aa(lp4684
g2755
ag2982
aa(lp4685
g2752
ag703
aa(lp4686
g2745
ag2746
aatp4687
Rp4688
ag3317
((lp4689
(lp4690
g2761
ag3009
aa(lp4691
g2743
ag2744
aa(lp4692
g2735
ag2736
aa(lp4693
g2755
ag3004
aa(lp4694
g2752
ag2623
aa(lp4695
g2745
ag2746
aatp4696
Rp4697
ag3317
((lp4698
(lp4699
g2761
ag3031
aa(lp4700
g2743
ag2744
aa(lp4701
g2735
ag2736
aa(lp4702
g2755
ag3026
aa(lp4703
g2752
ag386
aa(lp4704
g2745
ag2746
aatp4705
Rp4706
ag3317
((lp4707
(lp4708
g2761
ag3053
aa(lp4709
g2743
ag2744
aa(lp4710
g2735
ag2736
aa(lp4711
g2755
ag3048
aa(lp4712
g2752
ag477
aa(lp4713
g2745
ag2746
aatp4714
Rp4715
ag3317
((lp4716
(lp4717
g2761
ag3075
aa(lp4718
g2743
ag2744
aa(lp4719
g2735
ag2736
aa(lp4720
g2755
ag3070
aa(lp4721
g2752
ag409
aa(lp4722
g2745
ag2746
aatp4723
Rp4724
ag3317
((lp4725
(lp4726
g2761
ag3097
aa(lp4727
g2743
ag2744
aa(lp4728
g2735
ag2736
aa(lp4729
g2755
ag3092
aa(lp4730
g2752
ag452
aa(lp4731
g2745
ag2746
aatp4732
Rp4733
ag3317
((lp4734
(lp4735
g2761
ag3119
aa(lp4736
g2743
ag2744
aa(lp4737
g2735
ag2736
aa(lp4738
g2755
ag3114
aa(lp4739
g2752
ag813
aa(lp4740
g2745
ag2746
aatp4741
Rp4742
ag3317
((lp4743
(lp4744
g2761
ag3141
aa(lp4745
g2743
ag2744
aa(lp4746
g2735
ag2736
aa(lp4747
g2755
ag3136
aa(lp4748
g2752
ag1461
aa(lp4749
g2745
ag2746
aatp4750
Rp4751
asg3221
Nsg3222
g3127
sg3223
I18
sg3224
I0
sg3225
I18
sbasS'savePickle'
p4752
I00
sb.